
HC05_Master.elf:     file format elf32-littlenios2
HC05_Master.elf
architecture: nios2:r1, flags 0x00000112:
EXEC_P, HAS_SYMS, D_PAGED
start address 0x00040244

Program Header:
    LOAD off    0x00001000 vaddr 0x00040000 paddr 0x00040000 align 2**12
         filesz 0x00000020 memsz 0x00000020 flags r-x
    LOAD off    0x00001020 vaddr 0x00040020 paddr 0x00040020 align 2**12
         filesz 0x00020358 memsz 0x00020358 flags r-x
    LOAD off    0x00021378 vaddr 0x00060378 paddr 0x00061f7c align 2**12
         filesz 0x00001c04 memsz 0x00001c04 flags rw-
    LOAD off    0x00023b80 vaddr 0x00063b80 paddr 0x00063b80 align 2**12
         filesz 0x00000000 memsz 0x0000017c flags rw-

Sections:
Idx Name          Size      VMA       LMA       File off  Algn
  0 .entry        00000020  00040000  00040000  00001000  2**5
                  CONTENTS, ALLOC, LOAD, READONLY, CODE
  1 .exceptions   00000224  00040020  00040020  00001020  2**2
                  CONTENTS, ALLOC, LOAD, READONLY, CODE
  2 .text         0001f54c  00040244  00040244  00001244  2**2
                  CONTENTS, ALLOC, LOAD, READONLY, CODE
  3 .rodata       00000be8  0005f790  0005f790  00020790  2**2
                  CONTENTS, ALLOC, LOAD, READONLY, DATA
  4 .rwdata       00001c04  00060378  00061f7c  00021378  2**2
                  CONTENTS, ALLOC, LOAD, DATA, SMALL_DATA
  5 .bss          0000017c  00063b80  00063b80  00023b80  2**2
                  ALLOC, SMALL_DATA
  6 .onchip_memory2_0 00000000  00063cfc  00063cfc  00022f7c  2**0
                  CONTENTS
  7 .comment      00000023  00000000  00000000  00022f7c  2**0
                  CONTENTS, READONLY
  8 .debug_aranges 00001920  00000000  00000000  00022fa0  2**3
                  CONTENTS, READONLY, DEBUGGING
  9 .debug_info   00040f2a  00000000  00000000  000248c0  2**0
                  CONTENTS, READONLY, DEBUGGING
 10 .debug_abbrev 00010c04  00000000  00000000  000657ea  2**0
                  CONTENTS, READONLY, DEBUGGING
 11 .debug_line   00015f31  00000000  00000000  000763ee  2**0
                  CONTENTS, READONLY, DEBUGGING
 12 .debug_frame  00003e1c  00000000  00000000  0008c320  2**2
                  CONTENTS, READONLY, DEBUGGING
 13 .debug_str    00007aec  00000000  00000000  0009013c  2**0
                  CONTENTS, READONLY, DEBUGGING
 14 .debug_loc    0002bcc7  00000000  00000000  00097c28  2**0
                  CONTENTS, READONLY, DEBUGGING
 15 .debug_alt_sim_info 00000060  00000000  00000000  000c38f0  2**2
                  CONTENTS, READONLY, DEBUGGING
 16 .debug_ranges 00002b10  00000000  00000000  000c3950  2**3
                  CONTENTS, READONLY, DEBUGGING
 17 .thread_model 00000003  00000000  00000000  000cc1fe  2**0
                  CONTENTS, READONLY
 18 .cpu          0000000c  00000000  00000000  000cc201  2**0
                  CONTENTS, READONLY
 19 .qsys         00000001  00000000  00000000  000cc20d  2**0
                  CONTENTS, READONLY
 20 .simulation_enabled 00000001  00000000  00000000  000cc20e  2**0
                  CONTENTS, READONLY
 21 .stderr_dev   0000000b  00000000  00000000  000cc20f  2**0
                  CONTENTS, READONLY
 22 .stdin_dev    0000000b  00000000  00000000  000cc21a  2**0
                  CONTENTS, READONLY
 23 .stdout_dev   0000000b  00000000  00000000  000cc225  2**0
                  CONTENTS, READONLY
 24 .sopc_system_name 00000004  00000000  00000000  000cc230  2**0
                  CONTENTS, READONLY
 25 .quartus_project_dir 00000051  00000000  00000000  000cc234  2**0
                  CONTENTS, READONLY
 26 .jdi          00003d2a  00000000  00000000  000cc285  2**0
                  CONTENTS, READONLY
 27 .sopcinfo     0004527f  00000000  00000000  000cffaf  2**0
                  CONTENTS, READONLY
SYMBOL TABLE:
00040000 l    d  .entry	00000000 .entry
00040020 l    d  .exceptions	00000000 .exceptions
00040244 l    d  .text	00000000 .text
0005f790 l    d  .rodata	00000000 .rodata
00060378 l    d  .rwdata	00000000 .rwdata
00063b80 l    d  .bss	00000000 .bss
00063cfc l    d  .onchip_memory2_0	00000000 .onchip_memory2_0
00000000 l    d  .comment	00000000 .comment
00000000 l    d  .debug_aranges	00000000 .debug_aranges
00000000 l    d  .debug_info	00000000 .debug_info
00000000 l    d  .debug_abbrev	00000000 .debug_abbrev
00000000 l    d  .debug_line	00000000 .debug_line
00000000 l    d  .debug_frame	00000000 .debug_frame
00000000 l    d  .debug_str	00000000 .debug_str
00000000 l    d  .debug_loc	00000000 .debug_loc
00000000 l    d  .debug_alt_sim_info	00000000 .debug_alt_sim_info
00000000 l    d  .debug_ranges	00000000 .debug_ranges
00000000 l    df *ABS*	00000000 ../HC05_Master_bsp//obj/HAL/src/crt0.o
0004028c l       .text	00000000 alt_after_alt_main
00000000 l    df *ABS*	00000000 alt_irq_handler.c
00000000 l    df *ABS*	00000000 alt_instruction_exception_entry.c
00000000 l    df *ABS*	00000000 CHC05.cpp
00000000 l    df *ABS*	00000000 CUart.cpp
00000000 l    df *ABS*	00000000 main.cpp
00061f08 l     O .rwdata	00000004 _ZL7MaxList
00000000 l    df *ABS*	00000000 del_op.cc
00000000 l    df *ABS*	00000000 eh_personality.cc
0004198c l     F .text	000000a4 _ZL21size_of_encoded_valueh
00041a30 l     F .text	0000020c _ZL28read_encoded_value_with_basehjPKhPj
00041c3c l     F .text	00000054 _ZL15get_ttype_entryP16lsda_header_infom
00041c90 l     F .text	0000008c _ZL21base_of_encoded_valuehP15_Unwind_Context
00041d1c l     F .text	00000134 _ZL17parse_lsda_headerP15_Unwind_ContextPKhP16lsda_header_info
00041e50 l     F .text	00000088 _ZL16get_adjusted_ptrPKSt9type_infoS1_PPv.constprop.3
00041ed8 l     F .text	000001c0 _ZL28check_compact_exception_specPKSt9type_infoPvPKhij
00042098 l     F .text	000000a8 _ZL20check_exception_specP16lsda_header_infoPKSt9type_infoPvl
00000000 l    df *ABS*	00000000 eh_catch.cc
00000000 l    df *ABS*	00000000 eh_terminate.cc
00000000 l    df *ABS*	00000000 eh_globals.cc
00063b80 l     O .bss	00000008 _ZL10eh_globals
00000000 l    df *ABS*	00000000 eh_alloc.cc
00042c60 l     F .text	000000b8 _ZN12_GLOBAL__N_14pool4freeEPv.constprop.4
00063bc4 l     O .bss	00000010 _ZN12_GLOBAL__N_114emergency_poolE
00042d18 l     F .text	000000a8 _ZN12_GLOBAL__N_14pool8allocateEj.constprop.5
00042ec8 l     F .text	0000005c _GLOBAL__sub_I___cxa_allocate_exception
00000000 l    df *ABS*	00000000 class_type_info.cc
00000000 l    df *ABS*	00000000 eh_exception.cc
00000000 l    df *ABS*	00000000 eh_throw.cc
00043224 l     F .text	00000044 _ZL23__gxx_exception_cleanup19_Unwind_Reason_CodeP17_Unwind_Exception
00000000 l    df *ABS*	00000000 eh_call.cc
00000000 l    df *ABS*	00000000 si_class_type_info.cc
00000000 l    df *ABS*	00000000 tinfo.cc
00000000 l    df *ABS*	00000000 eh_term_handler.cc
00000000 l    df *ABS*	00000000 eh_unex_handler.cc
00000000 l    df *ABS*	00000000 pure.cc
00000000 l    df *ABS*	00000000 unwind-sjlj.c
00043734 l     F .text	00000118 _Unwind_ForcedUnwind_Phase2
00063b88 l     O .bss	00000004 fc_static
0004384c l     F .text	000000c0 _Unwind_RaiseException_Phase2
0004390c l     F .text	00000030 uw_install_context.isra.1
00000000 l    df *ABS*	00000000 abort.c
00000000 l    df *ABS*	00000000 malloc.c
00000000 l    df *ABS*	00000000 mallocr.c
00000000 l    df *ABS*	00000000 memset.c
00000000 l    df *ABS*	00000000 printf.c
00000000 l    df *ABS*	00000000 puts.c
00000000 l    df *ABS*	00000000 sbrkr.c
00000000 l    df *ABS*	00000000 scanf.c
00000000 l    df *ABS*	00000000 signal.c
00000000 l    df *ABS*	00000000 signalr.c
00000000 l    df *ABS*	00000000 sprintf.c
00000000 l    df *ABS*	00000000 sscanf.c
00000000 l    df *ABS*	00000000 stdio.c
00000000 l    df *ABS*	00000000 strcmp.c
00000000 l    df *ABS*	00000000 strcpy.c
00000000 l    df *ABS*	00000000 strlen.c
00000000 l    df *ABS*	00000000 vfprintf.c
0005fc1e l     O .rodata	00000010 zeroes.4389
0005fc2e l     O .rodata	00000010 blanks.4388
00000000 l    df *ABS*	00000000 vfscanf.c
0005fc46 l     O .rodata	00000022 basefix.4340
00000000 l    df *ABS*	00000000 vfprintf.c
0005fc68 l     O .rodata	00000010 zeroes.4404
0004ab6c l     F .text	000000bc __sbprintf
0005fc78 l     O .rodata	00000010 blanks.4403
00000000 l    df *ABS*	00000000 vfscanf.c
0005fc88 l     O .rodata	00000022 basefix.4359
00000000 l    df *ABS*	00000000 writer.c
00000000 l    df *ABS*	00000000 wsetup.c
00000000 l    df *ABS*	00000000 closer.c
00000000 l    df *ABS*	00000000 ctype_.c
0005fdab l     O .rodata	00000180 _ctype_b
00000000 l    df *ABS*	00000000 dtoa.c
0004c6bc l     F .text	00000200 quorem
00000000 l    df *ABS*	00000000 fflush.c
00000000 l    df *ABS*	00000000 findfp.c
0004e1ec l     F .text	00000008 __fp_unlock
0004e200 l     F .text	0000019c __sinit.part.1
0004e39c l     F .text	00000008 __fp_lock
00000000 l    df *ABS*	00000000 fread.c
00000000 l    df *ABS*	00000000 mallocr.c
00000000 l    df *ABS*	00000000 fvwrite.c
00000000 l    df *ABS*	00000000 fwalk.c
00000000 l    df *ABS*	00000000 impure.c
00060780 l     O .rwdata	00000424 impure_data
00000000 l    df *ABS*	00000000 int_errno.c
00000000 l    df *ABS*	00000000 iswspace.c
00000000 l    df *ABS*	00000000 locale.c
00060bc4 l     O .rwdata	00000020 lc_ctype_charset
00060ba4 l     O .rwdata	00000020 lc_message_charset
00060be4 l     O .rwdata	00000038 lconv
00000000 l    df *ABS*	00000000 lseekr.c
00000000 l    df *ABS*	00000000 makebuf.c
00000000 l    df *ABS*	00000000 mbrtowc.c
00000000 l    df *ABS*	00000000 mbtowc_r.c
00000000 l    df *ABS*	00000000 memchr.c
00000000 l    df *ABS*	00000000 memcpy.c
00000000 l    df *ABS*	00000000 memmove.c
00000000 l    df *ABS*	00000000 mprec.c
0005ff4c l     O .rodata	0000000c p05.2768
00000000 l    df *ABS*	00000000 readr.c
00000000 l    df *ABS*	00000000 mallocr.c
00000000 l    df *ABS*	00000000 refill.c
000510f8 l     F .text	0000001c lflush
00000000 l    df *ABS*	00000000 s_fpclassify.c
00000000 l    df *ABS*	00000000 sccl.c
00000000 l    df *ABS*	00000000 sf_nan.c
00000000 l    df *ABS*	00000000 strtod.c
00051434 l     F .text	00000064 sulp
00060094 l     O .rodata	00000014 fpi.2737
000600a8 l     O .rodata	00000028 tinytens
00060080 l     O .rodata	00000014 fpinan.2773
00000000 l    df *ABS*	00000000 strtol.c
00000000 l    df *ABS*	00000000 strtoll_r.c
00000000 l    df *ABS*	00000000 strtoul.c
00000000 l    df *ABS*	00000000 strtoull_r.c
00000000 l    df *ABS*	00000000 vfprintf.c
000600e0 l     O .rodata	00000010 blanks.4332
000600d0 l     O .rodata	00000010 zeroes.4333
00000000 l    df *ABS*	00000000 vfscanf.c
000600f0 l     O .rodata	00000022 basefix.3791
00000000 l    df *ABS*	00000000 ungetc.c
00000000 l    df *ABS*	00000000 vfprintf.c
00056074 l     F .text	000000fc __sprint_r.part.0
00060122 l     O .rodata	00000010 blanks.4348
00060112 l     O .rodata	00000010 zeroes.4349
00057600 l     F .text	000000bc __sbprintf
00000000 l    df *ABS*	00000000 mallocr.c
00000000 l    df *ABS*	00000000 fclose.c
00000000 l    df *ABS*	00000000 fputwc.c
00000000 l    df *ABS*	00000000 fstatr.c
00000000 l    df *ABS*	00000000 gdtoa-gethex.c
00057ae8 l     F .text	00000100 rshift
00000000 l    df *ABS*	00000000 gdtoa-hexnan.c
00000000 l    df *ABS*	00000000 isattyr.c
00000000 l    df *ABS*	00000000 strncmp.c
00000000 l    df *ABS*	00000000 wbuf.c
00000000 l    df *ABS*	00000000 wcrtomb.c
00000000 l    df *ABS*	00000000 wctomb_r.c
00000000 l    df *ABS*	00000000 libgcc2.c
00000000 l    df *ABS*	00000000 libgcc2.c
00000000 l    df *ABS*	00000000 libgcc2.c
00000000 l    df *ABS*	00000000 libgcc2.c
00000000 l    df *ABS*	00000000 lib2-divmod.c
00000000 l    df *ABS*	00000000 eqsf2.c
00000000 l    df *ABS*	00000000 gesf2.c
00000000 l    df *ABS*	00000000 lesf2.c
00000000 l    df *ABS*	00000000 adddf3.c
00000000 l    df *ABS*	00000000 divdf3.c
00000000 l    df *ABS*	00000000 eqdf2.c
00000000 l    df *ABS*	00000000 gedf2.c
00000000 l    df *ABS*	00000000 ledf2.c
00000000 l    df *ABS*	00000000 muldf3.c
00000000 l    df *ABS*	00000000 subdf3.c
00000000 l    df *ABS*	00000000 fixdfsi.c
00000000 l    df *ABS*	00000000 floatsidf.c
00000000 l    df *ABS*	00000000 floatunsidf.c
00000000 l    df *ABS*	00000000 truncdfsf2.c
00000000 l    df *ABS*	00000000 libgcc2.c
00000000 l    df *ABS*	00000000 libgcc2.c
00000000 l    df *ABS*	00000000 alt_close.c
0005c21c l     F .text	0000003c alt_get_errno
00000000 l    df *ABS*	00000000 alt_dev.c
0005c328 l     F .text	0000002c alt_dev_null_write
00000000 l    df *ABS*	00000000 alt_errno.c
00000000 l    df *ABS*	00000000 alt_exit.c
00000000 l    df *ABS*	00000000 alt_fcntl.c
0005c388 l     F .text	0000003c alt_get_errno
00000000 l    df *ABS*	00000000 alt_fstat.c
0005c4e4 l     F .text	0000003c alt_get_errno
00000000 l    df *ABS*	00000000 alt_getpid.c
00000000 l    df *ABS*	00000000 alt_isatty.c
0005c5f0 l     F .text	0000003c alt_get_errno
00000000 l    df *ABS*	00000000 alt_kill.c
0005c6d0 l     F .text	0000003c alt_get_errno
00000000 l    df *ABS*	00000000 alt_load.c
0005c83c l     F .text	00000068 alt_load_section
00000000 l    df *ABS*	00000000 alt_lseek.c
0005c928 l     F .text	0000003c alt_get_errno
00000000 l    df *ABS*	00000000 alt_main.c
00000000 l    df *ABS*	00000000 alt_malloc_lock.c
00000000 l    df *ABS*	00000000 alt_open.c
0005cafc l     F .text	0000003c alt_get_errno
0005cb38 l     F .text	000000c4 alt_file_locked
00000000 l    df *ABS*	00000000 alt_read.c
0005cd50 l     F .text	0000003c alt_get_errno
00000000 l    df *ABS*	00000000 alt_release_fd.c
00000000 l    df *ABS*	00000000 alt_sbrk.c
00061f6c l     O .rwdata	00000004 heap_end
00000000 l    df *ABS*	00000000 alt_tick.c
00000000 l    df *ABS*	00000000 alt_usleep.c
00000000 l    df *ABS*	00000000 alt_write.c
0005d170 l     F .text	0000003c alt_get_errno
00000000 l    df *ABS*	00000000 alt_sys_init.c
0005d2a4 l     F .text	00000034 alt_dev_reg
00060dc4 l     O .rwdata	00001060 jtag_uart_0
00061e24 l     O .rwdata	000000c4 hc_05_uart
00000000 l    df *ABS*	00000000 altera_avalon_jtag_uart_fd.c
00000000 l    df *ABS*	00000000 altera_avalon_jtag_uart_init.c
0005d5b4 l     F .text	0000020c altera_avalon_jtag_uart_irq
0005d7c0 l     F .text	000000a0 altera_avalon_jtag_uart_timeout
00000000 l    df *ABS*	00000000 altera_avalon_jtag_uart_ioctl.c
00000000 l    df *ABS*	00000000 altera_avalon_jtag_uart_read.c
00000000 l    df *ABS*	00000000 altera_avalon_jtag_uart_write.c
00000000 l    df *ABS*	00000000 altera_avalon_timer_sc.c
0005ddf8 l     F .text	00000078 alt_avalon_timer_sc_irq
00000000 l    df *ABS*	00000000 altera_avalon_uart_fd.c
00000000 l    df *ABS*	00000000 altera_avalon_uart_init.c
0005e0a8 l     F .text	0000009c altera_avalon_uart_irq
0005e144 l     F .text	000000e4 altera_avalon_uart_rxirq
0005e228 l     F .text	00000148 altera_avalon_uart_txirq
00000000 l    df *ABS*	00000000 altera_avalon_uart_read.c
0005e3c4 l     F .text	0000003c alt_get_errno
00000000 l    df *ABS*	00000000 altera_avalon_uart_write.c
0005e5dc l     F .text	0000003c alt_get_errno
00000000 l    df *ABS*	00000000 alt_alarm_start.c
00000000 l    df *ABS*	00000000 alt_busy_sleep.c
00000000 l    df *ABS*	00000000 alt_dcache_flush_all.c
00000000 l    df *ABS*	00000000 alt_dev_llist_insert.c
0005ea90 l     F .text	0000003c alt_get_errno
00000000 l    df *ABS*	00000000 alt_do_ctors.c
00000000 l    df *ABS*	00000000 alt_do_dtors.c
00000000 l    df *ABS*	00000000 alt_find_dev.c
00000000 l    df *ABS*	00000000 alt_find_file.c
00000000 l    df *ABS*	00000000 alt_get_fd.c
00000000 l    df *ABS*	00000000 alt_icache_flush_all.c
00000000 l    df *ABS*	00000000 alt_iic.c
00000000 l    df *ABS*	00000000 alt_iic_isr_register.c
00000000 l    df *ABS*	00000000 alt_io_redirect.c
0005f140 l     F .text	000000c4 alt_open_fd
00000000 l    df *ABS*	00000000 alt_irq_vars.c
00000000 l    df *ABS*	00000000 altera_nios2_gen2_irq.c
00000000 l    df *ABS*	00000000 alt_icache_flush.c
00000000 l    df *ABS*	00000000 atexit.c
00000000 l    df *ABS*	00000000 exit.c
00000000 l    df *ABS*	00000000 memcmp.c
00000000 l    df *ABS*	00000000 __atexit.c
00000000 l    df *ABS*	00000000 __call_atexit.c
00063bc0 g     O .bss	00000004 alt_instruction_exception_handler
00042e20 g     F .text	00000028 __cxa_free_exception
0004369c g     F .text	00000008 _ZNKSt9type_info15__is_function_pEv
000509bc g     F .text	00000074 _mprec_log10
00042be8 g     F .text	00000018 _ZSt10unexpectedv
00050aa8 g     F .text	0000008c __any_on
00058674 g     F .text	00000054 _isatty_r
0005ff58 g     O .rodata	00000028 __mprec_tinytens
0005ca38 g     F .text	0000007c alt_main
00044e9c g     F .text	00000090 strcpy
00044634 g     F .text	000000c0 _puts_r
00063bfc g     O .bss	00000100 alt_irq
00043214 g     F .text	00000004 _ZN10__cxxabiv115__forced_unwindD1Ev
0004f370 g     F .text	00000060 _lseek_r
000439c8 g     F .text	00000020 .hidden _Unwind_GetIPInfo
00061f7c g       *ABS*	00000000 __flash_rwdata_start
00040c88  w    F .text	00000048 _ZN5CUartC1ERKS_
0005aba0 g     F .text	00000088 .hidden __eqdf2
000432f8 g     F .text	00000084 __cxa_rethrow
00043954 g     F .text	00000014 .hidden _Unwind_SjLj_Unregister
00042c24 g     F .text	00000014 _ZSt14set_unexpectedPFvvE
000439b8 g     F .text	00000010 .hidden _Unwind_GetIP
00063cfc g       *ABS*	00000000 __alt_heap_start
00044a6c g     F .text	0000005c _kill_r
000445f8 g     F .text	0000003c printf
000588f0 g     F .text	0000009c _wcrtomb_r
00044834 g     F .text	00000084 _signal_r
00044d5c g     F .text	0000005c __sseek
0004e53c g     F .text	00000010 __sinit
00058798 g     F .text	00000140 __swbuf_r
00042e9c g     F .text	0000002c __cxa_free_dependent_exception
000433d4 g     F .text	00000010 _ZN10__cxxabiv120__si_class_type_infoD2Ev
0004f294 g     F .text	0000007c _setlocale_r
0005fb0c  w    O .rodata	00000025 _ZTSN10__cxxabiv120__si_class_type_infoE
0004e3a4 g     F .text	00000068 __sfmoreglue
0005605c g     F .text	00000018 ungetc
00041120 g     F .text	00000050 _Z11query_usersv
0005cad8 g     F .text	00000024 __malloc_unlock
00043214 g     F .text	00000004 _ZN10__cxxabiv115__forced_unwindD2Ev
00051498 g     F .text	000015f8 _strtod_r
00042ae0 g     F .text	00000020 _ZSt18uncaught_exceptionv
00043714 g     F .text	00000020 __cxa_deleted_virtual
00054c0c g     F .text	000000f4 _sfread_r
0004f9dc g     F .text	0000015c memmove
000431ec g     F .text	00000004 _ZNSt9exceptionD2Ev
0004e524 g     F .text	00000018 _cleanup
0004fb38 g     F .text	000000a8 _Balloc
00040d0c g     F .text	00000048 _ZN5CUartD2Ev
00040d8c g     F .text	00000048 _ZN5CUart4OpenEPc
0005ac28 g     F .text	000000dc .hidden __gtdf2
0005fad0  w    O .rodata	00000014 _ZTVSt13bad_exception
0005f280 g     F .text	00000024 altera_nios2_gen2_irq_init
00040000 g     F .entry	0000001c __reset
00043a04 g     F .text	00000008 .hidden _Unwind_GetRegionStart
00040020 g       *ABS*	00000000 __flash_exceptions_start
00057a8c g     F .text	0000005c _fstat_r
00063b98 g     O .bss	00000004 errno
0004c44c g     F .text	0000001c __svfscanf
00044cd8 g     F .text	00000008 __seofread
00053858 g     F .text	0000123c ___svfiprintf_internal_r
000410e8 g     F .text	00000038 _Z9SetConfigb
00043be0 g     F .text	00000074 .hidden _Unwind_Backtrace
00063bac g     O .bss	00000004 alt_argv
00069ee8 g       *ABS*	00000000 _gp
0005d140 g     F .text	00000030 usleep
0005c5d0 g     F .text	00000020 getpid
00042740 g     F .text	00000230 __cxa_call_unexpected
00042970 g     F .text	00000008 __cxa_get_exception_ptr
00060c44 g     O .rwdata	00000180 alt_fd_list
00043af4 g     F .text	00000044 .hidden _Unwind_SjLj_ForcedUnwind
00043984 g     F .text	00000018 .hidden _Unwind_GetCFA
00042c00 g     F .text	00000014 _ZSt13set_terminatePFvvE
0005ec30 g     F .text	00000090 alt_find_dev
0004f894 g     F .text	00000148 memcpy
00058418 g     F .text	0000025c __hexnan
00042e48 g     F .text	00000054 __cxa_allocate_dependent_exception
0004e1f4 g     F .text	0000000c _cleanup_r
00042f9c g     F .text	00000018 _ZNK10__cxxabiv117__class_type_info20__do_find_public_srcEiPKvPKS0_S2_
0005be8c g     F .text	000000dc .hidden __floatsidf
0005f204 g     F .text	0000007c alt_io_redirect
0005ad04 g     F .text	000000f4 .hidden __ltdf2
00040350 g     F .text	00000198 _ZN5CHC0511CommandReadER5CUartPciPi
0005f790 g       *ABS*	00000000 __DTOR_END__
00042fb4 g     F .text	00000010 _ZN10__cxxabiv117__class_type_infoD1Ev
000446f4 g     F .text	00000014 puts
0005f334 g     F .text	0000009c alt_exception_cause_generated_bad_addr
0004f638 g     F .text	000000d8 mbrtowc
000512e8 g     F .text	00000074 __fpclassifyd
0004c468 g     F .text	0000004c _vfscanf_r
00050918 g     F .text	000000a4 __ratio
000575e4 g     F .text	0000001c __vfiprintf_internal
0005d9b8 g     F .text	0000021c altera_avalon_jtag_uart_read
00043c6c g     F .text	00000014 malloc
000445c8 g     F .text	00000030 _printf_r
00040000 g       *ABS*	00000000 __alt_mem_onchip_memory2_0
00059754 g     F .text	00000064 .hidden __udivsi3
0005c62c g     F .text	000000a4 isatty
000448b8 g     F .text	000000bc _raise_r
0004f264 g     F .text	00000030 iswspace
0005ffa8 g     O .rodata	000000c8 __mprec_tens
0004f310 g     F .text	0000000c __locale_charset
00059944 g     F .text	000000c8 .hidden __lesf2
00058b38 g     F .text	00000074 .hidden __fixunsdfsi
0005f2a4 g     F .text	00000090 alt_icache_flush
00063b94 g     O .bss	00000004 __malloc_top_pad
000405e0 g     F .text	00000048 _ZN5CHC0511MessageSendE5CUartPc
00054b9c g     F .text	00000070 __ssrefill_r
00044ac8 g     F .text	00000004 _getpid_r
0005334c g     F .text	0000001c strtoul
00061f48 g     O .rwdata	00000004 __mb_cur_max
0004f340 g     F .text	0000000c _localeconv_r
00053368 g     F .text	00000320 _strtoull_r
0004ff44 g     F .text	0000003c __i2b
0004ec20 g     F .text	000004bc __sfvwrite_r
00043134 g     F .text	000000b8 _ZNK10__cxxabiv117__class_type_info10__do_catchEPKSt9type_infoPPvj
00044974 g     F .text	000000a8 __sigtramp_r
00044708 g     F .text	00000054 _sbrk_r
0005fb7c  w    O .rodata	00000020 _ZTVSt9type_info
00050b34 g     F .text	00000060 _read_r
000431f4 g     F .text	0000000c _ZNKSt9exception4whatEv
00040ea0 g     F .text	0000007c _ZN5CUart5WriteEPci
00061f64 g     O .rwdata	00000004 alt_max_fd
00057780 g     F .text	000000f0 _fclose_r
0004e1bc g     F .text	00000030 fflush
00040cd0 g     F .text	0000003c _ZN5CUartC1Ev
00063b90 g     O .bss	00000004 __malloc_max_sbrked_mem
00040fe0 g     F .text	00000108 _ZN5CUart15ReadWithTimeoutEPhtPtm
0004719c g     F .text	000017bc __ssvfscanf_r
00059a0c g     F .text	000008ac .hidden __adddf3
00059810 g     F .text	00000078 .hidden __nesf2
0005fb40  w    O .rodata	0000002c _ZTVN10__cxxabiv120__si_class_type_infoE
00061ef0  w    O .rwdata	00000007 _ZTS5CHC05
000506c0 g     F .text	0000010c __b2d
00059124 g     F .text	00000538 .hidden __umoddi3
0005c964 g     F .text	000000d4 lseek
00042ff8 g     F .text	0000006c _ZNK10__cxxabiv117__class_type_info11__do_upcastEPKS0_PKvRNS0_15__upcast_resultE
00040318 g     F .text	00000038 _ZN5CHC05D0Ev
00041988 g     F .text	00000004 _ZdlPv
00061f40 g     O .rwdata	00000004 _global_impure_ptr
00050b94 g     F .text	00000564 _realloc_r
00063cfc g       *ABS*	00000000 __bss_end
0005f050 g     F .text	000000f0 alt_iic_isr_register
0005d038 g     F .text	00000108 alt_tick
0004393c g     F .text	00000018 .hidden _Unwind_SjLj_Register
00060132 g     O .rodata	00000100 __hexdig
00058bac g     F .text	00000578 .hidden __udivdi3
000579e8 g     F .text	00000024 _fputwc_r
0005ff80 g     O .rodata	00000028 __mprec_bigtens
0004fd28 g     F .text	00000104 __s2b
00043c54 g     F .text	00000018 abort
0005bf68 g     F .text	000000a8 .hidden __floatunsidf
00050400 g     F .text	00000060 __mcmp
0005dffc g     F .text	000000ac altera_avalon_uart_init
00042a2c g     F .text	000000b4 __cxa_end_catch
0004e55c g     F .text	00000018 __fp_lock_all
0005f004 g     F .text	0000004c alt_ic_irq_enabled
000431f0 g     F .text	00000004 _ZNSt13bad_exceptionD2Ev
0005cf9c g     F .text	0000009c alt_alarm_stop
00052de0 g     F .text	0000001c strtol
00040d54 g     F .text	00000038 _ZN5CUartD0Ev
00063bbc g     O .bss	00000004 alt_irq_active
00042bc0 g     F .text	00000018 _ZSt9terminatev
000400fc g     F .exceptions	000000d4 alt_irq_handler
00060c1c g     O .rwdata	00000028 alt_dev_null
000402d0 g     F .text	00000048 _ZN5CHC05D1Ev
0004321c g     F .text	00000004 _ZN10__cxxabiv119__foreign_exceptionD2Ev
0005f9c8  w    O .rodata	00000022 _ZTSN10__cxxabiv117__class_type_infoE
0005ea48 g     F .text	00000048 alt_dcache_flush_all
0004fe2c g     F .text	00000068 __hi0bits
00061f0c  w    O .rwdata	00000008 _ZTISt9exception
00040628 g     F .text	00000184 _ZN5CHC0516SetInquireDeviceE5CUartiii
0005be0c g     F .text	00000080 .hidden __fixdfsi
00052a90 g     F .text	00000018 strtod
00061f7c g       *ABS*	00000000 __ram_rwdata_end
00043698 g     F .text	00000004 _ZNSt9type_infoD1Ev
00061f5c g     O .rwdata	00000008 alt_dev_list
0004321c g     F .text	00000004 _ZN10__cxxabiv119__foreign_exceptionD1Ev
0005d1ac g     F .text	000000f8 write
000436ac g     F .text	00000004 _ZNSt9type_infoD0Ev
00059888 g     F .text	000000bc .hidden __gtsf2
00060378 g       *ABS*	00000000 __ram_rodata_end
0005c520 g     F .text	000000b0 fstat
0005c70c g     F .text	00000130 kill
0005ad04 g     F .text	000000f4 .hidden __ledf2
00050178 g     F .text	00000140 __pow5mult
00056188 g     F .text	0000145c ___vfiprintf_internal_r
00063ba4 g     O .bss	00000004 __nlocale_changed
000597b8 g     F .text	00000058 .hidden __umodsi3
000436a4 g     F .text	00000008 _ZNKSt9type_info11__do_upcastEPKN10__cxxabiv117__class_type_infoEPPv
00044798 g     F .text	00000030 _scanf_r
00042c14 g     F .text	00000010 _ZSt13get_terminatev
00063cfc g       *ABS*	00000000 end
0005e618 g     F .text	000001ac altera_avalon_uart_write
00043bc8 g     F .text	00000018 .hidden _Unwind_DeleteException
0005d4f4 g     F .text	000000c0 altera_avalon_jtag_uart_init
000401d0 g     F .exceptions	00000074 alt_instruction_exception_entry
00043064 g     F .text	000000d0 _ZNK10__cxxabiv117__class_type_info12__do_dyncastEiNS0_10__sub_kindEPKS0_PKvS3_S5_RNS0_16__dyncast_resultE
0005f789 g       *ABS*	00000000 __CTOR_LIST__
00067100 g       *ABS*	00000000 __alt_stack_pointer
0005de70 g     F .text	0000007c alt_avalon_timer_sc_init
0005df4c g     F .text	00000060 altera_avalon_uart_write_fd
0005c1b8 g     F .text	00000064 .hidden __clzsi2
0005dfac g     F .text	00000050 altera_avalon_uart_close_fd
00042f24 g     F .text	00000078 _ZNK10__cxxabiv117__class_type_info11__do_upcastEPKS0_PPv
0005dbd4 g     F .text	00000224 altera_avalon_jtag_uart_write
0004e54c g     F .text	00000004 __sfp_lock_acquire
0005fa58  w    O .rodata	00000012 _ZTSSt13bad_exception
0004f7b0 g     F .text	000000e4 memchr
00048958 g     F .text	000021f8 ___vfprintf_internal_r
00040cd0 g     F .text	0000003c _ZN5CUartC2Ev
00044acc g     F .text	00000058 _sprintf_r
0004e910 g     F .text	00000310 _free_r
00061ee8  w    O .rwdata	00000008 _ZTI5CHC05
0004f31c g     F .text	00000010 __locale_mb_cur_max
0005f5b0 g     F .text	00000180 __call_exitprocs
00054a94 g     F .text	00000108 _sungetc_r
00063ba0 g     O .bss	00000004 __mlocale_changed
00061f34 g     O .rwdata	00000004 __malloc_sbrk_base
00040244 g     F .text	0000004c _start
00063bb4 g     O .bss	00000004 _alt_tick_rate
00052dfc g     F .text	00000304 _strtoll_r
0005fb6c  w    O .rodata	0000000d _ZTSSt9type_info
0005f80c  w    O .rodata	00000010 _ZTV5CHC05
000436f4 g     F .text	00000020 __cxa_pure_virtual
000502b8 g     F .text	00000148 __lshift
00063bb8 g     O .bss	00000004 _alt_nticks
00044a30 g     F .text	00000018 signal
0005cd8c g     F .text	000000fc read
0005d310 g     F .text	00000080 alt_sys_init
00053688 g     F .text	000001d0 __ssprint_r
0005f498 g     F .text	00000118 __register_exitproc
000586c8 g     F .text	000000d0 strncmp
00043418 g     F .text	00000160 _ZNK10__cxxabiv120__si_class_type_info12__do_dyncastEiNS_17__class_type_info10__sub_kindEPKS1_PKvS4_S6_RNS1_16__dyncast_resultE
0004ff80 g     F .text	000001f8 __multiply
0005d860 g     F .text	00000068 altera_avalon_jtag_uart_close
00060378 g       *ABS*	00000000 __ram_rwdata_start
00043a24 g     F .text	000000d0 .hidden _Unwind_SjLj_RaiseException
0005f790 g       *ABS*	00000000 __ram_rodata_start
00063bd4 g     O .bss	00000028 __malloc_current_mallinfo
00043b38 g     F .text	00000044 .hidden _Unwind_SjLj_Resume
00059810 g     F .text	00000078 .hidden __eqsf2
000507cc g     F .text	0000014c __d2b
0005faf8  w    O .rodata	00000014 _ZTVN10__cxxabiv119__foreign_exceptionE
00043698 g     F .text	00000004 _ZNSt9type_infoD2Ev
00043220 g     F .text	00000004 _ZN10__cxxabiv119__foreign_exceptionD0Ev
00043614 g     F .text	00000084 _ZNK10__cxxabiv120__si_class_type_info11__do_upcastEPKNS_17__class_type_infoEPKvRNS1_15__upcast_resultE
0005d390 g     F .text	00000060 altera_avalon_jtag_uart_read_fd
00053100 g     F .text	0000024c _strtoul_r
0005edc8 g     F .text	000000a4 alt_get_fd
0005e8f0 g     F .text	00000158 alt_busy_sleep
00061f1c  w    O .rwdata	00000008 _ZTIN10__cxxabiv119__foreign_exceptionE
0004c668 g     F .text	00000054 _close_r
00061f00  w    O .rwdata	00000007 _ZTS5CUart
0005f41c g     F .text	0000007c memcmp
0005d450 g     F .text	00000050 altera_avalon_jtag_uart_close_fd
00063cfc g       *ABS*	00000000 __alt_stack_base
0005d4a0 g     F .text	00000054 altera_avalon_jtag_uart_ioctl_fd
000433d4 g     F .text	00000010 _ZN10__cxxabiv120__si_class_type_infoD1Ev
00044b90 g     F .text	0000007c sscanf
0004c514 g     F .text	00000154 __swsetup_r
00043b7c g     F .text	0000004c .hidden _Unwind_SjLj_Resume_or_Rethrow
0005a2b8 g     F .text	000008e8 .hidden __divdf3
0004e40c g     F .text	00000118 __sfp
00050a30 g     F .text	00000078 __copybits
0004369c g     F .text	00000008 _ZNKSt9type_info14__is_pointer_pEv
00060378 g     O .rwdata	00000408 __malloc_av_
0004e558 g     F .text	00000004 __sinit_lock_release
0005adf8 g     F .text	00000718 .hidden __muldf3
00044c84 g     F .text	00000054 __sread
0004e7b8 g     F .text	00000034 fread
0005fabc  w    O .rodata	00000014 _ZTVSt9exception
00043218 g     F .text	00000004 _ZN10__cxxabiv115__forced_unwindD0Ev
0005ecc0 g     F .text	00000108 alt_find_file
0005eacc g     F .text	000000a4 alt_dev_llist_insert
0005cab4 g     F .text	00000024 __malloc_lock
0005ceec g     F .text	000000b0 sbrk
00044fc4 g     F .text	000021d8 ___svfprintf_internal_r
0005f9f8  w    O .rodata	0000002c _ZTVN10__cxxabiv117__class_type_infoE
00043268 g     F .text	00000090 __cxa_throw
0004e160 g     F .text	0000005c _fflush_r
000439e8 g     F .text	00000010 .hidden _Unwind_SetIP
000576bc g     F .text	000000c4 _calloc_r
00063b80 g       *ABS*	00000000 __bss_start
000444a0 g     F .text	00000128 memset
000407ac g     F .text	000000f8 _ZN5CHC0511GetNameListE5CUartPc
00041170 g     F .text	00000818 main
00063bb0 g     O .bss	00000004 alt_envp
00063b8c g     O .bss	00000004 __malloc_max_total_mem
0005d3f0 g     F .text	00000060 altera_avalon_jtag_uart_write_fd
000588d8 g     F .text	00000018 __swbuf
00042c48 g     F .text	0000000c __cxa_get_globals_fast
00059944 g     F .text	000000c8 .hidden __ltsf2
0004e58c g     F .text	0000022c _fread_r
00040290 g     F .text	00000040 _ZN5CHC05C2Ev
00044db8 g     F .text	00000008 __sclose
00067100 g       *ABS*	00000000 __alt_heap_limit
00057870 g     F .text	00000014 fclose
00052ba8 g     F .text	00000238 _strtol_r
0005c010 g     F .text	000001a8 .hidden __truncdfsf2
0004c8bc g     F .text	00001688 _dtoa_r
00043c94 g     F .text	0000080c _malloc_r
00058a4c g     F .text	00000030 __ascii_wctomb
00043200 g     F .text	0000000c _ZNKSt13bad_exception4whatEv
00061f68 g     O .rwdata	00000004 alt_errno
00055df4 g     F .text	000000d4 __submore
00044a48 g     F .text	00000010 _init_signal
0005f9ec  w    O .rodata	0000000c _ZTIN10__cxxabiv117__class_type_infoE
0004f0dc g     F .text	000000c4 _fwalk
0004f754 g     F .text	0000005c _mbtowc_r
000431f0 g     F .text	00000004 _ZNSt13bad_exceptionD1Ev
0005965c g     F .text	00000084 .hidden __divsi3
0004e7ec g     F .text	00000124 _malloc_trim_r
0005f790 g       *ABS*	00000000 __CTOR_END__
00044dc0 g     F .text	000000dc strcmp
00040f60 g     F .text	00000080 _ZN5CUart16NoneBlockingReadEPciPi
0005f790 g       *ABS*	00000000 __flash_rodata_start
0005fae4  w    O .rodata	00000014 _ZTVN10__cxxabiv115__forced_unwindE
0005f790 g       *ABS*	00000000 __DTOR_LIST__
0005aba0 g     F .text	00000088 .hidden __nedf2
0005d2d8 g     F .text	00000038 alt_irq_init
0005ce88 g     F .text	00000064 alt_release_fd
000433e4 g     F .text	00000034 _ZN10__cxxabiv120__si_class_type_infoD0Ev
00040d0c g     F .text	00000048 _ZN5CUartD1Ev
00044b24 g     F .text	0000006c sprintf
00060232 g     O .rodata	00000100 .hidden __clz_tab
00063b9c g     O .bss	00000004 _PathLocale
00040dd4 g     F .text	00000048 _ZN5CUart5CloseEv
00052aa8 g     F .text	00000100 strtof
0005f3d0 g     F .text	00000014 atexit
00059888 g     F .text	000000bc .hidden __gesf2
0004c4b4 g     F .text	00000060 _write_r
0004f34c g     F .text	00000018 setlocale
0004475c g     F .text	0000003c scanf
00043a1c g     F .text	00000008 .hidden _Unwind_GetTextRelBase
0004337c g     F .text	00000058 __cxa_call_terminate
00040c88  w    F .text	00000048 _ZN5CUartC2ERKS_
0005142c g     F .text	00000008 nanf
00061f44 g     O .rwdata	00000004 _impure_ptr
00061f14  w    O .rwdata	00000008 _ZTIN10__cxxabiv115__forced_unwindE
00063ba8 g     O .bss	00000004 alt_argc
0004df44 g     F .text	0000021c __sflush_r
0004f58c g     F .text	000000ac _mbrtowc_r
0005ebd0 g     F .text	00000060 _do_dtors
0004f338 g     F .text	00000008 __locale_cjk_lang
00061ef8  w    O .rwdata	00000008 _ZTI5CUart
00051114 g     F .text	000001d4 __srefill_r
00042c38 g     F .text	00000010 _ZSt14get_unexpectedv
00040020 g       .exceptions	00000000 alt_irq_entry
0004f710 g     F .text	00000044 __ascii_mbtowc
0005065c g     F .text	00000064 __ulp
00043a0c g     F .text	00000008 .hidden _Unwind_FindEnclosingFunction
0004e574 g     F .text	00000018 __fp_unlock_all
00061f54 g     O .rwdata	00000008 alt_fs_list
0005fa98  w    O .rodata	00000024 _ZTSN10__cxxabiv119__foreign_exceptionE
000439f8 g     F .text	0000000c .hidden _Unwind_GetLanguageSpecificData
00042978 g     F .text	000000b4 __cxa_begin_catch
00042fb4 g     F .text	00000010 _ZN10__cxxabiv117__class_type_infoD2Ev
00042bd8 g     F .text	00000010 _ZN10__cxxabiv112__unexpectedEPFvvE
00054d00 g     F .text	000010f4 __ssvfiscanf_r
00040020 g       *ABS*	00000000 __ram_exceptions_start
0004f364 g     F .text	0000000c localeconv
00043210 g     F .text	00000004 _ZNSt13bad_exceptionD0Ev
00061f2c g     O .rwdata	00000004 _ZN10__cxxabiv119__terminate_handlerE
00040f1c g     F .text	00000044 _ZN5CUart11WriteStringEPc
0005eea0 g     F .text	00000050 alt_ic_isr_register
00042dc0 g     F .text	00000060 __cxa_allocate_exception
00044c0c g     F .text	00000078 _sscanf_r
0005fb34  w    O .rodata	0000000c _ZTIN10__cxxabiv120__si_class_type_infoE
00061f7c g       *ABS*	00000000 _edata
0005deec g     F .text	00000060 altera_avalon_uart_read_fd
00063cfc g       *ABS*	00000000 _end
00042140 g     F .text	00000600 __gxx_personality_sj0
00057884 g     F .text	00000164 __fputwc
00040244 g       *ABS*	00000000 __ram_exceptions_end
0004c3e4 g     F .text	00000068 vfscanf
0005d8c8 g     F .text	000000f0 altera_avalon_jtag_uart_ioctl
00040e1c g     F .text	00000084 _ZN5CUart4ReadEPciPi
000431ec g     F .text	00000004 _ZNSt9exceptionD1Ev
0005ef78 g     F .text	0000008c alt_ic_irq_disable
00044ce0 g     F .text	0000007c __swrite
00061f38 g     O .rwdata	00000004 __malloc_trim_threshold
0004f32c g     F .text	0000000c __locale_msgcharset
0005f3e4 g     F .text	00000038 exit
0004399c g     F .text	0000001c .hidden _Unwind_SetGR
0004f1a0 g     F .text	000000c4 _fwalk_reent
00043578 g     F .text	0000009c _ZNK10__cxxabiv120__si_class_type_info20__do_find_public_srcEiPKvPKNS_17__class_type_infoES2_
00050460 g     F .text	000001fc __mdiff
00042b00 g     F .text	000000c0 _ZN10__cxxabiv111__terminateEPFvvE
000596e0 g     F .text	00000074 .hidden __modsi3
00061f3c g     O .rwdata	00000004 __ctype_ptr__
000404e8 g     F .text	000000f8 _ZN5CHC059SetupSendE5CUartPc
00067100 g       *ABS*	00000000 __alt_data_end
00040020 g     F .exceptions	00000000 alt_exception
0004e550 g     F .text	00000004 __sfp_lock_release
0005fa6c  w    O .rodata	0000000c _ZTISt13bad_exception
000408a4 g     F .text	000003e4 _ZN5CHC0510DeviceListE5CUartPcPS1_
0005135c g     F .text	000000d0 __sccl
0005fcaa g     O .rodata	00000101 _ctype_
00061f4c g     O .rwdata	00000004 __mbtowc
0005e370 g     F .text	00000054 altera_avalon_uart_close
0005c354 g     F .text	00000034 _exit
0005e7c4 g     F .text	0000012c alt_alarm_start
00058ad8 g     F .text	00000060 .hidden __muldi3
00043968 g     F .text	0000001c .hidden _Unwind_GetGR
00042c54 g     F .text	0000000c __cxa_get_globals
0004f3d0 g     F .text	000001bc __smakebuf_r
00061f30 g     O .rwdata	00000004 _ZN10__cxxabiv120__unexpected_handlerE
00044f2c g     F .text	00000098 strlen
000447c8 g     F .text	0000006c _init_signal_r
00061f24  w    O .rwdata	00000008 _ZTISt9type_info
0005cbfc g     F .text	00000154 open
0005ac28 g     F .text	000000dc .hidden __gedf2
0005fa48  w    O .rodata	0000000d _ZTSSt9exception
00057be8 g     F .text	00000830 __gethex
00061f50 g     O .rwdata	00000004 __wctomb
0004320c g     F .text	00000004 _ZNSt9exceptionD0Ev
00056170 g     F .text	00000018 __sprint_r
0005ee6c g     F .text	00000034 alt_icache_flush_all
0005f81c  w    O .rodata	00000010 _ZTV5CUart
00043a14 g     F .text	00000008 .hidden _Unwind_GetDataRelBase
00061f78 g     O .rwdata	00000004 alt_priority_mask
000402d0 g     F .text	00000048 _ZN5CHC05D2Ev
0005eef0 g     F .text	00000088 alt_ic_irq_enable
0004ab50 g     F .text	0000001c __vfprintf_internal
0005e400 g     F .text	000001dc altera_avalon_uart_read
00058a7c g     F .text	0000005c _wctomb_r
00040290 g     F .text	00000040 _ZN5CHC05C1Ev
0005b510 g     F .text	000008fc .hidden __subdf3
0005c3c4 g     F .text	00000120 fcntl
0004fe94 g     F .text	000000b0 __lo0bits
0004ac28 g     F .text	000017bc __svfscanf_r
00061f70 g     O .rwdata	00000008 alt_alarm_list
00055ec8 g     F .text	00000194 _ungetc_r
0005eb70 g     F .text	00000060 _do_ctors
00044a58 g     F .text	00000014 __sigtramp
0005898c g     F .text	000000c0 wcrtomb
0005c258 g     F .text	000000d0 close
0005fa78  w    O .rodata	00000020 _ZTSN10__cxxabiv115__forced_unwindE
0005c8a4 g     F .text	00000084 alt_load
000436b0 g     F .text	00000044 _ZNKSt9type_info10__do_catchEPKS_PPvj
00057a0c g     F .text	00000080 fputwc
00044a1c g     F .text	00000014 raise
00043c80 g     F .text	00000014 free
0004e554 g     F .text	00000004 __sinit_lock_acquire
0004fc08 g     F .text	00000120 __multadd
00042fc4 g     F .text	00000034 _ZN10__cxxabiv117__class_type_infoD0Ev
0004fbe0 g     F .text	00000028 _Bfree



Disassembly of section .entry:

00040000 <__reset>:
#if NIOS2_ICACHE_SIZE > 0 && defined(ALT_ALLOW_CODE_AT_RESET) && (!defined(ALT_SIM_OPTIMIZE) || defined(NIOS2_ECC_PRESENT))
    /* Assume the instruction cache size is always a power of two. */
#if NIOS2_ICACHE_SIZE > 0x8000
    movhi r2, %hi(NIOS2_ICACHE_SIZE)
#else
    movui r2, NIOS2_ICACHE_SIZE
   40000:	00840014 	movui	r2,4096
#endif

0:
    initi r2
   40004:	1001483a 	initi	r2
    addi r2, r2, -NIOS2_ICACHE_LINE_SIZE
   40008:	10bff804 	addi	r2,r2,-32
    bgt r2, zero, 0b
   4000c:	00bffd16 	blt	zero,r2,40004 <_gp+0xfffd611c>
 * Jump to the _start entry point in the .text section if reset code
 * is allowed or if optimizing for RTL simulation.
 */
#if defined(ALT_ALLOW_CODE_AT_RESET) || defined(ALT_SIM_OPTIMIZE)
    /* Jump to the _start entry point in the .text section. */
    movhi r1, %hi(_start)
   40010:	00400134 	movhi	at,4
    ori r1, r1, %lo(_start)
   40014:	08409114 	ori	at,at,580
    jmp r1
   40018:	0800683a 	jmp	at
   4001c:	00000000 	call	0 <__reset-0x40000>

Disassembly of section .exceptions:

00040020 <alt_exception>:

#else /* ALT_EXCEPTION_STACK disabled */
        /* 
         * Reserve space on normal stack for registers about to be pushed.
         */
        addi  sp, sp, -76
   40020:	deffed04 	addi	sp,sp,-76
         * documentation for details).
         *
         * Leave a gap in the stack frame at 4(sp) for the muldiv handler to
         * store zero into.
         */
        stw   ra,  0(sp)
   40024:	dfc00015 	stw	ra,0(sp)
        stw   r1,   8(sp)
   40028:	d8400215 	stw	at,8(sp)
        stw   r2,  12(sp)
   4002c:	d8800315 	stw	r2,12(sp)
        stw   r3,  16(sp)
   40030:	d8c00415 	stw	r3,16(sp)
        stw   r4,  20(sp)
   40034:	d9000515 	stw	r4,20(sp)
        stw   r5,  24(sp)
   40038:	d9400615 	stw	r5,24(sp)
        stw   r6,  28(sp)
   4003c:	d9800715 	stw	r6,28(sp)
        stw   r7,  32(sp)
   40040:	d9c00815 	stw	r7,32(sp)
        rdctl r5, estatus   /* Read early to avoid usage stall */
   40044:	000b307a 	rdctl	r5,estatus
        stw   r8,  36(sp)
   40048:	da000915 	stw	r8,36(sp)
        stw   r9,  40(sp)
   4004c:	da400a15 	stw	r9,40(sp)
        stw   r10, 44(sp)
   40050:	da800b15 	stw	r10,44(sp)
        stw   r11, 48(sp)
   40054:	dac00c15 	stw	r11,48(sp)
        stw   r12, 52(sp)
   40058:	db000d15 	stw	r12,52(sp)
        stw   r13, 56(sp)
   4005c:	db400e15 	stw	r13,56(sp)
        stw   r14, 60(sp)
   40060:	db800f15 	stw	r14,60(sp)
        stw   r15, 64(sp)
   40064:	dbc01015 	stw	r15,64(sp)
        /*
         * ea-4 contains the address of the instruction being executed
         * when the exception occured. For interrupt exceptions, we will
         * will be re-issue the isntruction. Store it in 72(sp)
         */
        stw   r5,  68(sp)  /* estatus */
   40068:	d9401115 	stw	r5,68(sp)
        addi  r15, ea, -4  /* instruction that caused exception */
   4006c:	ebffff04 	addi	r15,ea,-4
        stw   r15,  72(sp)
   40070:	dbc01215 	stw	r15,72(sp)
#else
        /*
         * Test to see if the exception was a software exception or caused 
         * by an external interrupt, and vector accordingly.
         */
        rdctl r4, ipending
   40074:	0009313a 	rdctl	r4,ipending
        andi  r2, r5, 1
   40078:	2880004c 	andi	r2,r5,1
        beq   r2, zero, .Lnot_irq
   4007c:	10000326 	beq	r2,zero,4008c <alt_exception+0x6c>
        beq   r4, zero, .Lnot_irq
   40080:	20000226 	beq	r4,zero,4008c <alt_exception+0x6c>
        /*
         * Now that all necessary registers have been preserved, call 
         * alt_irq_handler() to process the interrupts.
         */

        call alt_irq_handler
   40084:	00400fc0 	call	400fc <alt_irq_handler>

        .section .exceptions.irqreturn, "xa"

        br    .Lexception_exit
   40088:	00000706 	br	400a8 <alt_exception+0x88>
         * upon completion, so we write ea (address of instruction *after*
         * the one where the exception occured) into 72(sp). The actual
         * instruction that caused the exception is written in r2, which these
         * handlers will utilize.
         */
        stw ea, 72(sp) /* EA is PC+4 so will skip over instruction causing exception */
   4008c:	df401215 	stw	ea,72(sp)
.Lunknown_16bit:
        addi.n r4, r4, 2 /* Need PC+2 to skip over instruction causing exception */
        stw r4, 72(sp)

#else /* CDX is not Enabled and all instructions are 32bits */
        ldw r2, -4(ea) /* Instruction value that caused exception */
   40090:	e8bfff17 	ldw	r2,-4(ea)
         * debugger is present) or go into an infinite loop since the
         * handling behavior is undefined; in that case we will not return here.
         */

        /* Load exception-causing address as first argument (r4) */
        addi   r4, ea, -4
   40094:	e93fff04 	addi	r4,ea,-4

        /* Call the instruction-exception entry */
        call   alt_instruction_exception_entry
   40098:	00401d00 	call	401d0 <alt_instruction_exception_entry>
         * instruction
         *
         * Return code was 0: Skip. The instruction after the exception is
         * already stored in 72(sp).
         */
        bne   r2, r0, .Lexception_exit
   4009c:	1000021e 	bne	r2,zero,400a8 <alt_exception+0x88>

        /*
         * Otherwise, modify 72(sp) to re-issue the instruction that caused the
         * exception.
         */
        addi  r15, ea, -4  /* instruction that caused exception */
   400a0:	ebffff04 	addi	r15,ea,-4
        stw   r15,  72(sp)
   400a4:	dbc01215 	stw	r15,72(sp)
        /* 
         * Restore the saved registers, so that all general purpose registers 
         * have been restored to their state at the time the interrupt occured.
         */

        ldw   r5,  68(sp)
   400a8:	d9401117 	ldw	r5,68(sp)
        ldw   ea,  72(sp)  /* This becomes the PC once eret is executed */
   400ac:	df401217 	ldw	ea,72(sp)
        ldw   ra,   0(sp)
   400b0:	dfc00017 	ldw	ra,0(sp)

        wrctl estatus, r5
   400b4:	2801707a 	wrctl	estatus,r5

        ldw   r1,   8(sp)
   400b8:	d8400217 	ldw	at,8(sp)
        ldw   r2,  12(sp)
   400bc:	d8800317 	ldw	r2,12(sp)
        ldw   r3,  16(sp)
   400c0:	d8c00417 	ldw	r3,16(sp)
        ldw   r4,  20(sp)
   400c4:	d9000517 	ldw	r4,20(sp)
        ldw   r5,  24(sp)
   400c8:	d9400617 	ldw	r5,24(sp)
        ldw   r6,  28(sp)
   400cc:	d9800717 	ldw	r6,28(sp)
        ldw   r7,  32(sp)
   400d0:	d9c00817 	ldw	r7,32(sp)

#if defined(ALT_EXCEPTION_STACK) && defined(ALT_STACK_CHECK)
        ldw   et, %gprel(alt_exception_old_stack_limit)(gp)
#endif

        ldw   r8,  36(sp)
   400d4:	da000917 	ldw	r8,36(sp)
        ldw   r9,  40(sp)
   400d8:	da400a17 	ldw	r9,40(sp)
        ldw   r10, 44(sp)
   400dc:	da800b17 	ldw	r10,44(sp)
        ldw   r11, 48(sp)
   400e0:	dac00c17 	ldw	r11,48(sp)
        ldw   r12, 52(sp)
   400e4:	db000d17 	ldw	r12,52(sp)
        ldw   r13, 56(sp)
   400e8:	db400e17 	ldw	r13,56(sp)
        ldw   r14, 60(sp)
   400ec:	db800f17 	ldw	r14,60(sp)
        ldw   r15, 64(sp)
   400f0:	dbc01017 	ldw	r15,64(sp)
        stw   et, %gprel(alt_stack_limit_value)(gp)
        stw   zero, %gprel(alt_exception_old_stack_limit)(gp)
#endif /* ALT_STACK_CHECK */
        ldw   sp,  76(sp)
#else /* ALT_EXCEPTION_STACK disabled */
        addi  sp, sp, 76
   400f4:	dec01304 	addi	sp,sp,76

        /*
         * Return to the interrupted instruction.
         */

        eret
   400f8:	ef80083a 	eret

000400fc <alt_irq_handler>:
 * instruction is present if the macro ALT_CI_INTERRUPT_VECTOR defined.
 */

void alt_irq_handler (void) __attribute__ ((section (".exceptions")));
void alt_irq_handler (void)
{
   400fc:	defff904 	addi	sp,sp,-28
   40100:	dfc00615 	stw	ra,24(sp)
   40104:	df000515 	stw	fp,20(sp)
   40108:	df000504 	addi	fp,sp,20
  
  /*
   * Notify the operating system that we are at interrupt level.
   */ 
  
  ALT_OS_INT_ENTER();
   4010c:	0001883a 	nop
#ifndef NIOS2_EIC_PRESENT
static ALT_INLINE alt_u32 ALT_ALWAYS_INLINE alt_irq_pending (void)
{
  alt_u32 active;

  NIOS2_READ_IPENDING (active);
   40110:	0005313a 	rdctl	r2,ipending
   40114:	e0bffe15 	stw	r2,-8(fp)

  return active;
   40118:	e0bffe17 	ldw	r2,-8(fp)
   * Consider the case where the high priority interupt is asserted during
   * the interrupt entry sequence for a lower priority interrupt to see why
   * this is the case.
   */

  active = alt_irq_pending ();
   4011c:	e0bffb15 	stw	r2,-20(fp)

  do
  {
    i = 0;
   40120:	e03ffd15 	stw	zero,-12(fp)
    mask = 1;
   40124:	00800044 	movi	r2,1
   40128:	e0bffc15 	stw	r2,-16(fp)
     * called to clear the interrupt condition.
     */

    do
    {
      if (active & mask)
   4012c:	e0fffb17 	ldw	r3,-20(fp)
   40130:	e0bffc17 	ldw	r2,-16(fp)
   40134:	1884703a 	and	r2,r3,r2
   40138:	10001426 	beq	r2,zero,4018c <alt_irq_handler+0x90>
      { 
#ifdef ALT_ENHANCED_INTERRUPT_API_PRESENT
        alt_irq[i].handler(alt_irq[i].context); 
   4013c:	008001b4 	movhi	r2,6
   40140:	108eff04 	addi	r2,r2,15356
   40144:	e0fffd17 	ldw	r3,-12(fp)
   40148:	180690fa 	slli	r3,r3,3
   4014c:	10c5883a 	add	r2,r2,r3
   40150:	10c00017 	ldw	r3,0(r2)
   40154:	008001b4 	movhi	r2,6
   40158:	108eff04 	addi	r2,r2,15356
   4015c:	e13ffd17 	ldw	r4,-12(fp)
   40160:	200890fa 	slli	r4,r4,3
   40164:	1105883a 	add	r2,r2,r4
   40168:	10800104 	addi	r2,r2,4
   4016c:	10800017 	ldw	r2,0(r2)
   40170:	1009883a 	mov	r4,r2
   40174:	183ee83a 	callr	r3
#else
        alt_irq[i].handler(alt_irq[i].context, i); 
#endif
        break;
   40178:	0001883a 	nop
#ifndef NIOS2_EIC_PRESENT
static ALT_INLINE alt_u32 ALT_ALWAYS_INLINE alt_irq_pending (void)
{
  alt_u32 active;

  NIOS2_READ_IPENDING (active);
   4017c:	0005313a 	rdctl	r2,ipending
   40180:	e0bfff15 	stw	r2,-4(fp)

  return active;
   40184:	e0bfff17 	ldw	r2,-4(fp)
   40188:	00000706 	br	401a8 <alt_irq_handler+0xac>
      }
      mask <<= 1;
   4018c:	e0bffc17 	ldw	r2,-16(fp)
   40190:	1085883a 	add	r2,r2,r2
   40194:	e0bffc15 	stw	r2,-16(fp)
      i++;
   40198:	e0bffd17 	ldw	r2,-12(fp)
   4019c:	10800044 	addi	r2,r2,1
   401a0:	e0bffd15 	stw	r2,-12(fp)

    } while (1);
   401a4:	003fe106 	br	4012c <_gp+0xfffd6244>

    active = alt_irq_pending ();
   401a8:	e0bffb15 	stw	r2,-20(fp)
    
  } while (active);
   401ac:	e0bffb17 	ldw	r2,-20(fp)
   401b0:	103fdb1e 	bne	r2,zero,40120 <_gp+0xfffd6238>

  /*
   * Notify the operating system that interrupt processing is complete.
   */ 

  ALT_OS_INT_EXIT();
   401b4:	0001883a 	nop
}
   401b8:	0001883a 	nop
   401bc:	e037883a 	mov	sp,fp
   401c0:	dfc00117 	ldw	ra,4(sp)
   401c4:	df000017 	ldw	fp,0(sp)
   401c8:	dec00204 	addi	sp,sp,8
   401cc:	f800283a 	ret

000401d0 <alt_instruction_exception_entry>:
 * that handler if it has been registered. Absent a handler, it will
 * break break or hang as discussed below.
 */
int 
alt_instruction_exception_entry (alt_u32 exception_pc)
{
   401d0:	defffb04 	addi	sp,sp,-20
   401d4:	dfc00415 	stw	ra,16(sp)
   401d8:	df000315 	stw	fp,12(sp)
   401dc:	df000304 	addi	fp,sp,12
   401e0:	e13fff15 	stw	r4,-4(fp)
 * NIOS2_EXCEPTION_CAUSE_NOT_PRESENT. Your handling routine should
 * check the validity of the cause argument before proceeding.
 */
#ifdef NIOS2_HAS_EXTRA_EXCEPTION_INFO
  /* Get exception cause & "badaddr" */
  NIOS2_READ_EXCEPTION(cause);
   401e4:	000531fa 	rdctl	r2,exception
   401e8:	e0bffd15 	stw	r2,-12(fp)
  cause = ( (cause & NIOS2_EXCEPTION_REG_CAUSE_MASK) >>
   401ec:	e0bffd17 	ldw	r2,-12(fp)
   401f0:	10801f0c 	andi	r2,r2,124
   401f4:	1004d0ba 	srli	r2,r2,2
   401f8:	e0bffd15 	stw	r2,-12(fp)
              NIOS2_EXCEPTION_REG_CAUSE_OFST );

  NIOS2_READ_BADADDR(badaddr);
   401fc:	0005333a 	rdctl	r2,badaddr
   40200:	e0bffe15 	stw	r2,-8(fp)
#else
  cause = NIOS2_EXCEPTION_CAUSE_NOT_PRESENT;
  badaddr = 0;
#endif /* NIOS2_HAS_EXTRA_EXCEPTION_INFO */

  if(alt_instruction_exception_handler) {
   40204:	d0a73617 	ldw	r2,-25384(gp)
   40208:	10000726 	beq	r2,zero,40228 <alt_instruction_exception_entry+0x58>
     * Call handler. Its return value indicates whether the exception-causing
     * instruction should be re-issued. The code that called us,
     * alt_eceptions_entry.S, will look at this value and adjust the ea
     * register as necessary
     */
    return alt_instruction_exception_handler(cause, exception_pc, badaddr);
   4020c:	d0a73617 	ldw	r2,-25384(gp)
   40210:	e0fffd17 	ldw	r3,-12(fp)
   40214:	e1bffe17 	ldw	r6,-8(fp)
   40218:	e17fff17 	ldw	r5,-4(fp)
   4021c:	1809883a 	mov	r4,r3
   40220:	103ee83a 	callr	r2
   40224:	00000206 	br	40230 <alt_instruction_exception_entry+0x60>
   *    (a peripheral which negates its interrupt output before its
   *    interrupt handler has been executed will cause spurious interrupts)
   */
  else {
#ifdef NIOS2_HAS_DEBUG_STUB
    NIOS2_BREAK();
   40228:	003da03a 	break	0
      ;
#endif /* NIOS2_HAS_DEBUG_STUB */
  }

  /* We should not get here. Remove compiler warning. */
  return NIOS2_EXCEPTION_RETURN_REISSUE_INST;
   4022c:	0005883a 	mov	r2,zero
}
   40230:	e037883a 	mov	sp,fp
   40234:	dfc00117 	ldw	ra,4(sp)
   40238:	df000017 	ldw	fp,0(sp)
   4023c:	dec00204 	addi	sp,sp,8
   40240:	f800283a 	ret

Disassembly of section .text:

00040244 <_start>:

    /* Assume the data cache size is always a power of two. */
#if NIOS2_DCACHE_SIZE > 0x8000
    movhi r2, %hi(NIOS2_DCACHE_SIZE)
#else
    movui r2, NIOS2_DCACHE_SIZE
   40244:	00820014 	movui	r2,2048
#endif

0:
    initd 0(r2)
   40248:	10000033 	initd	0(r2)
#ifdef NIOS2_ECC_PRESENT
    addi r2, r2, -4
#else
    addi r2, r2, -NIOS2_DCACHE_LINE_SIZE
   4024c:	10bff804 	addi	r2,r2,-32
#endif
    bgt r2, zero, 0b
   40250:	00bffd16 	blt	zero,r2,40248 <_gp+0xfffd6360>

    /*
     * Now that the caches are initialized, set up the stack pointer and global pointer.
     * The values provided by the linker are assumed to be correctly aligned.
     */
    movhi sp, %hi(__alt_stack_pointer)
   40254:	06c001b4 	movhi	sp,6
    ori sp, sp, %lo(__alt_stack_pointer)
   40258:	dedc4014 	ori	sp,sp,28928
    movhi gp, %hi(_gp)
   4025c:	068001b4 	movhi	gp,6
    ori gp, gp, %lo(_gp)
   40260:	d6a7ba14 	ori	gp,gp,40680
 */
#ifndef ALT_SIM_OPTIMIZE
    /* Log that the BSS is about to be cleared. */
    ALT_LOG_PUTS(alt_log_msg_bss)

    movhi r2, %hi(__bss_start)
   40264:	008001b4 	movhi	r2,6
    ori r2, r2, %lo(__bss_start)
   40268:	108ee014 	ori	r2,r2,15232

    movhi r3, %hi(__bss_end)
   4026c:	00c001b4 	movhi	r3,6
    ori r3, r3, %lo(__bss_end)
   40270:	18cf3f14 	ori	r3,r3,15612

    beq r2, r3, 1f
   40274:	10c00326 	beq	r2,r3,40284 <_start+0x40>

0:
    stw zero, (r2)
   40278:	10000015 	stw	zero,0(r2)
    addi r2, r2, 4
   4027c:	10800104 	addi	r2,r2,4
    bltu r2, r3, 0b
   40280:	10fffd36 	bltu	r2,r3,40278 <_gp+0xfffd6390>
     * section aren't defined until alt_load() has been called).
     */
    mov   et, zero
#endif

    call alt_load
   40284:	005c8a40 	call	5c8a4 <alt_load>

    /* Log that alt_main is about to be called. */
    ALT_LOG_PUTS(alt_log_msg_alt_main)

    /* Call the C entry point. It should never return. */
    call alt_main
   40288:	005ca380 	call	5ca38 <alt_main>

0004028c <alt_after_alt_main>:

    /* Wait in infinite loop in case alt_main does return. */
alt_after_alt_main:
    br alt_after_alt_main
   4028c:	003fff06 	br	4028c <_gp+0xfffd63a4>

00040290 <_ZN5CHC05C1Ev>:
#include "CUart.h"
#include "CHC05.h"
#include "sys/alt_dev.h"
#include "altera_avalon_uart.h"

CHC05::CHC05():
   40290:	defffe04 	addi	sp,sp,-8
   40294:	df000115 	stw	fp,4(sp)
   40298:	df000104 	addi	fp,sp,4
   4029c:	e13fff15 	stw	r4,-4(fp)
	// TODO Auto-generated constructor stub
	NumDeviceMax(9)
   402a0:	008001b4 	movhi	r2,6
   402a4:	10be0504 	addi	r2,r2,-2028
   402a8:	e0ffff17 	ldw	r3,-4(fp)
   402ac:	18800015 	stw	r2,0(r3)
   402b0:	e0bfff17 	ldw	r2,-4(fp)
   402b4:	00c00244 	movi	r3,9
   402b8:	10c00115 	stw	r3,4(r2)
{

}
   402bc:	0001883a 	nop
   402c0:	e037883a 	mov	sp,fp
   402c4:	df000017 	ldw	fp,0(sp)
   402c8:	dec00104 	addi	sp,sp,4
   402cc:	f800283a 	ret

000402d0 <_ZN5CHC05D1Ev>:

CHC05::~CHC05() {
   402d0:	defffd04 	addi	sp,sp,-12
   402d4:	dfc00215 	stw	ra,8(sp)
   402d8:	df000115 	stw	fp,4(sp)
   402dc:	df000104 	addi	fp,sp,4
   402e0:	e13fff15 	stw	r4,-4(fp)
   402e4:	008001b4 	movhi	r2,6
   402e8:	10be0504 	addi	r2,r2,-2028
   402ec:	e0ffff17 	ldw	r3,-4(fp)
   402f0:	18800015 	stw	r2,0(r3)
	// TODO Auto-generated destructor stub


}
   402f4:	0005883a 	mov	r2,zero
   402f8:	10000226 	beq	r2,zero,40304 <_ZN5CHC05D1Ev+0x34>
   402fc:	e13fff17 	ldw	r4,-4(fp)
   40300:	00419880 	call	41988 <_ZdlPv>
   40304:	e037883a 	mov	sp,fp
   40308:	dfc00117 	ldw	ra,4(sp)
   4030c:	df000017 	ldw	fp,0(sp)
   40310:	dec00204 	addi	sp,sp,8
   40314:	f800283a 	ret

00040318 <_ZN5CHC05D0Ev>:
	NumDeviceMax(9)
{

}

CHC05::~CHC05() {
   40318:	defffd04 	addi	sp,sp,-12
   4031c:	dfc00215 	stw	ra,8(sp)
   40320:	df000115 	stw	fp,4(sp)
   40324:	df000104 	addi	fp,sp,4
   40328:	e13fff15 	stw	r4,-4(fp)
	// TODO Auto-generated destructor stub


}
   4032c:	e13fff17 	ldw	r4,-4(fp)
   40330:	00402d00 	call	402d0 <_ZN5CHC05D1Ev>
   40334:	e13fff17 	ldw	r4,-4(fp)
   40338:	00419880 	call	41988 <_ZdlPv>
   4033c:	e037883a 	mov	sp,fp
   40340:	dfc00117 	ldw	ra,4(sp)
   40344:	df000017 	ldw	fp,0(sp)
   40348:	dec00204 	addi	sp,sp,8
   4034c:	f800283a 	ret

00040350 <_ZN5CHC0511CommandReadER5CUartPciPi>:


bool CHC05::CommandRead(CUart   &Uart, char *pBuffer, int nBufferSize, int *prx_lenmand){
   40350:	defff504 	addi	sp,sp,-44
   40354:	dfc00a15 	stw	ra,40(sp)
   40358:	df000915 	stw	fp,36(sp)
   4035c:	df000904 	addi	fp,sp,36
   40360:	e13ffc15 	stw	r4,-16(fp)
   40364:	e17ffd15 	stw	r5,-12(fp)
   40368:	e1bffe15 	stw	r6,-8(fp)
   4036c:	e1ffff15 	stw	r7,-4(fp)
	int RxLen;
	char Data;
	bool bDone = false;
   40370:	e03ff705 	stb	zero,-36(fp)
	int Len = 0;
   40374:	e03ff815 	stw	zero,-32(fp)
	alt_u32 timeout;

	if (!Uart.Read((char *)&Data, sizeof(Data), &RxLen) || RxLen == 0)
   40378:	00c00044 	movi	r3,1
   4037c:	e13ffa04 	addi	r4,fp,-24
   40380:	e0bffb04 	addi	r2,fp,-20
   40384:	200f883a 	mov	r7,r4
   40388:	180d883a 	mov	r6,r3
   4038c:	100b883a 	mov	r5,r2
   40390:	e13ffd17 	ldw	r4,-12(fp)
   40394:	0040e1c0 	call	40e1c <_ZN5CUart4ReadEPciPi>
   40398:	1080005c 	xori	r2,r2,1
   4039c:	10803fcc 	andi	r2,r2,255
   403a0:	1000021e 	bne	r2,zero,403ac <_ZN5CHC0511CommandReadER5CUartPciPi+0x5c>
   403a4:	e0bffa17 	ldw	r2,-24(fp)
   403a8:	1000021e 	bne	r2,zero,403b4 <_ZN5CHC0511CommandReadER5CUartPciPi+0x64>
   403ac:	00800044 	movi	r2,1
   403b0:	00000106 	br	403b8 <_ZN5CHC0511CommandReadER5CUartPciPi+0x68>
   403b4:	0005883a 	mov	r2,zero
   403b8:	10803fcc 	andi	r2,r2,255
   403bc:	10000226 	beq	r2,zero,403c8 <_ZN5CHC0511CommandReadER5CUartPciPi+0x78>
			return false;
   403c0:	0005883a 	mov	r2,zero
   403c4:	00004306 	br	404d4 <_ZN5CHC0511CommandReadER5CUartPciPi+0x184>

	*(pBuffer + 0) = Data;
   403c8:	e0fffb03 	ldbu	r3,-20(fp)
   403cc:	e0bffe17 	ldw	r2,-8(fp)
   403d0:	10c00005 	stb	r3,0(r2)
 * alt_nticks() returns the elapsed number of system clock ticks since reset.
 */

static ALT_INLINE alt_u32 ALT_ALWAYS_INLINE alt_nticks (void)
{
  return _alt_nticks;
   403d4:	d0e73417 	ldw	r3,-25392(gp)
 * Obtain the system clock rate in ticks/s. 
 */

static ALT_INLINE alt_u32 ALT_ALWAYS_INLINE alt_ticks_per_second (void)
{
  return _alt_tick_rate;
   403d8:	d0a73317 	ldw	r2,-25396(gp)

	// read until find '\r'
	//timeout = alt_nticks() + alt_ticks_per_second()/1000;
	timeout = alt_nticks() + (alt_ticks_per_second()*60);
   403dc:	10800f24 	muli	r2,r2,60
   403e0:	1885883a 	add	r2,r3,r2
   403e4:	e0bff915 	stw	r2,-28(fp)
	Len = 1;
   403e8:	00800044 	movi	r2,1
   403ec:	e0bff815 	stw	r2,-32(fp)
	while(!bDone){
   403f0:	e0bff703 	ldbu	r2,-36(fp)
   403f4:	1000331e 	bne	r2,zero,404c4 <_ZN5CHC0511CommandReadER5CUartPciPi+0x174>
		if (Uart.NoneBlockingRead((char *)&Data, sizeof(Data), &RxLen) && RxLen == sizeof(Data)){
   403f8:	00c00044 	movi	r3,1
   403fc:	e13ffa04 	addi	r4,fp,-24
   40400:	e0bffb04 	addi	r2,fp,-20
   40404:	200f883a 	mov	r7,r4
   40408:	180d883a 	mov	r6,r3
   4040c:	100b883a 	mov	r5,r2
   40410:	e13ffd17 	ldw	r4,-12(fp)
   40414:	0040f600 	call	40f60 <_ZN5CUart16NoneBlockingReadEPciPi>
   40418:	10803fcc 	andi	r2,r2,255
   4041c:	10000526 	beq	r2,zero,40434 <_ZN5CHC0511CommandReadER5CUartPciPi+0xe4>
   40420:	e0bffa17 	ldw	r2,-24(fp)
   40424:	10800058 	cmpnei	r2,r2,1
   40428:	1000021e 	bne	r2,zero,40434 <_ZN5CHC0511CommandReadER5CUartPciPi+0xe4>
   4042c:	00800044 	movi	r2,1
   40430:	00000106 	br	40438 <_ZN5CHC0511CommandReadER5CUartPciPi+0xe8>
   40434:	0005883a 	mov	r2,zero
   40438:	10803fcc 	andi	r2,r2,255
   4043c:	10001126 	beq	r2,zero,40484 <_ZN5CHC0511CommandReadER5CUartPciPi+0x134>
			*(pBuffer + Len) = Data;
   40440:	e0bff817 	ldw	r2,-32(fp)
   40444:	e0fffe17 	ldw	r3,-8(fp)
   40448:	1885883a 	add	r2,r3,r2
   4044c:	e0fffb03 	ldbu	r3,-20(fp)
   40450:	10c00005 	stb	r3,0(r2)
			Len++;
   40454:	e0bff817 	ldw	r2,-32(fp)
   40458:	10800044 	addi	r2,r2,1
   4045c:	e0bff815 	stw	r2,-32(fp)
			if (Data == '\n')
   40460:	e0bffb03 	ldbu	r2,-20(fp)
   40464:	10803fcc 	andi	r2,r2,255
   40468:	1080201c 	xori	r2,r2,128
   4046c:	10bfe004 	addi	r2,r2,-128
   40470:	10800298 	cmpnei	r2,r2,10
   40474:	1000101e 	bne	r2,zero,404b8 <_ZN5CHC0511CommandReadER5CUartPciPi+0x168>
				bDone = true;
   40478:	00800044 	movi	r2,1
   4047c:	e0bff705 	stb	r2,-36(fp)
   40480:	00000d06 	br	404b8 <_ZN5CHC0511CommandReadER5CUartPciPi+0x168>
		}else if (Len >= nBufferSize){
   40484:	e0fff817 	ldw	r3,-32(fp)
   40488:	e0bfff17 	ldw	r2,-4(fp)
   4048c:	18800316 	blt	r3,r2,4049c <_ZN5CHC0511CommandReadER5CUartPciPi+0x14c>
			// buffer full
			bDone = true;
   40490:	00800044 	movi	r2,1
   40494:	e0bff705 	stb	r2,-36(fp)
   40498:	00000706 	br	404b8 <_ZN5CHC0511CommandReadER5CUartPciPi+0x168>
 * alt_nticks() returns the elapsed number of system clock ticks since reset.
 */

static ALT_INLINE alt_u32 ALT_ALWAYS_INLINE alt_nticks (void)
{
  return _alt_nticks;
   4049c:	d0a73417 	ldw	r2,-25392(gp)
		}else if (alt_nticks() > timeout){
   404a0:	e0fff917 	ldw	r3,-28(fp)
   404a4:	1885803a 	cmpltu	r2,r3,r2
   404a8:	10803fcc 	andi	r2,r2,255
   404ac:	10000226 	beq	r2,zero,404b8 <_ZN5CHC0511CommandReadER5CUartPciPi+0x168>
			// timeout
			bDone = true;
   404b0:	00800044 	movi	r2,1
   404b4:	e0bff705 	stb	r2,-36(fp)
		}else{
		}
		usleep(10);
   404b8:	01000284 	movi	r4,10
   404bc:	005d1400 	call	5d140 <usleep>

	// read until find '\r'
	//timeout = alt_nticks() + alt_ticks_per_second()/1000;
	timeout = alt_nticks() + (alt_ticks_per_second()*60);
	Len = 1;
	while(!bDone){
   404c0:	003fcb06 	br	403f0 <_gp+0xfffd6508>
		}else{
		}
		usleep(10);

	}
	*prx_lenmand = Len;
   404c4:	e0800217 	ldw	r2,8(fp)
   404c8:	e0fff817 	ldw	r3,-32(fp)
   404cc:	10c00015 	stw	r3,0(r2)
	return true;
   404d0:	00800044 	movi	r2,1
}
   404d4:	e037883a 	mov	sp,fp
   404d8:	dfc00117 	ldw	ra,4(sp)
   404dc:	df000017 	ldw	fp,0(sp)
   404e0:	dec00204 	addi	sp,sp,8
   404e4:	f800283a 	ret

000404e8 <_ZN5CHC059SetupSendE5CUartPc>:


bool CHC05::SetupSend(CUart Uart,char *cmd)
{
   404e8:	deffee04 	addi	sp,sp,-72
   404ec:	dfc01115 	stw	ra,68(sp)
   404f0:	df001015 	stw	fp,64(sp)
   404f4:	df001004 	addi	fp,sp,64
   404f8:	e13ffd15 	stw	r4,-12(fp)
   404fc:	e17ffe15 	stw	r5,-8(fp)
   40500:	e1bfff15 	stw	r6,-4(fp)
	bool bFindOK=false;
   40504:	e03ff105 	stb	zero,-60(fp)
   40508:	d0e73417 	ldw	r3,-25392(gp)
 * Obtain the system clock rate in ticks/s. 
 */

static ALT_INLINE alt_u32 ALT_ALWAYS_INLINE alt_ticks_per_second (void)
{
  return _alt_tick_rate;
   4050c:	d0a73317 	ldw	r2,-25396(gp)
	int  nReadLen;
    char szData[35];
    alt_u32 timeout;

    timeout = alt_nticks() + (alt_ticks_per_second()*30);
   40510:	108007a4 	muli	r2,r2,30
   40514:	1885883a 	add	r2,r3,r2
   40518:	e0bff215 	stw	r2,-56(fp)

	Uart.WriteString(cmd);
   4051c:	e17fff17 	ldw	r5,-4(fp)
   40520:	e13ffe17 	ldw	r4,-8(fp)
   40524:	0040f1c0 	call	40f1c <_ZN5CUart11WriteStringEPc>
	while(!bFindOK){
   40528:	e0bff103 	ldbu	r2,-60(fp)
   4052c:	1000261e 	bne	r2,zero,405c8 <_ZN5CHC059SetupSendE5CUartPc+0xe0>
	  if(CommandRead(Uart, szData, sizeof(szData), &nReadLen)){
   40530:	010008c4 	movi	r4,35
   40534:	e0fff404 	addi	r3,fp,-48
   40538:	e0bff304 	addi	r2,fp,-52
   4053c:	d8800015 	stw	r2,0(sp)
   40540:	200f883a 	mov	r7,r4
   40544:	180d883a 	mov	r6,r3
   40548:	e17ffe17 	ldw	r5,-8(fp)
   4054c:	e13ffd17 	ldw	r4,-12(fp)
   40550:	00403500 	call	40350 <_ZN5CHC0511CommandReadER5CUartPciPi>
   40554:	10803fcc 	andi	r2,r2,255
   40558:	10000926 	beq	r2,zero,40580 <_ZN5CHC059SetupSendE5CUartPc+0x98>
	      szData[nReadLen] = 0;
   4055c:	e0bff317 	ldw	r2,-52(fp)
   40560:	e0fff404 	addi	r3,fp,-48
   40564:	1885883a 	add	r2,r3,r2
   40568:	10000005 	stb	zero,0(r2)
	      printf("HC05:%s\r\n",szData);
   4056c:	e0bff404 	addi	r2,fp,-48
   40570:	100b883a 	mov	r5,r2
   40574:	010001b4 	movhi	r4,6
   40578:	213de404 	addi	r4,r4,-2160
   4057c:	00445f80 	call	445f8 <printf>
	  }
	  if(!(strcmp(szData, "OK\r\n")))
   40580:	e0bff404 	addi	r2,fp,-48
   40584:	014001b4 	movhi	r5,6
   40588:	297de704 	addi	r5,r5,-2148
   4058c:	1009883a 	mov	r4,r2
   40590:	0044dc00 	call	44dc0 <strcmp>
   40594:	1000021e 	bne	r2,zero,405a0 <_ZN5CHC059SetupSendE5CUartPc+0xb8>
		  bFindOK = true;
   40598:	00800044 	movi	r2,1
   4059c:	e0bff105 	stb	r2,-60(fp)
 * alt_nticks() returns the elapsed number of system clock ticks since reset.
 */

static ALT_INLINE alt_u32 ALT_ALWAYS_INLINE alt_nticks (void)
{
  return _alt_nticks;
   405a0:	d0a73417 	ldw	r2,-25392(gp)
	  if(alt_nticks() > timeout){
   405a4:	e0fff217 	ldw	r3,-56(fp)
   405a8:	1885803a 	cmpltu	r2,r3,r2
   405ac:	10803fcc 	andi	r2,r2,255
   405b0:	103fdd26 	beq	r2,zero,40528 <_gp+0xfffd6640>
		  printf("Time Out\n");
   405b4:	010001b4 	movhi	r4,6
   405b8:	213de904 	addi	r4,r4,-2140
   405bc:	00446f40 	call	446f4 <puts>
		  return false;
   405c0:	0005883a 	mov	r2,zero
   405c4:	00000106 	br	405cc <_ZN5CHC059SetupSendE5CUartPc+0xe4>
	  }

	}

	return bFindOK;
   405c8:	e0bff103 	ldbu	r2,-60(fp)
}
   405cc:	e037883a 	mov	sp,fp
   405d0:	dfc00117 	ldw	ra,4(sp)
   405d4:	df000017 	ldw	fp,0(sp)
   405d8:	dec00204 	addi	sp,sp,8
   405dc:	f800283a 	ret

000405e0 <_ZN5CHC0511MessageSendE5CUartPc>:


bool CHC05::MessageSend(CUart Uart,char *cmd)
{
   405e0:	defffa04 	addi	sp,sp,-24
   405e4:	dfc00515 	stw	ra,20(sp)
   405e8:	df000415 	stw	fp,16(sp)
   405ec:	df000404 	addi	fp,sp,16
   405f0:	e13ffd15 	stw	r4,-12(fp)
   405f4:	e17ffe15 	stw	r5,-8(fp)
   405f8:	e1bfff15 	stw	r6,-4(fp)
	bool bOK=false;
   405fc:	e03ffc05 	stb	zero,-16(fp)

	bOK = Uart.WriteString(cmd);
   40600:	e17fff17 	ldw	r5,-4(fp)
   40604:	e13ffe17 	ldw	r4,-8(fp)
   40608:	0040f1c0 	call	40f1c <_ZN5CUart11WriteStringEPc>
   4060c:	e0bffc05 	stb	r2,-16(fp)

	return bOK;
   40610:	e0bffc03 	ldbu	r2,-16(fp)
}
   40614:	e037883a 	mov	sp,fp
   40618:	dfc00117 	ldw	ra,4(sp)
   4061c:	df000017 	ldw	fp,0(sp)
   40620:	dec00204 	addi	sp,sp,8
   40624:	f800283a 	ret

00040628 <_ZN5CHC0516SetInquireDeviceE5CUartiii>:


bool  CHC05::SetInquireDevice(CUart Uart,int mode,int NumDevice,int time){
   40628:	deffd704 	addi	sp,sp,-164
   4062c:	dfc02815 	stw	ra,160(sp)
   40630:	df002715 	stw	fp,156(sp)
   40634:	ddc02615 	stw	r23,152(sp)
   40638:	dd802515 	stw	r22,148(sp)
   4063c:	dd402415 	stw	r21,144(sp)
   40640:	dd002315 	stw	r20,140(sp)
   40644:	dcc02215 	stw	r19,136(sp)
   40648:	dc802115 	stw	r18,132(sp)
   4064c:	dc402015 	stw	r17,128(sp)
   40650:	dc001f15 	stw	r16,124(sp)
   40654:	df002704 	addi	fp,sp,156
   40658:	e13fe515 	stw	r4,-108(fp)
   4065c:	e17fe615 	stw	r5,-104(fp)
   40660:	e1bfe715 	stw	r6,-100(fp)
   40664:	e1ffe815 	stw	r7,-96(fp)
   40668:	00800134 	movhi	r2,4
   4066c:	10885004 	addi	r2,r2,8512
   40670:	e0bfef15 	stw	r2,-68(fp)
   40674:	008001b4 	movhi	r2,6
   40678:	10bdcc04 	addi	r2,r2,-2256
   4067c:	e0bff015 	stw	r2,-64(fp)
   40680:	e0bff104 	addi	r2,fp,-60
   40684:	e0ffda04 	addi	r3,fp,-152
   40688:	10c00015 	stw	r3,0(r2)
   4068c:	00c00134 	movhi	r3,4
   40690:	18c1ce04 	addi	r3,r3,1848
   40694:	10c00115 	stw	r3,4(r2)
   40698:	16c00215 	stw	sp,8(r2)
   4069c:	e0bfe904 	addi	r2,fp,-92
   406a0:	1009883a 	mov	r4,r2
   406a4:	004393c0 	call	4393c <_Unwind_SjLj_Register>

	bool bOK = false;
   406a8:	e03fda05 	stb	zero,-152(fp)
	char szInquire[30];
	sprintf(szInquire,"AT+INQM=%d,%d,%d\r\n",mode,NumDevice,time);
   406ac:	e0ffdd04 	addi	r3,fp,-140
   406b0:	e0800217 	ldw	r2,8(fp)
   406b4:	d8800015 	stw	r2,0(sp)
   406b8:	e1ffe817 	ldw	r7,-96(fp)
   406bc:	e1bfe717 	ldw	r6,-100(fp)
   406c0:	014001b4 	movhi	r5,6
   406c4:	297dec04 	addi	r5,r5,-2128
   406c8:	1809883a 	mov	r4,r3
   406cc:	0044b240 	call	44b24 <sprintf>
	bOK = SetupSend(Uart,szInquire);
   406d0:	e0bfdb04 	addi	r2,fp,-148
   406d4:	e17fe617 	ldw	r5,-104(fp)
   406d8:	1009883a 	mov	r4,r2
   406dc:	0040c880 	call	40c88 <_ZN5CUartC1ERKS_>
   406e0:	e13fdd04 	addi	r4,fp,-140
   406e4:	e0ffdb04 	addi	r3,fp,-148
   406e8:	00800044 	movi	r2,1
   406ec:	e0bfea15 	stw	r2,-88(fp)
   406f0:	200d883a 	mov	r6,r4
   406f4:	180b883a 	mov	r5,r3
   406f8:	e13fe517 	ldw	r4,-108(fp)
   406fc:	00404e80 	call	404e8 <_ZN5CHC059SetupSendE5CUartPc>
   40700:	e0bfda05 	stb	r2,-152(fp)
   40704:	e0ffdb04 	addi	r3,fp,-148
   40708:	00bfffc4 	movi	r2,-1
   4070c:	e0bfea15 	stw	r2,-88(fp)
   40710:	1809883a 	mov	r4,r3
   40714:	0040d0c0 	call	40d0c <_ZN5CUartD1Ev>
	if(bOK)
   40718:	e0bfda03 	ldbu	r2,-152(fp)
   4071c:	10000326 	beq	r2,zero,4072c <_ZN5CHC0516SetInquireDeviceE5CUartiii+0x104>
		printf("Set Inquire OK\r\n");
   40720:	010001b4 	movhi	r4,6
   40724:	213df104 	addi	r4,r4,-2108
   40728:	00446f40 	call	446f4 <puts>


	return bOK;
   4072c:	e0bfda03 	ldbu	r2,-152(fp)
   40730:	e0bff605 	stb	r2,-40(fp)
   40734:	00000c06 	br	40768 <_ZN5CHC0516SetInquireDeviceE5CUartiii+0x140>
   40738:	e7002604 	addi	fp,fp,152
   4073c:	e0bfeb17 	ldw	r2,-84(fp)
   40740:	e0bff715 	stw	r2,-36(fp)
bool  CHC05::SetInquireDevice(CUart Uart,int mode,int NumDevice,int time){

	bool bOK = false;
	char szInquire[30];
	sprintf(szInquire,"AT+INQM=%d,%d,%d\r\n",mode,NumDevice,time);
	bOK = SetupSend(Uart,szInquire);
   40744:	e0bfdb04 	addi	r2,fp,-148
   40748:	e03fea15 	stw	zero,-88(fp)
   4074c:	1009883a 	mov	r4,r2
   40750:	0040d0c0 	call	40d0c <_ZN5CUartD1Ev>
   40754:	e0fff717 	ldw	r3,-36(fp)
   40758:	00bfffc4 	movi	r2,-1
   4075c:	e0bfea15 	stw	r2,-88(fp)
   40760:	1809883a 	mov	r4,r3
   40764:	0043b380 	call	43b38 <_Unwind_SjLj_Resume>
   40768:	e0bfe904 	addi	r2,fp,-92
   4076c:	1009883a 	mov	r4,r2
   40770:	00439540 	call	43954 <_Unwind_SjLj_Unregister>
	if(bOK)
		printf("Set Inquire OK\r\n");


	return bOK;
}
   40774:	e0bff603 	ldbu	r2,-40(fp)
   40778:	e6fff804 	addi	sp,fp,-32
   4077c:	dfc00917 	ldw	ra,36(sp)
   40780:	df000817 	ldw	fp,32(sp)
   40784:	ddc00717 	ldw	r23,28(sp)
   40788:	dd800617 	ldw	r22,24(sp)
   4078c:	dd400517 	ldw	r21,20(sp)
   40790:	dd000417 	ldw	r20,16(sp)
   40794:	dcc00317 	ldw	r19,12(sp)
   40798:	dc800217 	ldw	r18,8(sp)
   4079c:	dc400117 	ldw	r17,4(sp)
   407a0:	dc000017 	ldw	r16,0(sp)
   407a4:	dec00a04 	addi	sp,sp,40
   407a8:	f800283a 	ret

000407ac <_ZN5CHC0511GetNameListE5CUartPc>:

bool CHC05::GetNameList(CUart Uart, char *cmd){
   407ac:	deffed04 	addi	sp,sp,-76
   407b0:	dfc01215 	stw	ra,72(sp)
   407b4:	df001115 	stw	fp,68(sp)
   407b8:	df001104 	addi	fp,sp,68
   407bc:	e13ffd15 	stw	r4,-12(fp)
   407c0:	e17ffe15 	stw	r5,-8(fp)
   407c4:	e1bfff15 	stw	r6,-4(fp)

	bool bFindOK=false;
   407c8:	e03ff005 	stb	zero,-64(fp)
    alt_u32 timeout;
    int i=0;
   407cc:	e03ff115 	stw	zero,-60(fp)
   407d0:	d0e73417 	ldw	r3,-25392(gp)
 * Obtain the system clock rate in ticks/s. 
 */

static ALT_INLINE alt_u32 ALT_ALWAYS_INLINE alt_ticks_per_second (void)
{
  return _alt_tick_rate;
   407d4:	d0a73317 	ldw	r2,-25396(gp)
	int  nReadLen;
    char szData[35];
    timeout = alt_nticks() + (alt_ticks_per_second()*5);
   407d8:	10800164 	muli	r2,r2,5
   407dc:	1885883a 	add	r2,r3,r2
   407e0:	e0bff215 	stw	r2,-56(fp)
    Uart.WriteString(cmd);
   407e4:	e17fff17 	ldw	r5,-4(fp)
   407e8:	e13ffe17 	ldw	r4,-8(fp)
   407ec:	0040f1c0 	call	40f1c <_ZN5CUart11WriteStringEPc>
    while(!bFindOK){
   407f0:	e0bff003 	ldbu	r2,-64(fp)
   407f4:	1000251e 	bne	r2,zero,4088c <_ZN5CHC0511GetNameListE5CUartPc+0xe0>
    	if(CommandRead(Uart, szData, sizeof(szData), &nReadLen)){
   407f8:	010008c4 	movi	r4,35
   407fc:	e0fff404 	addi	r3,fp,-48
   40800:	e0bff304 	addi	r2,fp,-52
   40804:	d8800015 	stw	r2,0(sp)
   40808:	200f883a 	mov	r7,r4
   4080c:	180d883a 	mov	r6,r3
   40810:	e17ffe17 	ldw	r5,-8(fp)
   40814:	e13ffd17 	ldw	r4,-12(fp)
   40818:	00403500 	call	40350 <_ZN5CHC0511CommandReadER5CUartPciPi>
   4081c:	10803fcc 	andi	r2,r2,255
   40820:	10001026 	beq	r2,zero,40864 <_ZN5CHC0511GetNameListE5CUartPc+0xb8>
    		szData[nReadLen] = 0;
   40824:	e0bff317 	ldw	r2,-52(fp)
   40828:	e0fff404 	addi	r3,fp,-48
   4082c:	1885883a 	add	r2,r3,r2
   40830:	10000005 	stb	zero,0(r2)
    		if(!(strcmp(szData,"OK\r\n"))){
   40834:	e0bff404 	addi	r2,fp,-48
   40838:	014001b4 	movhi	r5,6
   4083c:	297de704 	addi	r5,r5,-2148
   40840:	1009883a 	mov	r4,r2
   40844:	0044dc00 	call	44dc0 <strcmp>
   40848:	1000031e 	bne	r2,zero,40858 <_ZN5CHC0511GetNameListE5CUartPc+0xac>
    			 bFindOK = true;
   4084c:	00800044 	movi	r2,1
   40850:	e0bff005 	stb	r2,-64(fp)
   40854:	00000306 	br	40864 <_ZN5CHC0511GetNameListE5CUartPc+0xb8>
    		}else
    			printf("%s\n",szData);
   40858:	e0bff404 	addi	r2,fp,-48
   4085c:	1009883a 	mov	r4,r2
   40860:	00446f40 	call	446f4 <puts>
 * alt_nticks() returns the elapsed number of system clock ticks since reset.
 */

static ALT_INLINE alt_u32 ALT_ALWAYS_INLINE alt_nticks (void)
{
  return _alt_nticks;
   40864:	d0a73417 	ldw	r2,-25392(gp)

    	}

  	   if(alt_nticks() > timeout){
   40868:	e0fff217 	ldw	r3,-56(fp)
   4086c:	1885803a 	cmpltu	r2,r3,r2
   40870:	10803fcc 	andi	r2,r2,255
   40874:	103fde26 	beq	r2,zero,407f0 <_gp+0xfffd6908>
  		  printf("Time Out\n");
   40878:	010001b4 	movhi	r4,6
   4087c:	213de904 	addi	r4,r4,-2140
   40880:	00446f40 	call	446f4 <puts>
  		  return false;
   40884:	0005883a 	mov	r2,zero
   40888:	00000106 	br	40890 <_ZN5CHC0511GetNameListE5CUartPc+0xe4>
  	  }
    }
	return bFindOK;
   4088c:	e0bff003 	ldbu	r2,-64(fp)
}
   40890:	e037883a 	mov	sp,fp
   40894:	dfc00117 	ldw	ra,4(sp)
   40898:	df000017 	ldw	fp,0(sp)
   4089c:	dec00204 	addi	sp,sp,8
   408a0:	f800283a 	ret

000408a4 <_ZN5CHC0510DeviceListE5CUartPcPS1_>:



bool CHC05::DeviceList(CUart Uart, char *cmd, char **szDeviceData){
   408a4:	deffb204 	addi	sp,sp,-312
   408a8:	dfc04d15 	stw	ra,308(sp)
   408ac:	df004c15 	stw	fp,304(sp)
   408b0:	df004c04 	addi	fp,sp,304
   408b4:	e13ffc15 	stw	r4,-16(fp)
   408b8:	e17ffd15 	stw	r5,-12(fp)
   408bc:	e1bffe15 	stw	r6,-8(fp)
   408c0:	e1ffff15 	stw	r7,-4(fp)
	bool bFindOK=false;
   408c4:	e03fb505 	stb	zero,-300(fp)
	int  nReadLen;
    char szData[36];
    alt_u32 count=0;
   408c8:	e03fb615 	stw	zero,-296(fp)
   408cc:	d0e73417 	ldw	r3,-25392(gp)
 * Obtain the system clock rate in ticks/s. 
 */

static ALT_INLINE alt_u32 ALT_ALWAYS_INLINE alt_ticks_per_second (void)
{
  return _alt_tick_rate;
   408d0:	d0a73317 	ldw	r2,-25396(gp)
    alt_u32 timeout;
    char Address1[9][8],Address2[9][8],Address3[9][8];
    timeout = alt_nticks() + (alt_ticks_per_second()*30);
   408d4:	108007a4 	muli	r2,r2,30
   408d8:	1885883a 	add	r2,r3,r2
   408dc:	e0bfbb15 	stw	r2,-276(fp)

	Uart.WriteString(cmd);
   408e0:	e17ffe17 	ldw	r5,-8(fp)
   408e4:	e13ffd17 	ldw	r4,-12(fp)
   408e8:	0040f1c0 	call	40f1c <_ZN5CUart11WriteStringEPc>
	while(!bFindOK){
   408ec:	e0bfb503 	ldbu	r2,-300(fp)
   408f0:	10006c1e 	bne	r2,zero,40aa4 <_ZN5CHC0510DeviceListE5CUartPcPS1_+0x200>
	  if(CommandRead(Uart, szData, sizeof(szData), &nReadLen)){
   408f4:	01000904 	movi	r4,36
   408f8:	e0ffbd04 	addi	r3,fp,-268
   408fc:	e0bfbc04 	addi	r2,fp,-272
   40900:	d8800015 	stw	r2,0(sp)
   40904:	200f883a 	mov	r7,r4
   40908:	180d883a 	mov	r6,r3
   4090c:	e17ffd17 	ldw	r5,-12(fp)
   40910:	e13ffc17 	ldw	r4,-16(fp)
   40914:	00403500 	call	40350 <_ZN5CHC0511CommandReadER5CUartPciPi>
   40918:	10803fcc 	andi	r2,r2,255
   4091c:	10005726 	beq	r2,zero,40a7c <_ZN5CHC0510DeviceListE5CUartPcPS1_+0x1d8>
	      szData[nReadLen] = 0;
   40920:	e0bfbc17 	ldw	r2,-272(fp)
   40924:	e0ffbd04 	addi	r3,fp,-268
   40928:	1885883a 	add	r2,r3,r2
   4092c:	10000005 	stb	zero,0(r2)
		  if(!(strcmp(szData, "OK\r\n"))){
   40930:	e0bfbd04 	addi	r2,fp,-268
   40934:	014001b4 	movhi	r5,6
   40938:	297de704 	addi	r5,r5,-2148
   4093c:	1009883a 	mov	r4,r2
   40940:	0044dc00 	call	44dc0 <strcmp>
   40944:	1000081e 	bne	r2,zero,40968 <_ZN5CHC0510DeviceListE5CUartPcPS1_+0xc4>
			  bFindOK = true;
   40948:	00800044 	movi	r2,1
   4094c:	e0bfb505 	stb	r2,-300(fp)
			  printf("HC05:%s\n",szData);
   40950:	e0bfbd04 	addi	r2,fp,-268
   40954:	100b883a 	mov	r5,r2
   40958:	010001b4 	movhi	r4,6
   4095c:	213df504 	addi	r4,r4,-2092
   40960:	00445f80 	call	445f8 <printf>
   40964:	00004506 	br	40a7c <_ZN5CHC0510DeviceListE5CUartPcPS1_+0x1d8>
		  }
		  else{
	        printf("HC05:%s\n",szData);
   40968:	e0bfbd04 	addi	r2,fp,-268
   4096c:	100b883a 	mov	r5,r2
   40970:	010001b4 	movhi	r4,6
   40974:	213df504 	addi	r4,r4,-2092
   40978:	00445f80 	call	445f8 <printf>
            strcpy(szDeviceData[count],szData);
   4097c:	e0bfb617 	ldw	r2,-296(fp)
   40980:	1085883a 	add	r2,r2,r2
   40984:	1085883a 	add	r2,r2,r2
   40988:	1007883a 	mov	r3,r2
   4098c:	e0bfff17 	ldw	r2,-4(fp)
   40990:	10c5883a 	add	r2,r2,r3
   40994:	10800017 	ldw	r2,0(r2)
   40998:	e0ffbd04 	addi	r3,fp,-268
   4099c:	180b883a 	mov	r5,r3
   409a0:	1009883a 	mov	r4,r2
   409a4:	0044e9c0 	call	44e9c <strcpy>
            sscanf(szDeviceData[count],"+INQ:%[^:]:%[^:]:%[^,],%[^,],%s",Address1[count],Address2[count],Address3[count]);
   409a8:	e0bfb617 	ldw	r2,-296(fp)
   409ac:	1085883a 	add	r2,r2,r2
   409b0:	1085883a 	add	r2,r2,r2
   409b4:	1007883a 	mov	r3,r2
   409b8:	e0bfff17 	ldw	r2,-4(fp)
   409bc:	10c5883a 	add	r2,r2,r3
   409c0:	11000017 	ldw	r4,0(r2)
   409c4:	e0ffc604 	addi	r3,fp,-232
   409c8:	e0bfb617 	ldw	r2,-296(fp)
   409cc:	100490fa 	slli	r2,r2,3
   409d0:	188b883a 	add	r5,r3,r2
   409d4:	e0ffd804 	addi	r3,fp,-160
   409d8:	e0bfb617 	ldw	r2,-296(fp)
   409dc:	100490fa 	slli	r2,r2,3
   409e0:	188d883a 	add	r6,r3,r2
   409e4:	e0ffea04 	addi	r3,fp,-88
   409e8:	e0bfb617 	ldw	r2,-296(fp)
   409ec:	100490fa 	slli	r2,r2,3
   409f0:	1885883a 	add	r2,r3,r2
   409f4:	d8800015 	stw	r2,0(sp)
   409f8:	300f883a 	mov	r7,r6
   409fc:	280d883a 	mov	r6,r5
   40a00:	014001b4 	movhi	r5,6
   40a04:	297df804 	addi	r5,r5,-2080
   40a08:	0044b900 	call	44b90 <sscanf>
            sprintf(szDeviceData[count],"%s,%s,%s",Address1[count],Address2[count],Address3[count]);
   40a0c:	e0bfb617 	ldw	r2,-296(fp)
   40a10:	1085883a 	add	r2,r2,r2
   40a14:	1085883a 	add	r2,r2,r2
   40a18:	1007883a 	mov	r3,r2
   40a1c:	e0bfff17 	ldw	r2,-4(fp)
   40a20:	10c5883a 	add	r2,r2,r3
   40a24:	11000017 	ldw	r4,0(r2)
   40a28:	e0ffc604 	addi	r3,fp,-232
   40a2c:	e0bfb617 	ldw	r2,-296(fp)
   40a30:	100490fa 	slli	r2,r2,3
   40a34:	188b883a 	add	r5,r3,r2
   40a38:	e0ffd804 	addi	r3,fp,-160
   40a3c:	e0bfb617 	ldw	r2,-296(fp)
   40a40:	100490fa 	slli	r2,r2,3
   40a44:	188d883a 	add	r6,r3,r2
   40a48:	e0ffea04 	addi	r3,fp,-88
   40a4c:	e0bfb617 	ldw	r2,-296(fp)
   40a50:	100490fa 	slli	r2,r2,3
   40a54:	1885883a 	add	r2,r3,r2
   40a58:	d8800015 	stw	r2,0(sp)
   40a5c:	300f883a 	mov	r7,r6
   40a60:	280d883a 	mov	r6,r5
   40a64:	014001b4 	movhi	r5,6
   40a68:	297e0004 	addi	r5,r5,-2048
   40a6c:	0044b240 	call	44b24 <sprintf>
            count++;
   40a70:	e0bfb617 	ldw	r2,-296(fp)
   40a74:	10800044 	addi	r2,r2,1
   40a78:	e0bfb615 	stw	r2,-296(fp)
 * alt_nticks() returns the elapsed number of system clock ticks since reset.
 */

static ALT_INLINE alt_u32 ALT_ALWAYS_INLINE alt_nticks (void)
{
  return _alt_nticks;
   40a7c:	d0a73417 	ldw	r2,-25392(gp)
		  }
	  }

	  if(alt_nticks() > timeout){
   40a80:	e0ffbb17 	ldw	r3,-276(fp)
   40a84:	1885803a 	cmpltu	r2,r3,r2
   40a88:	10803fcc 	andi	r2,r2,255
   40a8c:	103f9726 	beq	r2,zero,408ec <_gp+0xfffd6a04>
		  printf("Time Out\n");
   40a90:	010001b4 	movhi	r4,6
   40a94:	213de904 	addi	r4,r4,-2140
   40a98:	00446f40 	call	446f4 <puts>
		  return false;
   40a9c:	0005883a 	mov	r2,zero
   40aa0:	00007406 	br	40c74 <_ZN5CHC0510DeviceListE5CUartPcPS1_+0x3d0>
	  }
	}
	if(bFindOK){
   40aa4:	e0bfb503 	ldbu	r2,-300(fp)
   40aa8:	10007126 	beq	r2,zero,40c70 <_ZN5CHC0510DeviceListE5CUartPcPS1_+0x3cc>
	      for(int j=0;j<=8;j++){
   40aac:	e03fb715 	stw	zero,-292(fp)
   40ab0:	e0bfb717 	ldw	r2,-292(fp)
   40ab4:	10800248 	cmpgei	r2,r2,9
   40ab8:	1000291e 	bne	r2,zero,40b60 <_ZN5CHC0510DeviceListE5CUartPcPS1_+0x2bc>
	          for(int i=0;i<=8;i++){
   40abc:	e03fb815 	stw	zero,-288(fp)
   40ac0:	e0bfb817 	ldw	r2,-288(fp)
   40ac4:	10800248 	cmpgei	r2,r2,9
   40ac8:	1000211e 	bne	r2,zero,40b50 <_ZN5CHC0510DeviceListE5CUartPcPS1_+0x2ac>
	        	  if(i!=j){
   40acc:	e0ffb817 	ldw	r3,-288(fp)
   40ad0:	e0bfb717 	ldw	r2,-292(fp)
   40ad4:	18801a26 	beq	r3,r2,40b40 <_ZN5CHC0510DeviceListE5CUartPcPS1_+0x29c>
	    	        if(!strcmp(szDeviceData[j],szDeviceData[i])){
   40ad8:	e0bfb717 	ldw	r2,-292(fp)
   40adc:	1085883a 	add	r2,r2,r2
   40ae0:	1085883a 	add	r2,r2,r2
   40ae4:	1007883a 	mov	r3,r2
   40ae8:	e0bfff17 	ldw	r2,-4(fp)
   40aec:	10c5883a 	add	r2,r2,r3
   40af0:	10c00017 	ldw	r3,0(r2)
   40af4:	e0bfb817 	ldw	r2,-288(fp)
   40af8:	1085883a 	add	r2,r2,r2
   40afc:	1085883a 	add	r2,r2,r2
   40b00:	1009883a 	mov	r4,r2
   40b04:	e0bfff17 	ldw	r2,-4(fp)
   40b08:	1105883a 	add	r2,r2,r4
   40b0c:	10800017 	ldw	r2,0(r2)
   40b10:	100b883a 	mov	r5,r2
   40b14:	1809883a 	mov	r4,r3
   40b18:	0044dc00 	call	44dc0 <strcmp>
   40b1c:	1000081e 	bne	r2,zero,40b40 <_ZN5CHC0510DeviceListE5CUartPcPS1_+0x29c>
	    	        	szDeviceData[i][0]='\0';
   40b20:	e0bfb817 	ldw	r2,-288(fp)
   40b24:	1085883a 	add	r2,r2,r2
   40b28:	1085883a 	add	r2,r2,r2
   40b2c:	1007883a 	mov	r3,r2
   40b30:	e0bfff17 	ldw	r2,-4(fp)
   40b34:	10c5883a 	add	r2,r2,r3
   40b38:	10800017 	ldw	r2,0(r2)
   40b3c:	10000005 	stb	zero,0(r2)
		  return false;
	  }
	}
	if(bFindOK){
	      for(int j=0;j<=8;j++){
	          for(int i=0;i<=8;i++){
   40b40:	e0bfb817 	ldw	r2,-288(fp)
   40b44:	10800044 	addi	r2,r2,1
   40b48:	e0bfb815 	stw	r2,-288(fp)
   40b4c:	003fdc06 	br	40ac0 <_gp+0xfffd6bd8>
		  printf("Time Out\n");
		  return false;
	  }
	}
	if(bFindOK){
	      for(int j=0;j<=8;j++){
   40b50:	e0bfb717 	ldw	r2,-292(fp)
   40b54:	10800044 	addi	r2,r2,1
   40b58:	e0bfb715 	stw	r2,-292(fp)
   40b5c:	003fd406 	br	40ab0 <_gp+0xfffd6bc8>
	    	        }
	        	  }
	          }
	      }

	      for(int i=0;i<=8;i++){
   40b60:	e03fb915 	stw	zero,-284(fp)
   40b64:	e0bfb917 	ldw	r2,-284(fp)
   40b68:	10800248 	cmpgei	r2,r2,9
   40b6c:	1000401e 	bne	r2,zero,40c70 <_ZN5CHC0510DeviceListE5CUartPcPS1_+0x3cc>
	          for(int j=0;j<=8;j++){
   40b70:	e03fba15 	stw	zero,-280(fp)
   40b74:	e0bfba17 	ldw	r2,-280(fp)
   40b78:	10800248 	cmpgei	r2,r2,9
   40b7c:	1000381e 	bne	r2,zero,40c60 <_ZN5CHC0510DeviceListE5CUartPcPS1_+0x3bc>
	        	  if(i<j){
   40b80:	e0ffb917 	ldw	r3,-284(fp)
   40b84:	e0bfba17 	ldw	r2,-280(fp)
   40b88:	1880310e 	bge	r3,r2,40c50 <_ZN5CHC0510DeviceListE5CUartPcPS1_+0x3ac>
	    	        if(szDeviceData[i][0]=='\0' && szDeviceData[j][0]!='\0'){
   40b8c:	e0bfb917 	ldw	r2,-284(fp)
   40b90:	1085883a 	add	r2,r2,r2
   40b94:	1085883a 	add	r2,r2,r2
   40b98:	1007883a 	mov	r3,r2
   40b9c:	e0bfff17 	ldw	r2,-4(fp)
   40ba0:	10c5883a 	add	r2,r2,r3
   40ba4:	10800017 	ldw	r2,0(r2)
   40ba8:	10800003 	ldbu	r2,0(r2)
   40bac:	10803fcc 	andi	r2,r2,255
   40bb0:	1080201c 	xori	r2,r2,128
   40bb4:	10bfe004 	addi	r2,r2,-128
   40bb8:	1000251e 	bne	r2,zero,40c50 <_ZN5CHC0510DeviceListE5CUartPcPS1_+0x3ac>
   40bbc:	e0bfba17 	ldw	r2,-280(fp)
   40bc0:	1085883a 	add	r2,r2,r2
   40bc4:	1085883a 	add	r2,r2,r2
   40bc8:	1007883a 	mov	r3,r2
   40bcc:	e0bfff17 	ldw	r2,-4(fp)
   40bd0:	10c5883a 	add	r2,r2,r3
   40bd4:	10800017 	ldw	r2,0(r2)
   40bd8:	10800003 	ldbu	r2,0(r2)
   40bdc:	10803fcc 	andi	r2,r2,255
   40be0:	1080201c 	xori	r2,r2,128
   40be4:	10bfe004 	addi	r2,r2,-128
   40be8:	10001926 	beq	r2,zero,40c50 <_ZN5CHC0510DeviceListE5CUartPcPS1_+0x3ac>
	    	        	 strcpy(szDeviceData[i],szDeviceData[j]);
   40bec:	e0bfb917 	ldw	r2,-284(fp)
   40bf0:	1085883a 	add	r2,r2,r2
   40bf4:	1085883a 	add	r2,r2,r2
   40bf8:	1007883a 	mov	r3,r2
   40bfc:	e0bfff17 	ldw	r2,-4(fp)
   40c00:	10c5883a 	add	r2,r2,r3
   40c04:	10c00017 	ldw	r3,0(r2)
   40c08:	e0bfba17 	ldw	r2,-280(fp)
   40c0c:	1085883a 	add	r2,r2,r2
   40c10:	1085883a 	add	r2,r2,r2
   40c14:	1009883a 	mov	r4,r2
   40c18:	e0bfff17 	ldw	r2,-4(fp)
   40c1c:	1105883a 	add	r2,r2,r4
   40c20:	10800017 	ldw	r2,0(r2)
   40c24:	100b883a 	mov	r5,r2
   40c28:	1809883a 	mov	r4,r3
   40c2c:	0044e9c0 	call	44e9c <strcpy>
	    	        	 szDeviceData[j][0]='\0';
   40c30:	e0bfba17 	ldw	r2,-280(fp)
   40c34:	1085883a 	add	r2,r2,r2
   40c38:	1085883a 	add	r2,r2,r2
   40c3c:	1007883a 	mov	r3,r2
   40c40:	e0bfff17 	ldw	r2,-4(fp)
   40c44:	10c5883a 	add	r2,r2,r3
   40c48:	10800017 	ldw	r2,0(r2)
   40c4c:	10000005 	stb	zero,0(r2)
	        	  }
	          }
	      }

	      for(int i=0;i<=8;i++){
	          for(int j=0;j<=8;j++){
   40c50:	e0bfba17 	ldw	r2,-280(fp)
   40c54:	10800044 	addi	r2,r2,1
   40c58:	e0bfba15 	stw	r2,-280(fp)
   40c5c:	003fc506 	br	40b74 <_gp+0xfffd6c8c>
	    	        }
	        	  }
	          }
	      }

	      for(int i=0;i<=8;i++){
   40c60:	e0bfb917 	ldw	r2,-284(fp)
   40c64:	10800044 	addi	r2,r2,1
   40c68:	e0bfb915 	stw	r2,-284(fp)
   40c6c:	003fbd06 	br	40b64 <_gp+0xfffd6c7c>
	    	        }
	        	  }
	          }
	      }
	}
	return bFindOK;
   40c70:	e0bfb503 	ldbu	r2,-300(fp)
}
   40c74:	e037883a 	mov	sp,fp
   40c78:	dfc00117 	ldw	ra,4(sp)
   40c7c:	df000017 	ldw	fp,0(sp)
   40c80:	dec00204 	addi	sp,sp,8
   40c84:	f800283a 	ret

00040c88 <_ZN5CUartC1ERKS_>:
#include "terasic_includes.h"




class CUart {
   40c88:	defffd04 	addi	sp,sp,-12
   40c8c:	df000215 	stw	fp,8(sp)
   40c90:	df000204 	addi	fp,sp,8
   40c94:	e13ffe15 	stw	r4,-8(fp)
   40c98:	e17fff15 	stw	r5,-4(fp)
   40c9c:	008001b4 	movhi	r2,6
   40ca0:	10be0904 	addi	r2,r2,-2012
   40ca4:	e0fffe17 	ldw	r3,-8(fp)
   40ca8:	18800015 	stw	r2,0(r3)
   40cac:	e0bfff17 	ldw	r2,-4(fp)
   40cb0:	10c00117 	ldw	r3,4(r2)
   40cb4:	e0bffe17 	ldw	r2,-8(fp)
   40cb8:	10c00115 	stw	r3,4(r2)
   40cbc:	0001883a 	nop
   40cc0:	e037883a 	mov	sp,fp
   40cc4:	df000017 	ldw	fp,0(sp)
   40cc8:	dec00104 	addi	sp,sp,4
   40ccc:	f800283a 	ret

00040cd0 <_ZN5CUartC1Ev>:
 */
#include "CUart.h"
#include "sys/alt_dev.h"
#include "altera_avalon_uart.h"

CUart::CUart():
   40cd0:	defffe04 	addi	sp,sp,-8
   40cd4:	df000115 	stw	fp,4(sp)
   40cd8:	df000104 	addi	fp,sp,4
   40cdc:	e13fff15 	stw	r4,-4(fp)
	// TODO Auto-generated constructor stub
	UartHandle(0)
   40ce0:	008001b4 	movhi	r2,6
   40ce4:	10be0904 	addi	r2,r2,-2012
   40ce8:	e0ffff17 	ldw	r3,-4(fp)
   40cec:	18800015 	stw	r2,0(r3)
   40cf0:	e0bfff17 	ldw	r2,-4(fp)
   40cf4:	10000115 	stw	zero,4(r2)
{

}
   40cf8:	0001883a 	nop
   40cfc:	e037883a 	mov	sp,fp
   40d00:	df000017 	ldw	fp,0(sp)
   40d04:	dec00104 	addi	sp,sp,4
   40d08:	f800283a 	ret

00040d0c <_ZN5CUartD1Ev>:

CUart::~CUart() {
   40d0c:	defffd04 	addi	sp,sp,-12
   40d10:	dfc00215 	stw	ra,8(sp)
   40d14:	df000115 	stw	fp,4(sp)
   40d18:	df000104 	addi	fp,sp,4
   40d1c:	e13fff15 	stw	r4,-4(fp)
   40d20:	008001b4 	movhi	r2,6
   40d24:	10be0904 	addi	r2,r2,-2012
   40d28:	e0ffff17 	ldw	r3,-4(fp)
   40d2c:	18800015 	stw	r2,0(r3)
	// TODO Auto-generated destructor stub


}
   40d30:	0005883a 	mov	r2,zero
   40d34:	10000226 	beq	r2,zero,40d40 <_ZN5CUartD1Ev+0x34>
   40d38:	e13fff17 	ldw	r4,-4(fp)
   40d3c:	00419880 	call	41988 <_ZdlPv>
   40d40:	e037883a 	mov	sp,fp
   40d44:	dfc00117 	ldw	ra,4(sp)
   40d48:	df000017 	ldw	fp,0(sp)
   40d4c:	dec00204 	addi	sp,sp,8
   40d50:	f800283a 	ret

00040d54 <_ZN5CUartD0Ev>:
	UartHandle(0)
{

}

CUart::~CUart() {
   40d54:	defffd04 	addi	sp,sp,-12
   40d58:	dfc00215 	stw	ra,8(sp)
   40d5c:	df000115 	stw	fp,4(sp)
   40d60:	df000104 	addi	fp,sp,4
   40d64:	e13fff15 	stw	r4,-4(fp)
	// TODO Auto-generated destructor stub


}
   40d68:	e13fff17 	ldw	r4,-4(fp)
   40d6c:	0040d0c0 	call	40d0c <_ZN5CUartD1Ev>
   40d70:	e13fff17 	ldw	r4,-4(fp)
   40d74:	00419880 	call	41988 <_ZdlPv>
   40d78:	e037883a 	mov	sp,fp
   40d7c:	dfc00117 	ldw	ra,4(sp)
   40d80:	df000017 	ldw	fp,0(sp)
   40d84:	dec00204 	addi	sp,sp,8
   40d88:	f800283a 	ret

00040d8c <_ZN5CUart4OpenEPc>:

void CUart::Open(char *pDeviceName)
{
   40d8c:	defffc04 	addi	sp,sp,-16
   40d90:	dfc00315 	stw	ra,12(sp)
   40d94:	df000215 	stw	fp,8(sp)
   40d98:	df000204 	addi	fp,sp,8
   40d9c:	e13ffe15 	stw	r4,-8(fp)
   40da0:	e17fff15 	stw	r5,-4(fp)
	UartHandle = open(pDeviceName, O_ACCMODE); // open file for reading and writing
   40da4:	014000c4 	movi	r5,3
   40da8:	e13fff17 	ldw	r4,-4(fp)
   40dac:	005cbfc0 	call	5cbfc <open>
   40db0:	1007883a 	mov	r3,r2
   40db4:	e0bffe17 	ldw	r2,-8(fp)
   40db8:	10c00115 	stw	r3,4(r2)
}
   40dbc:	0001883a 	nop
   40dc0:	e037883a 	mov	sp,fp
   40dc4:	dfc00117 	ldw	ra,4(sp)
   40dc8:	df000017 	ldw	fp,0(sp)
   40dcc:	dec00204 	addi	sp,sp,8
   40dd0:	f800283a 	ret

00040dd4 <_ZN5CUart5CloseEv>:

void  CUart::Close()
{
   40dd4:	defffd04 	addi	sp,sp,-12
   40dd8:	dfc00215 	stw	ra,8(sp)
   40ddc:	df000115 	stw	fp,4(sp)
   40de0:	df000104 	addi	fp,sp,4
   40de4:	e13fff15 	stw	r4,-4(fp)
    if (UartHandle)
   40de8:	e0bfff17 	ldw	r2,-4(fp)
   40dec:	10800117 	ldw	r2,4(r2)
   40df0:	10000426 	beq	r2,zero,40e04 <_ZN5CUart5CloseEv+0x30>
      close(UartHandle);
   40df4:	e0bfff17 	ldw	r2,-4(fp)
   40df8:	10800117 	ldw	r2,4(r2)
   40dfc:	1009883a 	mov	r4,r2
   40e00:	005c2580 	call	5c258 <close>
}
   40e04:	0001883a 	nop
   40e08:	e037883a 	mov	sp,fp
   40e0c:	dfc00117 	ldw	ra,4(sp)
   40e10:	df000017 	ldw	fp,0(sp)
   40e14:	dec00204 	addi	sp,sp,8
   40e18:	f800283a 	ret

00040e1c <_ZN5CUart4ReadEPciPi>:

bool CUart::Read(char *pBuffer, int nBufferSize, int *prx_len){
   40e1c:	defff804 	addi	sp,sp,-32
   40e20:	dfc00715 	stw	ra,28(sp)
   40e24:	df000615 	stw	fp,24(sp)
   40e28:	df000604 	addi	fp,sp,24
   40e2c:	e13ffc15 	stw	r4,-16(fp)
   40e30:	e17ffd15 	stw	r5,-12(fp)
   40e34:	e1bffe15 	stw	r6,-8(fp)
   40e38:	e1ffff15 	stw	r7,-4(fp)
	int nResult;
    bool bSuccess = FALSE;
   40e3c:	e03ffa05 	stb	zero,-24(fp)
    if (UartHandle){
   40e40:	e0bffc17 	ldw	r2,-16(fp)
   40e44:	10800117 	ldw	r2,4(r2)
   40e48:	10000f26 	beq	r2,zero,40e88 <_ZN5CUart4ReadEPciPi+0x6c>
        nResult = read(UartHandle, pBuffer, nBufferSize);
   40e4c:	e0bffc17 	ldw	r2,-16(fp)
   40e50:	10800117 	ldw	r2,4(r2)
   40e54:	e0fffe17 	ldw	r3,-8(fp)
   40e58:	180d883a 	mov	r6,r3
   40e5c:	e17ffd17 	ldw	r5,-12(fp)
   40e60:	1009883a 	mov	r4,r2
   40e64:	005cd8c0 	call	5cd8c <read>
   40e68:	e0bffb15 	stw	r2,-20(fp)
        if (nResult >= 0){
   40e6c:	e0bffb17 	ldw	r2,-20(fp)
   40e70:	10000516 	blt	r2,zero,40e88 <_ZN5CUart4ReadEPciPi+0x6c>
            *prx_len = nResult;
   40e74:	e0bfff17 	ldw	r2,-4(fp)
   40e78:	e0fffb17 	ldw	r3,-20(fp)
   40e7c:	10c00015 	stw	r3,0(r2)
            bSuccess = TRUE;
   40e80:	00800044 	movi	r2,1
   40e84:	e0bffa05 	stb	r2,-24(fp)
            //if (*prx_len == nBufferSize)
            //    bSuccess = TRUE;
        }
    }
    return bSuccess;
   40e88:	e0bffa03 	ldbu	r2,-24(fp)
}
   40e8c:	e037883a 	mov	sp,fp
   40e90:	dfc00117 	ldw	ra,4(sp)
   40e94:	df000017 	ldw	fp,0(sp)
   40e98:	dec00204 	addi	sp,sp,8
   40e9c:	f800283a 	ret

00040ea0 <_ZN5CUart5WriteEPci>:




bool  CUart::Write(char *pData, int nDataSize)
{
   40ea0:	defffa04 	addi	sp,sp,-24
   40ea4:	dfc00515 	stw	ra,20(sp)
   40ea8:	df000415 	stw	fp,16(sp)
   40eac:	df000404 	addi	fp,sp,16
   40eb0:	e13ffd15 	stw	r4,-12(fp)
   40eb4:	e17ffe15 	stw	r5,-8(fp)
   40eb8:	e1bfff15 	stw	r6,-4(fp)
    bool bSuccess = FALSE;
   40ebc:	e03ffc05 	stb	zero,-16(fp)
    if (UartHandle){
   40ec0:	e0bffd17 	ldw	r2,-12(fp)
   40ec4:	10800117 	ldw	r2,4(r2)
   40ec8:	10000e26 	beq	r2,zero,40f04 <_ZN5CUart5WriteEPci+0x64>
    	// write(UartHandle, pData, nDataSize);
        if (write(UartHandle, pData, nDataSize) == nDataSize)
   40ecc:	e0bffd17 	ldw	r2,-12(fp)
   40ed0:	10800117 	ldw	r2,4(r2)
   40ed4:	e0ffff17 	ldw	r3,-4(fp)
   40ed8:	180d883a 	mov	r6,r3
   40edc:	e17ffe17 	ldw	r5,-8(fp)
   40ee0:	1009883a 	mov	r4,r2
   40ee4:	005d1ac0 	call	5d1ac <write>
   40ee8:	1007883a 	mov	r3,r2
   40eec:	e0bfff17 	ldw	r2,-4(fp)
   40ef0:	1885003a 	cmpeq	r2,r3,r2
   40ef4:	10803fcc 	andi	r2,r2,255
   40ef8:	10000226 	beq	r2,zero,40f04 <_ZN5CUart5WriteEPci+0x64>
            bSuccess = TRUE;
   40efc:	00800044 	movi	r2,1
   40f00:	e0bffc05 	stb	r2,-16(fp)
    }
    return bSuccess;
   40f04:	e0bffc03 	ldbu	r2,-16(fp)
}
   40f08:	e037883a 	mov	sp,fp
   40f0c:	dfc00117 	ldw	ra,4(sp)
   40f10:	df000017 	ldw	fp,0(sp)
   40f14:	dec00204 	addi	sp,sp,8
   40f18:	f800283a 	ret

00040f1c <_ZN5CUart11WriteStringEPc>:


bool CUart::WriteString(char *pString)
{
   40f1c:	defffc04 	addi	sp,sp,-16
   40f20:	dfc00315 	stw	ra,12(sp)
   40f24:	df000215 	stw	fp,8(sp)
   40f28:	df000204 	addi	fp,sp,8
   40f2c:	e13ffe15 	stw	r4,-8(fp)
   40f30:	e17fff15 	stw	r5,-4(fp)
	return CUart::Write(pString, strlen(pString));
   40f34:	e13fff17 	ldw	r4,-4(fp)
   40f38:	0044f2c0 	call	44f2c <strlen>
   40f3c:	100d883a 	mov	r6,r2
   40f40:	e17fff17 	ldw	r5,-4(fp)
   40f44:	e13ffe17 	ldw	r4,-8(fp)
   40f48:	0040ea00 	call	40ea0 <_ZN5CUart5WriteEPci>
}
   40f4c:	e037883a 	mov	sp,fp
   40f50:	dfc00117 	ldw	ra,4(sp)
   40f54:	df000017 	ldw	fp,0(sp)
   40f58:	dec00204 	addi	sp,sp,8
   40f5c:	f800283a 	ret

00040f60 <_ZN5CUart16NoneBlockingReadEPciPi>:

bool CUart::NoneBlockingRead(char *pBuffer, int nBufferSize, int *prx_len){
   40f60:	defff904 	addi	sp,sp,-28
   40f64:	dfc00615 	stw	ra,24(sp)
   40f68:	df000515 	stw	fp,20(sp)
   40f6c:	df000504 	addi	fp,sp,20
   40f70:	e13ffc15 	stw	r4,-16(fp)
   40f74:	e17ffd15 	stw	r5,-12(fp)
   40f78:	e1bffe15 	stw	r6,-8(fp)
   40f7c:	e1ffff15 	stw	r7,-4(fp)
    bool bSuccess;
    fcntl(UartHandle, F_SETFL, O_ACCMODE | O_NONBLOCK);
   40f80:	e0bffc17 	ldw	r2,-16(fp)
   40f84:	10800117 	ldw	r2,4(r2)
   40f88:	019000c4 	movi	r6,16387
   40f8c:	01400104 	movi	r5,4
   40f90:	1009883a 	mov	r4,r2
   40f94:	005c3c40 	call	5c3c4 <fcntl>
    bSuccess = CUart::Read(pBuffer, nBufferSize, prx_len);
   40f98:	e1ffff17 	ldw	r7,-4(fp)
   40f9c:	e1bffe17 	ldw	r6,-8(fp)
   40fa0:	e17ffd17 	ldw	r5,-12(fp)
   40fa4:	e13ffc17 	ldw	r4,-16(fp)
   40fa8:	0040e1c0 	call	40e1c <_ZN5CUart4ReadEPciPi>
   40fac:	e0bffb05 	stb	r2,-20(fp)
    fcntl(UartHandle, F_SETFL, O_ACCMODE);
   40fb0:	e0bffc17 	ldw	r2,-16(fp)
   40fb4:	10800117 	ldw	r2,4(r2)
   40fb8:	018000c4 	movi	r6,3
   40fbc:	01400104 	movi	r5,4
   40fc0:	1009883a 	mov	r4,r2
   40fc4:	005c3c40 	call	5c3c4 <fcntl>
    return bSuccess;
   40fc8:	e0bffb03 	ldbu	r2,-20(fp)
}
   40fcc:	e037883a 	mov	sp,fp
   40fd0:	dfc00117 	ldw	ra,4(sp)
   40fd4:	df000017 	ldw	fp,0(sp)
   40fd8:	dec00204 	addi	sp,sp,8
   40fdc:	f800283a 	ret

00040fe0 <_ZN5CUart15ReadWithTimeoutEPhtPtm>:


bool CUart::ReadWithTimeout(alt_u8 *pBuffer, alt_u16 nBufferSize, alt_u16 *prx_len, alt_u32 timeout){
   40fe0:	defff504 	addi	sp,sp,-44
   40fe4:	dfc00a15 	stw	ra,40(sp)
   40fe8:	df000915 	stw	fp,36(sp)
   40fec:	df000904 	addi	fp,sp,36
   40ff0:	e13ffc15 	stw	r4,-16(fp)
   40ff4:	e17ffd15 	stw	r5,-12(fp)
   40ff8:	3005883a 	mov	r2,r6
   40ffc:	e1ffff15 	stw	r7,-4(fp)
   41000:	e0bffe0d 	sth	r2,-8(fp)
    bool bSuccess = FALSE;
   41004:	e03ff705 	stb	zero,-36(fp)
    if (UartHandle){
   41008:	e0bffc17 	ldw	r2,-16(fp)
   4100c:	10800117 	ldw	r2,4(r2)
   41010:	10002f26 	beq	r2,zero,410d0 <_ZN5CUart15ReadWithTimeoutEPhtPtm+0xf0>
        int rx_total_cnt = 0, rx_cnt;
   41014:	e03ff815 	stw	zero,-32(fp)
        alt_u32 time_start;
        bool bTimeout = FALSE;
   41018:	e03ff905 	stb	zero,-28(fp)
   4101c:	d0a73417 	ldw	r2,-25392(gp)
        time_start = alt_nticks();
   41020:	e0bffa15 	stw	r2,-24(fp)
        while(!bSuccess && !bTimeout){
   41024:	e0bff703 	ldbu	r2,-36(fp)
   41028:	1000251e 	bne	r2,zero,410c0 <_ZN5CUart15ReadWithTimeoutEPhtPtm+0xe0>
   4102c:	e0bff903 	ldbu	r2,-28(fp)
   41030:	1000231e 	bne	r2,zero,410c0 <_ZN5CUart15ReadWithTimeoutEPhtPtm+0xe0>
        	NoneBlockingRead((char *)pBuffer+rx_total_cnt, nBufferSize-rx_total_cnt, &rx_cnt);
   41034:	e0bff817 	ldw	r2,-32(fp)
   41038:	e0fffd17 	ldw	r3,-12(fp)
   4103c:	1889883a 	add	r4,r3,r2
   41040:	e0fffe0b 	ldhu	r3,-8(fp)
   41044:	e0bff817 	ldw	r2,-32(fp)
   41048:	1885c83a 	sub	r2,r3,r2
   4104c:	e0fffb04 	addi	r3,fp,-20
   41050:	180f883a 	mov	r7,r3
   41054:	100d883a 	mov	r6,r2
   41058:	200b883a 	mov	r5,r4
   4105c:	e13ffc17 	ldw	r4,-16(fp)
   41060:	0040f600 	call	40f60 <_ZN5CUart16NoneBlockingReadEPciPi>
            //rx_cnt = read(pUart, pBuffer+rx_total_cnt, nBufferSize-rx_total_cnt);
            rx_total_cnt += rx_cnt;
   41064:	e0bffb17 	ldw	r2,-20(fp)
   41068:	e0fff817 	ldw	r3,-32(fp)
   4106c:	1885883a 	add	r2,r3,r2
   41070:	e0bff815 	stw	r2,-32(fp)
            if (rx_total_cnt == nBufferSize)
   41074:	e0fffe0b 	ldhu	r3,-8(fp)
   41078:	e0bff817 	ldw	r2,-32(fp)
   4107c:	1880031e 	bne	r3,r2,4108c <_ZN5CUart15ReadWithTimeoutEPhtPtm+0xac>
                bSuccess = TRUE;
   41080:	00800044 	movi	r2,1
   41084:	e0bff705 	stb	r2,-36(fp)
   41088:	003fe606 	br	41024 <_gp+0xfffd713c>
   4108c:	d0e73417 	ldw	r3,-25392(gp)
            else if ((alt_nticks() - time_start) > timeout)
   41090:	e0bffa17 	ldw	r2,-24(fp)
   41094:	1885c83a 	sub	r2,r3,r2
   41098:	e0c00217 	ldw	r3,8(fp)
   4109c:	1885803a 	cmpltu	r2,r3,r2
   410a0:	10803fcc 	andi	r2,r2,255
   410a4:	10000326 	beq	r2,zero,410b4 <_ZN5CUart15ReadWithTimeoutEPhtPtm+0xd4>
                bTimeout = TRUE;
   410a8:	00800044 	movi	r2,1
   410ac:	e0bff905 	stb	r2,-28(fp)
   410b0:	003fdc06 	br	41024 <_gp+0xfffd713c>
            else
                usleep(1);
   410b4:	01000044 	movi	r4,1
   410b8:	005d1400 	call	5d140 <usleep>
    if (UartHandle){
        int rx_total_cnt = 0, rx_cnt;
        alt_u32 time_start;
        bool bTimeout = FALSE;
        time_start = alt_nticks();
        while(!bSuccess && !bTimeout){
   410bc:	003fd906 	br	41024 <_gp+0xfffd713c>
            else if ((alt_nticks() - time_start) > timeout)
                bTimeout = TRUE;
            else
                usleep(1);
        }
        *prx_len = rx_total_cnt;
   410c0:	e0bff817 	ldw	r2,-32(fp)
   410c4:	1007883a 	mov	r3,r2
   410c8:	e0bfff17 	ldw	r2,-4(fp)
   410cc:	10c0000d 	sth	r3,0(r2)
    }
    return bSuccess;
   410d0:	e0bff703 	ldbu	r2,-36(fp)
}
   410d4:	e037883a 	mov	sp,fp
   410d8:	dfc00117 	ldw	ra,4(sp)
   410dc:	df000017 	ldw	fp,0(sp)
   410e0:	dec00204 	addi	sp,sp,8
   410e4:	f800283a 	ret

000410e8 <_Z9SetConfigb>:


const int MaxList = 9;


void SetConfig(bool bEnable){
   410e8:	defffe04 	addi	sp,sp,-8
   410ec:	df000115 	stw	fp,4(sp)
   410f0:	df000104 	addi	fp,sp,4
   410f4:	2005883a 	mov	r2,r4
   410f8:	e0bfff05 	stb	r2,-4(fp)
	IOWR(MODE_CONTROL_BASE,0,bEnable);
   410fc:	e0ffff03 	ldbu	r3,-4(fp)
   41100:	00800234 	movhi	r2,8
   41104:	10841404 	addi	r2,r2,4176
   41108:	10c00035 	stwio	r3,0(r2)
}
   4110c:	0001883a 	nop
   41110:	e037883a 	mov	sp,fp
   41114:	df000017 	ldw	fp,0(sp)
   41118:	dec00104 	addi	sp,sp,4
   4111c:	f800283a 	ret

00041120 <_Z11query_usersv>:

int query_users(void){
   41120:	defffd04 	addi	sp,sp,-12
   41124:	dfc00215 	stw	ra,8(sp)
   41128:	df000115 	stw	fp,4(sp)
   4112c:	df000104 	addi	fp,sp,4
    int nChoice = 0;
   41130:	e03fff15 	stw	zero,-4(fp)
    scanf("%d", &nChoice);
   41134:	e17fff04 	addi	r5,fp,-4
   41138:	010001b4 	movhi	r4,6
   4113c:	213e0b04 	addi	r4,r4,-2004
   41140:	004475c0 	call	4475c <scanf>
    printf("%d\r\n", nChoice);
   41144:	e0bfff17 	ldw	r2,-4(fp)
   41148:	100b883a 	mov	r5,r2
   4114c:	010001b4 	movhi	r4,6
   41150:	213e0c04 	addi	r4,r4,-2000
   41154:	00445f80 	call	445f8 <printf>
    return nChoice;
   41158:	e0bfff17 	ldw	r2,-4(fp)
}
   4115c:	e037883a 	mov	sp,fp
   41160:	dfc00117 	ldw	ra,4(sp)
   41164:	df000017 	ldw	fp,0(sp)
   41168:	dec00204 	addi	sp,sp,8
   4116c:	f800283a 	ret

00041170 <main>:


int main()
{
   41170:	deffaa04 	addi	sp,sp,-344
   41174:	dfc05515 	stw	ra,340(sp)
   41178:	df005415 	stw	fp,336(sp)
   4117c:	ddc05315 	stw	r23,332(sp)
   41180:	dd805215 	stw	r22,328(sp)
   41184:	dd405115 	stw	r21,324(sp)
   41188:	dd005015 	stw	r20,320(sp)
   4118c:	dcc04f15 	stw	r19,316(sp)
   41190:	dc804e15 	stw	r18,312(sp)
   41194:	dc404d15 	stw	r17,308(sp)
   41198:	dc004c15 	stw	r16,304(sp)
   4119c:	df005404 	addi	fp,sp,336
   411a0:	00800134 	movhi	r2,4
   411a4:	10885004 	addi	r2,r2,8512
   411a8:	e0bfe415 	stw	r2,-112(fp)
   411ac:	008001b4 	movhi	r2,6
   411b0:	10bdcd84 	addi	r2,r2,-2250
   411b4:	e0bfe515 	stw	r2,-108(fp)
   411b8:	e0bfe604 	addi	r2,fp,-104
   411bc:	e0ffad04 	addi	r3,fp,-332
   411c0:	10c00015 	stw	r3,0(r2)
   411c4:	00c00134 	movhi	r3,4
   411c8:	18c63f04 	addi	r3,r3,6396
   411cc:	10c00115 	stw	r3,4(r2)
   411d0:	16c00215 	stw	sp,8(r2)
   411d4:	e0bfde04 	addi	r2,fp,-136
   411d8:	1009883a 	mov	r4,r2
   411dc:	004393c0 	call	4393c <_Unwind_SjLj_Register>
	CUart Uart;
   411e0:	e0ffc504 	addi	r3,fp,-236
   411e4:	00bfffc4 	movi	r2,-1
   411e8:	e0bfdf15 	stw	r2,-132(fp)
   411ec:	1809883a 	mov	r4,r3
   411f0:	0040cd00 	call	40cd0 <_ZN5CUartC1Ev>
 	Uart.Open(HC_05_UART_NAME);
   411f4:	e0ffc504 	addi	r3,fp,-236
   411f8:	014001b4 	movhi	r5,6
   411fc:	00800044 	movi	r2,1
   41200:	e0bfdf15 	stw	r2,-132(fp)
   41204:	297e0e04 	addi	r5,r5,-1992
   41208:	1809883a 	mov	r4,r3
   4120c:	0040d8c0 	call	40d8c <_ZN5CUart4OpenEPc>
 	CHC05 HC05;
   41210:	e0bfc704 	addi	r2,fp,-228
   41214:	1009883a 	mov	r4,r2
   41218:	00402900 	call	40290 <_ZN5CHC05C1Ev>

 	char szData[45];
 	int nChoice = 0;
   4121c:	e03fb015 	stw	zero,-320(fp)
 	char *szDeviceList[MaxList];
 	for(int i=0;i<9;i++)
   41220:	e03fad15 	stw	zero,-332(fp)
   41224:	e0bfad17 	ldw	r2,-332(fp)
   41228:	10800248 	cmpgei	r2,r2,9
   4122c:	10000f1e 	bne	r2,zero,4126c <main+0xfc>
 		szDeviceList[i] = (char *)malloc(35*sizeof(char));
   41230:	008008c4 	movi	r2,35
   41234:	1009883a 	mov	r4,r2
   41238:	0043c6c0 	call	43c6c <malloc>
   4123c:	1007883a 	mov	r3,r2
   41240:	e0bfad17 	ldw	r2,-332(fp)
   41244:	1085883a 	add	r2,r2,r2
   41248:	1085883a 	add	r2,r2,r2
   4124c:	e13fad04 	addi	r4,fp,-332
   41250:	2085883a 	add	r2,r4,r2
   41254:	10802804 	addi	r2,r2,160
   41258:	10c00015 	stw	r3,0(r2)
 	CHC05 HC05;

 	char szData[45];
 	int nChoice = 0;
 	char *szDeviceList[MaxList];
 	for(int i=0;i<9;i++)
   4125c:	e0bfad17 	ldw	r2,-332(fp)
   41260:	10800044 	addi	r2,r2,1
   41264:	e0bfad15 	stw	r2,-332(fp)
   41268:	003fee06 	br	41224 <_gp+0xfffd733c>
 		szDeviceList[i] = (char *)malloc(35*sizeof(char));

 	printf("HC-05 Master Demo\r\n");
   4126c:	010001b4 	movhi	r4,6
   41270:	00800084 	movi	r2,2
   41274:	e0bfdf15 	stw	r2,-132(fp)
   41278:	213e1204 	addi	r4,r4,-1976
   4127c:	00446f40 	call	446f4 <puts>
 	SetConfig(true);
   41280:	01000044 	movi	r4,1
   41284:	00410e80 	call	410e8 <_Z9SetConfigb>

  	printf("AT Test Command\n");
   41288:	010001b4 	movhi	r4,6
   4128c:	213e1704 	addi	r4,r4,-1956
   41290:	00446f40 	call	446f4 <puts>
  	HC05.SetupSend(Uart,"AT\r\n");
   41294:	e0ffc504 	addi	r3,fp,-236
   41298:	e0bfc304 	addi	r2,fp,-244
   4129c:	180b883a 	mov	r5,r3
   412a0:	1009883a 	mov	r4,r2
   412a4:	0040c880 	call	40c88 <_ZN5CUartC1ERKS_>
   412a8:	e13fc304 	addi	r4,fp,-244
   412ac:	e0ffc704 	addi	r3,fp,-228
   412b0:	018001b4 	movhi	r6,6
   412b4:	008000c4 	movi	r2,3
   412b8:	e0bfdf15 	stw	r2,-132(fp)
   412bc:	31be1b04 	addi	r6,r6,-1940
   412c0:	200b883a 	mov	r5,r4
   412c4:	1809883a 	mov	r4,r3
   412c8:	00404e80 	call	404e8 <_ZN5CHC059SetupSendE5CUartPc>
   412cc:	e0ffc304 	addi	r3,fp,-244
   412d0:	00800084 	movi	r2,2
   412d4:	e0bfdf15 	stw	r2,-132(fp)
   412d8:	1809883a 	mov	r4,r3
   412dc:	0040d0c0 	call	40d0c <_ZN5CUartD1Ev>

  	printf("INIT\n");
   412e0:	010001b4 	movhi	r4,6
   412e4:	213e1d04 	addi	r4,r4,-1932
   412e8:	00446f40 	call	446f4 <puts>
  	HC05.SetupSend(Uart,"AT+INIT\r\n");
   412ec:	e0ffc504 	addi	r3,fp,-236
   412f0:	e0bfc104 	addi	r2,fp,-252
   412f4:	180b883a 	mov	r5,r3
   412f8:	1009883a 	mov	r4,r2
   412fc:	0040c880 	call	40c88 <_ZN5CUartC1ERKS_>
   41300:	e13fc104 	addi	r4,fp,-252
   41304:	e0ffc704 	addi	r3,fp,-228
   41308:	018001b4 	movhi	r6,6
   4130c:	00800104 	movi	r2,4
   41310:	e0bfdf15 	stw	r2,-132(fp)
   41314:	31be1f04 	addi	r6,r6,-1924
   41318:	200b883a 	mov	r5,r4
   4131c:	1809883a 	mov	r4,r3
   41320:	00404e80 	call	404e8 <_ZN5CHC059SetupSendE5CUartPc>
   41324:	e0ffc104 	addi	r3,fp,-252
   41328:	00800084 	movi	r2,2
   4132c:	e0bfdf15 	stw	r2,-132(fp)
   41330:	1809883a 	mov	r4,r3
   41334:	0040d0c0 	call	40d0c <_ZN5CUartD1Ev>

  	printf("Set UART\n");
   41338:	010001b4 	movhi	r4,6
   4133c:	213e2204 	addi	r4,r4,-1912
   41340:	00446f40 	call	446f4 <puts>
    HC05.SetupSend(Uart,"AT+UART=115200,0,0\r\n");
   41344:	e0ffc504 	addi	r3,fp,-236
   41348:	e0bfbf04 	addi	r2,fp,-260
   4134c:	180b883a 	mov	r5,r3
   41350:	1009883a 	mov	r4,r2
   41354:	0040c880 	call	40c88 <_ZN5CUartC1ERKS_>
   41358:	e13fbf04 	addi	r4,fp,-260
   4135c:	e0ffc704 	addi	r3,fp,-228
   41360:	018001b4 	movhi	r6,6
   41364:	00800144 	movi	r2,5
   41368:	e0bfdf15 	stw	r2,-132(fp)
   4136c:	31be2504 	addi	r6,r6,-1900
   41370:	200b883a 	mov	r5,r4
   41374:	1809883a 	mov	r4,r3
   41378:	00404e80 	call	404e8 <_ZN5CHC059SetupSendE5CUartPc>
   4137c:	e0ffbf04 	addi	r3,fp,-260
   41380:	00800084 	movi	r2,2
   41384:	e0bfdf15 	stw	r2,-132(fp)
   41388:	1809883a 	mov	r4,r3
   4138c:	0040d0c0 	call	40d0c <_ZN5CUartD1Ev>

  	printf("Set to Master Role\n");
   41390:	010001b4 	movhi	r4,6
   41394:	213e2b04 	addi	r4,r4,-1876
   41398:	00446f40 	call	446f4 <puts>
    HC05.SetupSend(Uart,"AT+ROLE=1\r\n");
   4139c:	e0ffc504 	addi	r3,fp,-236
   413a0:	e0bfbd04 	addi	r2,fp,-268
   413a4:	180b883a 	mov	r5,r3
   413a8:	1009883a 	mov	r4,r2
   413ac:	0040c880 	call	40c88 <_ZN5CUartC1ERKS_>
   413b0:	e13fbd04 	addi	r4,fp,-268
   413b4:	e0ffc704 	addi	r3,fp,-228
   413b8:	018001b4 	movhi	r6,6
   413bc:	00800184 	movi	r2,6
   413c0:	e0bfdf15 	stw	r2,-132(fp)
   413c4:	31be3004 	addi	r6,r6,-1856
   413c8:	200b883a 	mov	r5,r4
   413cc:	1809883a 	mov	r4,r3
   413d0:	00404e80 	call	404e8 <_ZN5CHC059SetupSendE5CUartPc>
   413d4:	e0ffbd04 	addi	r3,fp,-268
   413d8:	00800084 	movi	r2,2
   413dc:	e0bfdf15 	stw	r2,-132(fp)
   413e0:	1809883a 	mov	r4,r3
   413e4:	0040d0c0 	call	40d0c <_ZN5CUartD1Ev>

  	printf("Inquire device\n");
   413e8:	010001b4 	movhi	r4,6
   413ec:	213e3304 	addi	r4,r4,-1844
   413f0:	00446f40 	call	446f4 <puts>
  	HC05.SetInquireDevice(Uart,1,9,48);
   413f4:	e0ffc504 	addi	r3,fp,-236
   413f8:	e0bfbb04 	addi	r2,fp,-276
   413fc:	180b883a 	mov	r5,r3
   41400:	1009883a 	mov	r4,r2
   41404:	0040c880 	call	40c88 <_ZN5CUartC1ERKS_>
   41408:	e13fbb04 	addi	r4,fp,-276
   4140c:	e0ffc704 	addi	r3,fp,-228
   41410:	00800c04 	movi	r2,48
   41414:	d8800015 	stw	r2,0(sp)
   41418:	008001c4 	movi	r2,7
   4141c:	e0bfdf15 	stw	r2,-132(fp)
   41420:	01c00244 	movi	r7,9
   41424:	01800044 	movi	r6,1
   41428:	200b883a 	mov	r5,r4
   4142c:	1809883a 	mov	r4,r3
   41430:	00406280 	call	40628 <_ZN5CHC0516SetInquireDeviceE5CUartiii>
   41434:	e0ffbb04 	addi	r3,fp,-276
   41438:	00800084 	movi	r2,2
   4143c:	e0bfdf15 	stw	r2,-132(fp)
   41440:	1809883a 	mov	r4,r3
   41444:	0040d0c0 	call	40d0c <_ZN5CUartD1Ev>

    printf("Device List\n");
   41448:	010001b4 	movhi	r4,6
   4144c:	213e3704 	addi	r4,r4,-1828
   41450:	00446f40 	call	446f4 <puts>
    HC05.DeviceList(Uart,"AT+INQ\r\n",szDeviceList);
   41454:	e0ffc504 	addi	r3,fp,-236
   41458:	e0bfb904 	addi	r2,fp,-284
   4145c:	180b883a 	mov	r5,r3
   41460:	1009883a 	mov	r4,r2
   41464:	0040c880 	call	40c88 <_ZN5CUartC1ERKS_>
   41468:	e0bfd504 	addi	r2,fp,-172
   4146c:	e13fb904 	addi	r4,fp,-284
   41470:	e0ffc704 	addi	r3,fp,-228
   41474:	100f883a 	mov	r7,r2
   41478:	018001b4 	movhi	r6,6
   4147c:	00800204 	movi	r2,8
   41480:	e0bfdf15 	stw	r2,-132(fp)
   41484:	31be3a04 	addi	r6,r6,-1816
   41488:	200b883a 	mov	r5,r4
   4148c:	1809883a 	mov	r4,r3
   41490:	00408a40 	call	408a4 <_ZN5CHC0510DeviceListE5CUartPcPS1_>
   41494:	e0ffb904 	addi	r3,fp,-284
   41498:	00800084 	movi	r2,2
   4149c:	e0bfdf15 	stw	r2,-132(fp)
   414a0:	1809883a 	mov	r4,r3
   414a4:	0040d0c0 	call	40d0c <_ZN5CUartD1Ev>

    printf("GetName Device\n");
   414a8:	010001b4 	movhi	r4,6
   414ac:	213e3d04 	addi	r4,r4,-1804
   414b0:	00446f40 	call	446f4 <puts>
    for(int i=0;i<=8;i++){
   414b4:	e03fae15 	stw	zero,-328(fp)
   414b8:	e0bfae17 	ldw	r2,-328(fp)
   414bc:	10800248 	cmpgei	r2,r2,9
   414c0:	10003e1e 	bne	r2,zero,415bc <main+0x44c>
      if(!strcmp(szDeviceList[i],"\0")){
   414c4:	e0bfae17 	ldw	r2,-328(fp)
   414c8:	1085883a 	add	r2,r2,r2
   414cc:	1085883a 	add	r2,r2,r2
   414d0:	e0ffad04 	addi	r3,fp,-332
   414d4:	1885883a 	add	r2,r3,r2
   414d8:	10802804 	addi	r2,r2,160
   414dc:	10800017 	ldw	r2,0(r2)
   414e0:	10800003 	ldbu	r2,0(r2)
   414e4:	10803fcc 	andi	r2,r2,255
   414e8:	10002f26 	beq	r2,zero,415a8 <main+0x438>
       continue;
      }else{
    	printf("Device[%d]:%s\n",i,szDeviceList[i]);
   414ec:	e0bfae17 	ldw	r2,-328(fp)
   414f0:	1085883a 	add	r2,r2,r2
   414f4:	1085883a 	add	r2,r2,r2
   414f8:	e13fad04 	addi	r4,fp,-332
   414fc:	2085883a 	add	r2,r4,r2
   41500:	10802804 	addi	r2,r2,160
   41504:	10800017 	ldw	r2,0(r2)
   41508:	100d883a 	mov	r6,r2
   4150c:	e17fae17 	ldw	r5,-328(fp)
   41510:	010001b4 	movhi	r4,6
   41514:	00800084 	movi	r2,2
   41518:	e0bfdf15 	stw	r2,-132(fp)
   4151c:	213e4104 	addi	r4,r4,-1788
   41520:	00445f80 	call	445f8 <printf>
        sprintf(szData,"AT+RNAME?%s\r\n",szDeviceList[i]);
   41524:	e0bfae17 	ldw	r2,-328(fp)
   41528:	1085883a 	add	r2,r2,r2
   4152c:	1085883a 	add	r2,r2,r2
   41530:	e0ffad04 	addi	r3,fp,-332
   41534:	1885883a 	add	r2,r3,r2
   41538:	10802804 	addi	r2,r2,160
   4153c:	10c00017 	ldw	r3,0(r2)
   41540:	e0bfc904 	addi	r2,fp,-220
   41544:	180d883a 	mov	r6,r3
   41548:	014001b4 	movhi	r5,6
   4154c:	297e4504 	addi	r5,r5,-1772
   41550:	1009883a 	mov	r4,r2
   41554:	0044b240 	call	44b24 <sprintf>
        HC05.GetNameList(Uart,szData);
   41558:	e0ffc504 	addi	r3,fp,-236
   4155c:	e0bfb704 	addi	r2,fp,-292
   41560:	180b883a 	mov	r5,r3
   41564:	1009883a 	mov	r4,r2
   41568:	0040c880 	call	40c88 <_ZN5CUartC1ERKS_>
   4156c:	e17fc904 	addi	r5,fp,-220
   41570:	e13fb704 	addi	r4,fp,-292
   41574:	e0ffc704 	addi	r3,fp,-228
   41578:	00800244 	movi	r2,9
   4157c:	e0bfdf15 	stw	r2,-132(fp)
   41580:	280d883a 	mov	r6,r5
   41584:	200b883a 	mov	r5,r4
   41588:	1809883a 	mov	r4,r3
   4158c:	00407ac0 	call	407ac <_ZN5CHC0511GetNameListE5CUartPc>
   41590:	e0ffb704 	addi	r3,fp,-292
   41594:	00800084 	movi	r2,2
   41598:	e0bfdf15 	stw	r2,-132(fp)
   4159c:	1809883a 	mov	r4,r3
   415a0:	0040d0c0 	call	40d0c <_ZN5CUartD1Ev>
   415a4:	00000106 	br	415ac <main+0x43c>
    HC05.DeviceList(Uart,"AT+INQ\r\n",szDeviceList);

    printf("GetName Device\n");
    for(int i=0;i<=8;i++){
      if(!strcmp(szDeviceList[i],"\0")){
       continue;
   415a8:	0001883a 	nop

    printf("Device List\n");
    HC05.DeviceList(Uart,"AT+INQ\r\n",szDeviceList);

    printf("GetName Device\n");
    for(int i=0;i<=8;i++){
   415ac:	e0bfae17 	ldw	r2,-328(fp)
   415b0:	10800044 	addi	r2,r2,1
   415b4:	e0bfae15 	stw	r2,-328(fp)
   415b8:	003fbf06 	br	414b8 <_gp+0xfffd75d0>
        sprintf(szData,"AT+RNAME?%s\r\n",szDeviceList[i]);
        HC05.GetNameList(Uart,szData);
      }
    }

    printf("Please input you want to pair and link device\n");
   415bc:	010001b4 	movhi	r4,6
   415c0:	00800084 	movi	r2,2
   415c4:	e0bfdf15 	stw	r2,-132(fp)
   415c8:	213e4904 	addi	r4,r4,-1756
   415cc:	00446f40 	call	446f4 <puts>
    nChoice = query_users();
   415d0:	00411200 	call	41120 <_Z11query_usersv>
   415d4:	e0bfb015 	stw	r2,-320(fp)
    sprintf(szData,"AT+PAIR=%s,%d\r\n",szDeviceList[nChoice],30);
   415d8:	e0bfb017 	ldw	r2,-320(fp)
   415dc:	1085883a 	add	r2,r2,r2
   415e0:	1085883a 	add	r2,r2,r2
   415e4:	e13fad04 	addi	r4,fp,-332
   415e8:	2085883a 	add	r2,r4,r2
   415ec:	10802804 	addi	r2,r2,160
   415f0:	10c00017 	ldw	r3,0(r2)
   415f4:	e0bfc904 	addi	r2,fp,-220
   415f8:	01c00784 	movi	r7,30
   415fc:	180d883a 	mov	r6,r3
   41600:	014001b4 	movhi	r5,6
   41604:	297e5504 	addi	r5,r5,-1708
   41608:	1009883a 	mov	r4,r2
   4160c:	0044b240 	call	44b24 <sprintf>
    HC05.SetupSend(Uart,szData);
   41610:	e0ffc504 	addi	r3,fp,-236
   41614:	e0bfb504 	addi	r2,fp,-300
   41618:	180b883a 	mov	r5,r3
   4161c:	1009883a 	mov	r4,r2
   41620:	0040c880 	call	40c88 <_ZN5CUartC1ERKS_>
   41624:	e17fc904 	addi	r5,fp,-220
   41628:	e13fb504 	addi	r4,fp,-300
   4162c:	e0ffc704 	addi	r3,fp,-228
   41630:	00800284 	movi	r2,10
   41634:	e0bfdf15 	stw	r2,-132(fp)
   41638:	280d883a 	mov	r6,r5
   4163c:	200b883a 	mov	r5,r4
   41640:	1809883a 	mov	r4,r3
   41644:	00404e80 	call	404e8 <_ZN5CHC059SetupSendE5CUartPc>
   41648:	e0ffb504 	addi	r3,fp,-300
   4164c:	00800084 	movi	r2,2
   41650:	e0bfdf15 	stw	r2,-132(fp)
   41654:	1809883a 	mov	r4,r3
   41658:	0040d0c0 	call	40d0c <_ZN5CUartD1Ev>

    usleep(1000000);
   4165c:	010003f4 	movhi	r4,15
   41660:	21109004 	addi	r4,r4,16960
   41664:	005d1400 	call	5d140 <usleep>
    sprintf(szData,"AT+BIND=%s\r\n",szDeviceList[nChoice]);
   41668:	e0bfb017 	ldw	r2,-320(fp)
   4166c:	1085883a 	add	r2,r2,r2
   41670:	1085883a 	add	r2,r2,r2
   41674:	e0ffad04 	addi	r3,fp,-332
   41678:	1885883a 	add	r2,r3,r2
   4167c:	10802804 	addi	r2,r2,160
   41680:	10c00017 	ldw	r3,0(r2)
   41684:	e0bfc904 	addi	r2,fp,-220
   41688:	180d883a 	mov	r6,r3
   4168c:	014001b4 	movhi	r5,6
   41690:	297e5904 	addi	r5,r5,-1692
   41694:	1009883a 	mov	r4,r2
   41698:	0044b240 	call	44b24 <sprintf>
    HC05.SetupSend(Uart,szData);
   4169c:	e0ffc504 	addi	r3,fp,-236
   416a0:	e0bfb304 	addi	r2,fp,-308
   416a4:	180b883a 	mov	r5,r3
   416a8:	1009883a 	mov	r4,r2
   416ac:	0040c880 	call	40c88 <_ZN5CUartC1ERKS_>
   416b0:	e17fc904 	addi	r5,fp,-220
   416b4:	e13fb304 	addi	r4,fp,-308
   416b8:	e0ffc704 	addi	r3,fp,-228
   416bc:	008002c4 	movi	r2,11
   416c0:	e0bfdf15 	stw	r2,-132(fp)
   416c4:	280d883a 	mov	r6,r5
   416c8:	200b883a 	mov	r5,r4
   416cc:	1809883a 	mov	r4,r3
   416d0:	00404e80 	call	404e8 <_ZN5CHC059SetupSendE5CUartPc>
   416d4:	e0ffb304 	addi	r3,fp,-308
   416d8:	00800084 	movi	r2,2
   416dc:	e0bfdf15 	stw	r2,-132(fp)
   416e0:	1809883a 	mov	r4,r3
   416e4:	0040d0c0 	call	40d0c <_ZN5CUartD1Ev>
    SetConfig(false);
   416e8:	0009883a 	mov	r4,zero
   416ec:	00410e80 	call	410e8 <_Z9SetConfigb>
    usleep(1000000);
   416f0:	010003f4 	movhi	r4,15
   416f4:	21109004 	addi	r4,r4,16960
   416f8:	005d1400 	call	5d140 <usleep>
 	for(int i=0;i<9;i++)
   416fc:	e03faf15 	stw	zero,-324(fp)
   41700:	e0bfaf17 	ldw	r2,-324(fp)
   41704:	10800248 	cmpgei	r2,r2,9
   41708:	10000d1e 	bne	r2,zero,41740 <main+0x5d0>
 		free(szDeviceList[i]);
   4170c:	e0bfaf17 	ldw	r2,-324(fp)
   41710:	1085883a 	add	r2,r2,r2
   41714:	1085883a 	add	r2,r2,r2
   41718:	e13fad04 	addi	r4,fp,-332
   4171c:	2085883a 	add	r2,r4,r2
   41720:	10802804 	addi	r2,r2,160
   41724:	10800017 	ldw	r2,0(r2)
   41728:	1009883a 	mov	r4,r2
   4172c:	0043c800 	call	43c80 <free>
    usleep(1000000);
    sprintf(szData,"AT+BIND=%s\r\n",szDeviceList[nChoice]);
    HC05.SetupSend(Uart,szData);
    SetConfig(false);
    usleep(1000000);
 	for(int i=0;i<9;i++)
   41730:	e0bfaf17 	ldw	r2,-324(fp)
   41734:	10800044 	addi	r2,r2,1
   41738:	e0bfaf15 	stw	r2,-324(fp)
   4173c:	003ff006 	br	41700 <_gp+0xfffd7818>
 		free(szDeviceList[i]);

    while(1){
      HC05.MessageSend(Uart,"The device's Bluetooth location is connected by the FPGA through the RFS module.\n");
   41740:	e0ffc504 	addi	r3,fp,-236
   41744:	e0bfb104 	addi	r2,fp,-316
   41748:	180b883a 	mov	r5,r3
   4174c:	1009883a 	mov	r4,r2
   41750:	0040c880 	call	40c88 <_ZN5CUartC1ERKS_>
   41754:	e13fb104 	addi	r4,fp,-316
   41758:	e0ffc704 	addi	r3,fp,-228
   4175c:	018001b4 	movhi	r6,6
   41760:	00800304 	movi	r2,12
   41764:	e0bfdf15 	stw	r2,-132(fp)
   41768:	31be5d04 	addi	r6,r6,-1676
   4176c:	200b883a 	mov	r5,r4
   41770:	1809883a 	mov	r4,r3
   41774:	00405e00 	call	405e0 <_ZN5CHC0511MessageSendE5CUartPc>
   41778:	e0ffb104 	addi	r3,fp,-316
   4177c:	00800084 	movi	r2,2
   41780:	e0bfdf15 	stw	r2,-132(fp)
   41784:	1809883a 	mov	r4,r3
   41788:	0040d0c0 	call	40d0c <_ZN5CUartD1Ev>
      usleep(2000000);
   4178c:	010007f4 	movhi	r4,31
   41790:	21212004 	addi	r4,r4,-31616
   41794:	005d1400 	call	5d140 <usleep>
    SetConfig(false);
    usleep(1000000);
 	for(int i=0;i<9;i++)
 		free(szDeviceList[i]);

    while(1){
   41798:	003fe906 	br	41740 <_gp+0xfffd7858>
   4179c:	e0bfec15 	stw	r2,-80(fp)

 	printf("HC-05 Master Demo\r\n");
 	SetConfig(true);

  	printf("AT Test Command\n");
  	HC05.SetupSend(Uart,"AT\r\n");
   417a0:	e0bfc304 	addi	r2,fp,-244
   417a4:	e03fdf15 	stw	zero,-132(fp)
   417a8:	1009883a 	mov	r4,r2
   417ac:	0040d0c0 	call	40d0c <_ZN5CUartD1Ev>
   417b0:	e0bfec17 	ldw	r2,-80(fp)
   417b4:	e0bfeb15 	stw	r2,-84(fp)
   417b8:	00004906 	br	418e0 <main+0x770>
   417bc:	e0bfed15 	stw	r2,-76(fp)

  	printf("INIT\n");
  	HC05.SetupSend(Uart,"AT+INIT\r\n");
   417c0:	e0bfc104 	addi	r2,fp,-252
   417c4:	e03fdf15 	stw	zero,-132(fp)
   417c8:	1009883a 	mov	r4,r2
   417cc:	0040d0c0 	call	40d0c <_ZN5CUartD1Ev>
   417d0:	e0ffed17 	ldw	r3,-76(fp)
   417d4:	e0ffeb15 	stw	r3,-84(fp)
   417d8:	00004106 	br	418e0 <main+0x770>
   417dc:	e0bfee15 	stw	r2,-72(fp)

  	printf("Set UART\n");
    HC05.SetupSend(Uart,"AT+UART=115200,0,0\r\n");
   417e0:	e0bfbf04 	addi	r2,fp,-260
   417e4:	e03fdf15 	stw	zero,-132(fp)
   417e8:	1009883a 	mov	r4,r2
   417ec:	0040d0c0 	call	40d0c <_ZN5CUartD1Ev>
   417f0:	e13fee17 	ldw	r4,-72(fp)
   417f4:	e13feb15 	stw	r4,-84(fp)
   417f8:	00003906 	br	418e0 <main+0x770>
   417fc:	e0bfef15 	stw	r2,-68(fp)

  	printf("Set to Master Role\n");
    HC05.SetupSend(Uart,"AT+ROLE=1\r\n");
   41800:	e0bfbd04 	addi	r2,fp,-268
   41804:	e03fdf15 	stw	zero,-132(fp)
   41808:	1009883a 	mov	r4,r2
   4180c:	0040d0c0 	call	40d0c <_ZN5CUartD1Ev>
   41810:	e0bfef17 	ldw	r2,-68(fp)
   41814:	e0bfeb15 	stw	r2,-84(fp)
   41818:	00003106 	br	418e0 <main+0x770>
   4181c:	e0bff015 	stw	r2,-64(fp)

  	printf("Inquire device\n");
  	HC05.SetInquireDevice(Uart,1,9,48);
   41820:	e0bfbb04 	addi	r2,fp,-276
   41824:	e03fdf15 	stw	zero,-132(fp)
   41828:	1009883a 	mov	r4,r2
   4182c:	0040d0c0 	call	40d0c <_ZN5CUartD1Ev>
   41830:	e0fff017 	ldw	r3,-64(fp)
   41834:	e0ffeb15 	stw	r3,-84(fp)
   41838:	00002906 	br	418e0 <main+0x770>
   4183c:	e0bff115 	stw	r2,-60(fp)

    printf("Device List\n");
    HC05.DeviceList(Uart,"AT+INQ\r\n",szDeviceList);
   41840:	e0bfb904 	addi	r2,fp,-284
   41844:	e03fdf15 	stw	zero,-132(fp)
   41848:	1009883a 	mov	r4,r2
   4184c:	0040d0c0 	call	40d0c <_ZN5CUartD1Ev>
   41850:	e13ff117 	ldw	r4,-60(fp)
   41854:	e13feb15 	stw	r4,-84(fp)
   41858:	00002106 	br	418e0 <main+0x770>
   4185c:	e0bff215 	stw	r2,-56(fp)
      if(!strcmp(szDeviceList[i],"\0")){
       continue;
      }else{
    	printf("Device[%d]:%s\n",i,szDeviceList[i]);
        sprintf(szData,"AT+RNAME?%s\r\n",szDeviceList[i]);
        HC05.GetNameList(Uart,szData);
   41860:	e0bfb704 	addi	r2,fp,-292
   41864:	e03fdf15 	stw	zero,-132(fp)
   41868:	1009883a 	mov	r4,r2
   4186c:	0040d0c0 	call	40d0c <_ZN5CUartD1Ev>
   41870:	e0bff217 	ldw	r2,-56(fp)
   41874:	e0bfeb15 	stw	r2,-84(fp)
   41878:	00001906 	br	418e0 <main+0x770>
   4187c:	e0bff315 	stw	r2,-52(fp)
    }

    printf("Please input you want to pair and link device\n");
    nChoice = query_users();
    sprintf(szData,"AT+PAIR=%s,%d\r\n",szDeviceList[nChoice],30);
    HC05.SetupSend(Uart,szData);
   41880:	e0bfb504 	addi	r2,fp,-300
   41884:	e03fdf15 	stw	zero,-132(fp)
   41888:	1009883a 	mov	r4,r2
   4188c:	0040d0c0 	call	40d0c <_ZN5CUartD1Ev>
   41890:	e0fff317 	ldw	r3,-52(fp)
   41894:	e0ffeb15 	stw	r3,-84(fp)
   41898:	00001106 	br	418e0 <main+0x770>
   4189c:	e0bff415 	stw	r2,-48(fp)

    usleep(1000000);
    sprintf(szData,"AT+BIND=%s\r\n",szDeviceList[nChoice]);
    HC05.SetupSend(Uart,szData);
   418a0:	e0bfb304 	addi	r2,fp,-308
   418a4:	e03fdf15 	stw	zero,-132(fp)
   418a8:	1009883a 	mov	r4,r2
   418ac:	0040d0c0 	call	40d0c <_ZN5CUartD1Ev>
   418b0:	e13ff417 	ldw	r4,-48(fp)
   418b4:	e13feb15 	stw	r4,-84(fp)
   418b8:	00000906 	br	418e0 <main+0x770>
   418bc:	e0bff515 	stw	r2,-44(fp)
    usleep(1000000);
 	for(int i=0;i<9;i++)
 		free(szDeviceList[i]);

    while(1){
      HC05.MessageSend(Uart,"The device's Bluetooth location is connected by the FPGA through the RFS module.\n");
   418c0:	e0bfb104 	addi	r2,fp,-316
   418c4:	e03fdf15 	stw	zero,-132(fp)
   418c8:	1009883a 	mov	r4,r2
   418cc:	0040d0c0 	call	40d0c <_ZN5CUartD1Ev>
   418d0:	e0bff517 	ldw	r2,-44(fp)
   418d4:	e0bfeb15 	stw	r2,-84(fp)
   418d8:	00000106 	br	418e0 <main+0x770>
   418dc:	e0bfeb15 	stw	r2,-84(fp)

int main()
{
	CUart Uart;
 	Uart.Open(HC_05_UART_NAME);
 	CHC05 HC05;
   418e0:	e0bfc704 	addi	r2,fp,-228
   418e4:	e03fdf15 	stw	zero,-132(fp)
   418e8:	1009883a 	mov	r4,r2
   418ec:	00402d00 	call	402d0 <_ZN5CHC05D1Ev>
   418f0:	e0ffeb17 	ldw	r3,-84(fp)
   418f4:	e0fff615 	stw	r3,-40(fp)
   418f8:	00001a06 	br	41964 <main+0x7f4>
   418fc:	e7005304 	addi	fp,fp,332
   41900:	e0bfe017 	ldw	r2,-128(fp)
   41904:	e0ffdf17 	ldw	r3,-132(fp)
   41908:	18c00328 	cmpgeui	r3,r3,12
   4190c:	1800131e 	bne	r3,zero,4195c <main+0x7ec>
   41910:	e0ffdf17 	ldw	r3,-132(fp)
   41914:	180890ba 	slli	r4,r3,2
   41918:	00c00134 	movhi	r3,4
   4191c:	18c64b04 	addi	r3,r3,6444
   41920:	20c7883a 	add	r3,r4,r3
   41924:	18c00017 	ldw	r3,0(r3)
   41928:	1800683a 	jmp	r3
   4192c:	00041960 	cmpeqi	zero,zero,4197
   41930:	000418dc 	xori	zero,zero,4195
   41934:	0004179c 	xori	zero,zero,4190
   41938:	000417bc 	xorhi	zero,zero,4190
   4193c:	000417dc 	xori	zero,zero,4191
   41940:	000417fc 	xorhi	zero,zero,4191
   41944:	0004181c 	xori	zero,zero,4192
   41948:	0004183c 	xorhi	zero,zero,4192
   4194c:	0004185c 	xori	zero,zero,4193
   41950:	0004187c 	xorhi	zero,zero,4193
   41954:	0004189c 	xori	zero,zero,4194
   41958:	000418bc 	xorhi	zero,zero,4194
   4195c:	003b68fa 	trap	3
   41960:	e0bff615 	stw	r2,-40(fp)
}


int main()
{
	CUart Uart;
   41964:	e0bfc504 	addi	r2,fp,-236
   41968:	e03fdf15 	stw	zero,-132(fp)
   4196c:	1009883a 	mov	r4,r2
   41970:	0040d0c0 	call	40d0c <_ZN5CUartD1Ev>
   41974:	e0fff617 	ldw	r3,-40(fp)
   41978:	00bfffc4 	movi	r2,-1
   4197c:	e0bfdf15 	stw	r2,-132(fp)
   41980:	1809883a 	mov	r4,r3
   41984:	0043b380 	call	43b38 <_Unwind_SjLj_Resume>

00041988 <_ZdlPv>:
   41988:	0043c801 	jmpi	43c80 <free>

0004198c <_ZL21size_of_encoded_valueh>:
   4198c:	deffff04 	addi	sp,sp,-4
   41990:	dfc00015 	stw	ra,0(sp)
   41994:	20c03fcc 	andi	r3,r4,255
   41998:	00803fc4 	movi	r2,255
   4199c:	18802026 	beq	r3,r2,41a20 <_ZL21size_of_encoded_valueh+0x94>
   419a0:	210001cc 	andi	r4,r4,7
   419a4:	00800144 	movi	r2,5
   419a8:	11001c36 	bltu	r2,r4,41a1c <_ZL21size_of_encoded_valueh+0x90>
   419ac:	200890ba 	slli	r4,r4,2
   419b0:	00800134 	movhi	r2,4
   419b4:	10867104 	addi	r2,r2,6596
   419b8:	2089883a 	add	r4,r4,r2
   419bc:	20800017 	ldw	r2,0(r4)
   419c0:	1000683a 	jmp	r2
   419c4:	000419dc 	xori	zero,zero,4199
   419c8:	00041a1c 	xori	zero,zero,4200
   419cc:	000419ec 	andhi	zero,zero,4199
   419d0:	000419dc 	xori	zero,zero,4199
   419d4:	00041a0c 	andi	zero,zero,4200
   419d8:	000419fc 	xorhi	zero,zero,4199
   419dc:	00800104 	movi	r2,4
   419e0:	dfc00017 	ldw	ra,0(sp)
   419e4:	dec00104 	addi	sp,sp,4
   419e8:	f800283a 	ret
   419ec:	00800084 	movi	r2,2
   419f0:	dfc00017 	ldw	ra,0(sp)
   419f4:	dec00104 	addi	sp,sp,4
   419f8:	f800283a 	ret
   419fc:	00800044 	movi	r2,1
   41a00:	dfc00017 	ldw	ra,0(sp)
   41a04:	dec00104 	addi	sp,sp,4
   41a08:	f800283a 	ret
   41a0c:	00800204 	movi	r2,8
   41a10:	dfc00017 	ldw	ra,0(sp)
   41a14:	dec00104 	addi	sp,sp,4
   41a18:	f800283a 	ret
   41a1c:	0043c540 	call	43c54 <abort>
   41a20:	0005883a 	mov	r2,zero
   41a24:	dfc00017 	ldw	ra,0(sp)
   41a28:	dec00104 	addi	sp,sp,4
   41a2c:	f800283a 	ret

00041a30 <_ZL28read_encoded_value_with_basehjPKhPj>:
   41a30:	deffff04 	addi	sp,sp,-4
   41a34:	dfc00015 	stw	ra,0(sp)
   41a38:	20c03fcc 	andi	r3,r4,255
   41a3c:	00801404 	movi	r2,80
   41a40:	18807326 	beq	r3,r2,41c10 <_ZL28read_encoded_value_with_basehjPKhPj+0x1e0>
   41a44:	20c003cc 	andi	r3,r4,15
   41a48:	00800304 	movi	r2,12
   41a4c:	10c06f36 	bltu	r2,r3,41c0c <_ZL28read_encoded_value_with_basehjPKhPj+0x1dc>
   41a50:	180690ba 	slli	r3,r3,2
   41a54:	02000134 	movhi	r8,4
   41a58:	42069a04 	addi	r8,r8,6760
   41a5c:	1a07883a 	add	r3,r3,r8
   41a60:	18800017 	ldw	r2,0(r3)
   41a64:	1000683a 	jmp	r2
   41a68:	00041a9c 	xori	zero,zero,4202
   41a6c:	00041bb8 	rdprs	zero,zero,4206
   41a70:	00041bf4 	movhi	zero,4207
   41a74:	00041a9c 	xori	zero,zero,4202
   41a78:	00041b00 	call	41b0 <__reset-0x3be50>
   41a7c:	00041b54 	movui	zero,4205
   41a80:	00041c0c 	andi	zero,zero,4208
   41a84:	00041c0c 	andi	zero,zero,4208
   41a88:	00041c0c 	andi	zero,zero,4208
   41a8c:	00041b60 	cmpeqi	zero,zero,4205
   41a90:	00041b30 	cmpltui	zero,zero,4204
   41a94:	00041a9c 	xori	zero,zero,4202
   41a98:	00041b00 	call	41b0 <__reset-0x3be50>
   41a9c:	30800043 	ldbu	r2,1(r6)
   41aa0:	30c00083 	ldbu	r3,2(r6)
   41aa4:	324000c3 	ldbu	r9,3(r6)
   41aa8:	32000003 	ldbu	r8,0(r6)
   41aac:	1004923a 	slli	r2,r2,8
   41ab0:	1806943a 	slli	r3,r3,16
   41ab4:	4812963a 	slli	r9,r9,24
   41ab8:	1204b03a 	or	r2,r2,r8
   41abc:	1884b03a 	or	r2,r3,r2
   41ac0:	4886b03a 	or	r3,r9,r2
   41ac4:	30800104 	addi	r2,r6,4
   41ac8:	18000926 	beq	r3,zero,41af0 <_ZL28read_encoded_value_with_basehjPKhPj+0xc0>
   41acc:	22001c0c 	andi	r8,r4,112
   41ad0:	02400404 	movi	r9,16
   41ad4:	42405726 	beq	r8,r9,41c34 <_ZL28read_encoded_value_with_basehjPKhPj+0x204>
   41ad8:	21003fcc 	andi	r4,r4,255
   41adc:	2100201c 	xori	r4,r4,128
   41ae0:	213fe004 	addi	r4,r4,-128
   41ae4:	1947883a 	add	r3,r3,r5
   41ae8:	2000010e 	bge	r4,zero,41af0 <_ZL28read_encoded_value_with_basehjPKhPj+0xc0>
   41aec:	18c00017 	ldw	r3,0(r3)
   41af0:	38c00015 	stw	r3,0(r7)
   41af4:	dfc00017 	ldw	ra,0(sp)
   41af8:	dec00104 	addi	sp,sp,4
   41afc:	f800283a 	ret
   41b00:	30800043 	ldbu	r2,1(r6)
   41b04:	30c00083 	ldbu	r3,2(r6)
   41b08:	324000c3 	ldbu	r9,3(r6)
   41b0c:	32000003 	ldbu	r8,0(r6)
   41b10:	1004923a 	slli	r2,r2,8
   41b14:	1806943a 	slli	r3,r3,16
   41b18:	4812963a 	slli	r9,r9,24
   41b1c:	1204b03a 	or	r2,r2,r8
   41b20:	1884b03a 	or	r2,r3,r2
   41b24:	4886b03a 	or	r3,r9,r2
   41b28:	30800204 	addi	r2,r6,8
   41b2c:	003fe606 	br	41ac8 <_gp+0xfffd7be0>
   41b30:	30c00043 	ldbu	r3,1(r6)
   41b34:	32000003 	ldbu	r8,0(r6)
   41b38:	30800084 	addi	r2,r6,2
   41b3c:	1806923a 	slli	r3,r3,8
   41b40:	1a06b03a 	or	r3,r3,r8
   41b44:	18ffffcc 	andi	r3,r3,65535
   41b48:	18e0001c 	xori	r3,r3,32768
   41b4c:	18e00004 	addi	r3,r3,-32768
   41b50:	003fdd06 	br	41ac8 <_gp+0xfffd7be0>
   41b54:	30c00003 	ldbu	r3,0(r6)
   41b58:	30800044 	addi	r2,r6,1
   41b5c:	003fda06 	br	41ac8 <_gp+0xfffd7be0>
   41b60:	3017883a 	mov	r11,r6
   41b64:	0007883a 	mov	r3,zero
   41b68:	0013883a 	mov	r9,zero
   41b6c:	5a800003 	ldbu	r10,0(r11)
   41b70:	58800044 	addi	r2,r11,1
   41b74:	1017883a 	mov	r11,r2
   41b78:	52001fcc 	andi	r8,r10,127
   41b7c:	4250983a 	sll	r8,r8,r9
   41b80:	53003fcc 	andi	r12,r10,255
   41b84:	6300201c 	xori	r12,r12,128
   41b88:	633fe004 	addi	r12,r12,-128
   41b8c:	1a06b03a 	or	r3,r3,r8
   41b90:	4a4001c4 	addi	r9,r9,7
   41b94:	603ff516 	blt	r12,zero,41b6c <_gp+0xfffd7c84>
   41b98:	020007c4 	movi	r8,31
   41b9c:	427fca36 	bltu	r8,r9,41ac8 <_gp+0xfffd7be0>
   41ba0:	5280100c 	andi	r10,r10,64
   41ba4:	503fc826 	beq	r10,zero,41ac8 <_gp+0xfffd7be0>
   41ba8:	023fffc4 	movi	r8,-1
   41bac:	4252983a 	sll	r9,r8,r9
   41bb0:	1a46b03a 	or	r3,r3,r9
   41bb4:	003fc506 	br	41acc <_gp+0xfffd7be4>
   41bb8:	3017883a 	mov	r11,r6
   41bbc:	0007883a 	mov	r3,zero
   41bc0:	0015883a 	mov	r10,zero
   41bc4:	5a000003 	ldbu	r8,0(r11)
   41bc8:	58800044 	addi	r2,r11,1
   41bcc:	1017883a 	mov	r11,r2
   41bd0:	42401fcc 	andi	r9,r8,127
   41bd4:	4a92983a 	sll	r9,r9,r10
   41bd8:	42003fcc 	andi	r8,r8,255
   41bdc:	4200201c 	xori	r8,r8,128
   41be0:	423fe004 	addi	r8,r8,-128
   41be4:	1a46b03a 	or	r3,r3,r9
   41be8:	528001c4 	addi	r10,r10,7
   41bec:	403ff516 	blt	r8,zero,41bc4 <_gp+0xfffd7cdc>
   41bf0:	003fb506 	br	41ac8 <_gp+0xfffd7be0>
   41bf4:	30c00043 	ldbu	r3,1(r6)
   41bf8:	32000003 	ldbu	r8,0(r6)
   41bfc:	30800084 	addi	r2,r6,2
   41c00:	1806923a 	slli	r3,r3,8
   41c04:	1a06b03a 	or	r3,r3,r8
   41c08:	003faf06 	br	41ac8 <_gp+0xfffd7be0>
   41c0c:	0043c540 	call	43c54 <abort>
   41c10:	308000c4 	addi	r2,r6,3
   41c14:	00ffff04 	movi	r3,-4
   41c18:	10c4703a 	and	r2,r2,r3
   41c1c:	10c00017 	ldw	r3,0(r2)
   41c20:	10800104 	addi	r2,r2,4
   41c24:	38c00015 	stw	r3,0(r7)
   41c28:	dfc00017 	ldw	ra,0(sp)
   41c2c:	dec00104 	addi	sp,sp,4
   41c30:	f800283a 	ret
   41c34:	300b883a 	mov	r5,r6
   41c38:	003fa706 	br	41ad8 <_gp+0xfffd7bf0>

00041c3c <_ZL15get_ttype_entryP16lsda_header_infom>:
   41c3c:	defffc04 	addi	sp,sp,-16
   41c40:	dfc00315 	stw	ra,12(sp)
   41c44:	dc400215 	stw	r17,8(sp)
   41c48:	dc000115 	stw	r16,4(sp)
   41c4c:	2021883a 	mov	r16,r4
   41c50:	21000503 	ldbu	r4,20(r4)
   41c54:	2823883a 	mov	r17,r5
   41c58:	004198c0 	call	4198c <_ZL21size_of_encoded_valueh>
   41c5c:	1445383a 	mul	r2,r2,r17
   41c60:	81800317 	ldw	r6,12(r16)
   41c64:	81400217 	ldw	r5,8(r16)
   41c68:	81000503 	ldbu	r4,20(r16)
   41c6c:	d80f883a 	mov	r7,sp
   41c70:	308dc83a 	sub	r6,r6,r2
   41c74:	0041a300 	call	41a30 <_ZL28read_encoded_value_with_basehjPKhPj>
   41c78:	d8800017 	ldw	r2,0(sp)
   41c7c:	dfc00317 	ldw	ra,12(sp)
   41c80:	dc400217 	ldw	r17,8(sp)
   41c84:	dc000117 	ldw	r16,4(sp)
   41c88:	dec00404 	addi	sp,sp,16
   41c8c:	f800283a 	ret

00041c90 <_ZL21base_of_encoded_valuehP15_Unwind_Context>:
   41c90:	deffff04 	addi	sp,sp,-4
   41c94:	dfc00015 	stw	ra,0(sp)
   41c98:	20c03fcc 	andi	r3,r4,255
   41c9c:	00803fc4 	movi	r2,255
   41ca0:	18800e26 	beq	r3,r2,41cdc <_ZL21base_of_encoded_valuehP15_Unwind_Context+0x4c>
   41ca4:	20801c0c 	andi	r2,r4,112
   41ca8:	00c00804 	movi	r3,32
   41cac:	10c01726 	beq	r2,r3,41d0c <_ZL21base_of_encoded_valuehP15_Unwind_Context+0x7c>
   41cb0:	18800e2e 	bgeu	r3,r2,41cec <_ZL21base_of_encoded_valuehP15_Unwind_Context+0x5c>
   41cb4:	00c01004 	movi	r3,64
   41cb8:	10c01026 	beq	r2,r3,41cfc <_ZL21base_of_encoded_valuehP15_Unwind_Context+0x6c>
   41cbc:	00c01404 	movi	r3,80
   41cc0:	10c00626 	beq	r2,r3,41cdc <_ZL21base_of_encoded_valuehP15_Unwind_Context+0x4c>
   41cc4:	00c00c04 	movi	r3,48
   41cc8:	10c00b1e 	bne	r2,r3,41cf8 <_ZL21base_of_encoded_valuehP15_Unwind_Context+0x68>
   41ccc:	2809883a 	mov	r4,r5
   41cd0:	dfc00017 	ldw	ra,0(sp)
   41cd4:	dec00104 	addi	sp,sp,4
   41cd8:	0043a141 	jmpi	43a14 <_Unwind_GetDataRelBase>
   41cdc:	0005883a 	mov	r2,zero
   41ce0:	dfc00017 	ldw	ra,0(sp)
   41ce4:	dec00104 	addi	sp,sp,4
   41ce8:	f800283a 	ret
   41cec:	103ffb26 	beq	r2,zero,41cdc <_gp+0xfffd7df4>
   41cf0:	00c00404 	movi	r3,16
   41cf4:	10fff926 	beq	r2,r3,41cdc <_gp+0xfffd7df4>
   41cf8:	0043c540 	call	43c54 <abort>
   41cfc:	2809883a 	mov	r4,r5
   41d00:	dfc00017 	ldw	ra,0(sp)
   41d04:	dec00104 	addi	sp,sp,4
   41d08:	0043a041 	jmpi	43a04 <_Unwind_GetRegionStart>
   41d0c:	2809883a 	mov	r4,r5
   41d10:	dfc00017 	ldw	ra,0(sp)
   41d14:	dec00104 	addi	sp,sp,4
   41d18:	0043a1c1 	jmpi	43a1c <_Unwind_GetTextRelBase>

00041d1c <_ZL17parse_lsda_headerP15_Unwind_ContextPKhP16lsda_header_info>:
   41d1c:	defffb04 	addi	sp,sp,-20
   41d20:	dcc00315 	stw	r19,12(sp)
   41d24:	dc400115 	stw	r17,4(sp)
   41d28:	dc000015 	stw	r16,0(sp)
   41d2c:	dfc00415 	stw	ra,16(sp)
   41d30:	dc800215 	stw	r18,8(sp)
   41d34:	2027883a 	mov	r19,r4
   41d38:	2821883a 	mov	r16,r5
   41d3c:	3023883a 	mov	r17,r6
   41d40:	20003f26 	beq	r4,zero,41e40 <_ZL17parse_lsda_headerP15_Unwind_ContextPKhP16lsda_header_info+0x124>
   41d44:	0043a040 	call	43a04 <_Unwind_GetRegionStart>
   41d48:	88800015 	stw	r2,0(r17)
   41d4c:	84800003 	ldbu	r18,0(r16)
   41d50:	00c03fc4 	movi	r3,255
   41d54:	84000044 	addi	r16,r16,1
   41d58:	90c03726 	beq	r18,r3,41e38 <_ZL17parse_lsda_headerP15_Unwind_ContextPKhP16lsda_header_info+0x11c>
   41d5c:	980b883a 	mov	r5,r19
   41d60:	9009883a 	mov	r4,r18
   41d64:	0041c900 	call	41c90 <_ZL21base_of_encoded_valuehP15_Unwind_Context>
   41d68:	800d883a 	mov	r6,r16
   41d6c:	89c00104 	addi	r7,r17,4
   41d70:	100b883a 	mov	r5,r2
   41d74:	9009883a 	mov	r4,r18
   41d78:	0041a300 	call	41a30 <_ZL28read_encoded_value_with_basehjPKhPj>
   41d7c:	1021883a 	mov	r16,r2
   41d80:	80c00003 	ldbu	r3,0(r16)
   41d84:	01003fc4 	movi	r4,255
   41d88:	80800044 	addi	r2,r16,1
   41d8c:	88c00505 	stb	r3,20(r17)
   41d90:	18c03fcc 	andi	r3,r3,255
   41d94:	19002c26 	beq	r3,r4,41e48 <_ZL17parse_lsda_headerP15_Unwind_ContextPKhP16lsda_header_info+0x12c>
   41d98:	100f883a 	mov	r7,r2
   41d9c:	000d883a 	mov	r6,zero
   41da0:	000b883a 	mov	r5,zero
   41da4:	38c00003 	ldbu	r3,0(r7)
   41da8:	10800044 	addi	r2,r2,1
   41dac:	100f883a 	mov	r7,r2
   41db0:	19001fcc 	andi	r4,r3,127
   41db4:	2148983a 	sll	r4,r4,r5
   41db8:	18c03fcc 	andi	r3,r3,255
   41dbc:	18c0201c 	xori	r3,r3,128
   41dc0:	18ffe004 	addi	r3,r3,-128
   41dc4:	310cb03a 	or	r6,r6,r4
   41dc8:	294001c4 	addi	r5,r5,7
   41dcc:	183ff516 	blt	r3,zero,41da4 <_gp+0xfffd7ebc>
   41dd0:	118d883a 	add	r6,r2,r6
   41dd4:	89800315 	stw	r6,12(r17)
   41dd8:	10c00003 	ldbu	r3,0(r2)
   41ddc:	000d883a 	mov	r6,zero
   41de0:	10800044 	addi	r2,r2,1
   41de4:	88c00545 	stb	r3,21(r17)
   41de8:	000b883a 	mov	r5,zero
   41dec:	10c00003 	ldbu	r3,0(r2)
   41df0:	10800044 	addi	r2,r2,1
   41df4:	19001fcc 	andi	r4,r3,127
   41df8:	2148983a 	sll	r4,r4,r5
   41dfc:	18c03fcc 	andi	r3,r3,255
   41e00:	18c0201c 	xori	r3,r3,128
   41e04:	18ffe004 	addi	r3,r3,-128
   41e08:	310cb03a 	or	r6,r6,r4
   41e0c:	294001c4 	addi	r5,r5,7
   41e10:	183ff616 	blt	r3,zero,41dec <_gp+0xfffd7f04>
   41e14:	118d883a 	add	r6,r2,r6
   41e18:	89800415 	stw	r6,16(r17)
   41e1c:	dfc00417 	ldw	ra,16(sp)
   41e20:	dcc00317 	ldw	r19,12(sp)
   41e24:	dc800217 	ldw	r18,8(sp)
   41e28:	dc400117 	ldw	r17,4(sp)
   41e2c:	dc000017 	ldw	r16,0(sp)
   41e30:	dec00504 	addi	sp,sp,20
   41e34:	f800283a 	ret
   41e38:	88800115 	stw	r2,4(r17)
   41e3c:	003fd006 	br	41d80 <_gp+0xfffd7e98>
   41e40:	0005883a 	mov	r2,zero
   41e44:	003fc006 	br	41d48 <_gp+0xfffd7e60>
   41e48:	88000315 	stw	zero,12(r17)
   41e4c:	003fe206 	br	41dd8 <_gp+0xfffd7ef0>

00041e50 <_ZL16get_adjusted_ptrPKSt9type_infoS1_PPv.constprop.3>:
   41e50:	28800017 	ldw	r2,0(r5)
   41e54:	30c00017 	ldw	r3,0(r6)
   41e58:	defffb04 	addi	sp,sp,-20
   41e5c:	10800217 	ldw	r2,8(r2)
   41e60:	dc400315 	stw	r17,12(sp)
   41e64:	dc000215 	stw	r16,8(sp)
   41e68:	d9400115 	stw	r5,4(sp)
   41e6c:	dfc00415 	stw	ra,16(sp)
   41e70:	2021883a 	mov	r16,r4
   41e74:	d8c00015 	stw	r3,0(sp)
   41e78:	2809883a 	mov	r4,r5
   41e7c:	3023883a 	mov	r17,r6
   41e80:	103ee83a 	callr	r2
   41e84:	10803fcc 	andi	r2,r2,255
   41e88:	d9400117 	ldw	r5,4(sp)
   41e8c:	10000326 	beq	r2,zero,41e9c <_ZL16get_adjusted_ptrPKSt9type_infoS1_PPv.constprop.3+0x4c>
   41e90:	d8800017 	ldw	r2,0(sp)
   41e94:	10800017 	ldw	r2,0(r2)
   41e98:	d8800015 	stw	r2,0(sp)
   41e9c:	80800017 	ldw	r2,0(r16)
   41ea0:	01c00044 	movi	r7,1
   41ea4:	d80d883a 	mov	r6,sp
   41ea8:	10800417 	ldw	r2,16(r2)
   41eac:	8009883a 	mov	r4,r16
   41eb0:	103ee83a 	callr	r2
   41eb4:	10c03fcc 	andi	r3,r2,255
   41eb8:	18000226 	beq	r3,zero,41ec4 <_ZL16get_adjusted_ptrPKSt9type_infoS1_PPv.constprop.3+0x74>
   41ebc:	d8c00017 	ldw	r3,0(sp)
   41ec0:	88c00015 	stw	r3,0(r17)
   41ec4:	dfc00417 	ldw	ra,16(sp)
   41ec8:	dc400317 	ldw	r17,12(sp)
   41ecc:	dc000217 	ldw	r16,8(sp)
   41ed0:	dec00504 	addi	sp,sp,20
   41ed4:	f800283a 	ret

00041ed8 <_ZL28check_compact_exception_specPKSt9type_infoPvPKhij>:
   41ed8:	defff604 	addi	sp,sp,-40
   41edc:	dc000415 	stw	r16,16(sp)
   41ee0:	3821d23a 	srai	r16,r7,8
   41ee4:	dc800615 	stw	r18,24(sp)
   41ee8:	dc400515 	stw	r17,20(sp)
   41eec:	dfc00915 	stw	ra,36(sp)
   41ef0:	dd000815 	stw	r20,32(sp)
   41ef4:	dcc00715 	stw	r19,28(sp)
   41ef8:	d9400215 	stw	r5,8(sp)
   41efc:	3825883a 	mov	r18,r7
   41f00:	2023883a 	mov	r17,r4
   41f04:	8000010e 	bge	r16,zero,41f0c <_ZL28check_compact_exception_specPKSt9type_infoPvPKhij+0x34>
   41f08:	0421c83a 	sub	r16,zero,r16
   41f0c:	000b883a 	mov	r5,zero
   41f10:	01000144 	movi	r4,5
   41f14:	d9800315 	stw	r6,12(sp)
   41f18:	0041c900 	call	41c90 <_ZL21base_of_encoded_valuehP15_Unwind_Context>
   41f1c:	d9800317 	ldw	r6,12(sp)
   41f20:	d9c00104 	addi	r7,sp,4
   41f24:	100b883a 	mov	r5,r2
   41f28:	01000144 	movi	r4,5
   41f2c:	0041a300 	call	41a30 <_ZL28read_encoded_value_with_basehjPKhPj>
   41f30:	11fffe64 	muli	r7,r2,-7
   41f34:	0007883a 	mov	r3,zero
   41f38:	11400003 	ldbu	r5,0(r2)
   41f3c:	110001e4 	muli	r4,r2,7
   41f40:	10800044 	addi	r2,r2,1
   41f44:	29801fcc 	andi	r6,r5,127
   41f48:	21c9883a 	add	r4,r4,r7
   41f4c:	3108983a 	sll	r4,r6,r4
   41f50:	29403fcc 	andi	r5,r5,255
   41f54:	2940201c 	xori	r5,r5,128
   41f58:	297fe004 	addi	r5,r5,-128
   41f5c:	1906b03a 	or	r3,r3,r4
   41f60:	283ff516 	blt	r5,zero,41f38 <_gp+0xfffd8050>
   41f64:	10c5883a 	add	r2,r2,r3
   41f68:	11fffe64 	muli	r7,r2,-7
   41f6c:	0009883a 	mov	r4,zero
   41f70:	11400003 	ldbu	r5,0(r2)
   41f74:	10c001e4 	muli	r3,r2,7
   41f78:	10800044 	addi	r2,r2,1
   41f7c:	29801fcc 	andi	r6,r5,127
   41f80:	19c7883a 	add	r3,r3,r7
   41f84:	30c6983a 	sll	r3,r6,r3
   41f88:	29403fcc 	andi	r5,r5,255
   41f8c:	2940201c 	xori	r5,r5,128
   41f90:	297fe004 	addi	r5,r5,-128
   41f94:	20c8b03a 	or	r4,r4,r3
   41f98:	283ff516 	blt	r5,zero,41f70 <_gp+0xfffd8088>
   41f9c:	80c03fcc 	andi	r3,r16,255
   41fa0:	18ffffc4 	addi	r3,r3,-1
   41fa4:	10c7883a 	add	r3,r2,r3
   41fa8:	210000c4 	addi	r4,r4,3
   41fac:	197ffe64 	muli	r5,r3,-7
   41fb0:	2085883a 	add	r2,r4,r2
   41fb4:	04ffff04 	movi	r19,-4
   41fb8:	14e6703a 	and	r19,r2,r19
   41fbc:	0021883a 	mov	r16,zero
   41fc0:	18800003 	ldbu	r2,0(r3)
   41fc4:	190001e4 	muli	r4,r3,7
   41fc8:	1d000044 	addi	r20,r3,1
   41fcc:	10c01fcc 	andi	r3,r2,127
   41fd0:	2149883a 	add	r4,r4,r5
   41fd4:	1908983a 	sll	r4,r3,r4
   41fd8:	10803fcc 	andi	r2,r2,255
   41fdc:	1080201c 	xori	r2,r2,128
   41fe0:	10bfe004 	addi	r2,r2,-128
   41fe4:	a007883a 	mov	r3,r20
   41fe8:	8120b03a 	or	r16,r16,r4
   41fec:	103ff416 	blt	r2,zero,41fc0 <_gp+0xfffd80d8>
   41ff0:	94803fcc 	andi	r18,r18,255
   41ff4:	80001f26 	beq	r16,zero,42074 <_ZL28check_compact_exception_specPKSt9type_infoPvPKhij+0x19c>
   41ff8:	9009883a 	mov	r4,r18
   41ffc:	004198c0 	call	4198c <_ZL21size_of_encoded_valueh>
   42000:	81bfffc4 	addi	r6,r16,-1
   42004:	308d383a 	mul	r6,r6,r2
   42008:	d9400a17 	ldw	r5,40(sp)
   4200c:	d80f883a 	mov	r7,sp
   42010:	9009883a 	mov	r4,r18
   42014:	34cd883a 	add	r6,r6,r19
   42018:	0041a300 	call	41a30 <_ZL28read_encoded_value_with_basehjPKhPj>
   4201c:	d9000017 	ldw	r4,0(sp)
   42020:	d9800204 	addi	r6,sp,8
   42024:	880b883a 	mov	r5,r17
   42028:	0041e500 	call	41e50 <_ZL16get_adjusted_ptrPKSt9type_infoS1_PPv.constprop.3>
   4202c:	10c03fcc 	andi	r3,r2,255
   42030:	1800111e 	bne	r3,zero,42078 <_ZL28check_compact_exception_specPKSt9type_infoPvPKhij+0x1a0>
   42034:	a17ffe64 	muli	r5,r20,-7
   42038:	a007883a 	mov	r3,r20
   4203c:	0021883a 	mov	r16,zero
   42040:	19000003 	ldbu	r4,0(r3)
   42044:	18c001e4 	muli	r3,r3,7
   42048:	a5000044 	addi	r20,r20,1
   4204c:	20801fcc 	andi	r2,r4,127
   42050:	1947883a 	add	r3,r3,r5
   42054:	10c4983a 	sll	r2,r2,r3
   42058:	21003fcc 	andi	r4,r4,255
   4205c:	2100201c 	xori	r4,r4,128
   42060:	213fe004 	addi	r4,r4,-128
   42064:	a007883a 	mov	r3,r20
   42068:	80a0b03a 	or	r16,r16,r2
   4206c:	203ff416 	blt	r4,zero,42040 <_gp+0xfffd8158>
   42070:	003fe006 	br	41ff4 <_gp+0xfffd810c>
   42074:	0005883a 	mov	r2,zero
   42078:	dfc00917 	ldw	ra,36(sp)
   4207c:	dd000817 	ldw	r20,32(sp)
   42080:	dcc00717 	ldw	r19,28(sp)
   42084:	dc800617 	ldw	r18,24(sp)
   42088:	dc400517 	ldw	r17,20(sp)
   4208c:	dc000417 	ldw	r16,16(sp)
   42090:	dec00a04 	addi	sp,sp,40
   42094:	f800283a 	ret

00042098 <_ZL20check_exception_specP16lsda_header_infoPKSt9type_infoPvl>:
   42098:	defffb04 	addi	sp,sp,-20
   4209c:	dc000115 	stw	r16,4(sp)
   420a0:	24000317 	ldw	r16,12(r4)
   420a4:	01ce303a 	nor	r7,zero,r7
   420a8:	dc800315 	stw	r18,12(sp)
   420ac:	dc400215 	stw	r17,8(sp)
   420b0:	dfc00415 	stw	ra,16(sp)
   420b4:	2023883a 	mov	r17,r4
   420b8:	2825883a 	mov	r18,r5
   420bc:	d9800015 	stw	r6,0(sp)
   420c0:	81e1883a 	add	r16,r16,r7
   420c4:	800d883a 	mov	r6,r16
   420c8:	000b883a 	mov	r5,zero
   420cc:	0009883a 	mov	r4,zero
   420d0:	30800003 	ldbu	r2,0(r6)
   420d4:	84000044 	addi	r16,r16,1
   420d8:	800d883a 	mov	r6,r16
   420dc:	10c01fcc 	andi	r3,r2,127
   420e0:	1906983a 	sll	r3,r3,r4
   420e4:	10803fcc 	andi	r2,r2,255
   420e8:	1080201c 	xori	r2,r2,128
   420ec:	10bfe004 	addi	r2,r2,-128
   420f0:	28cab03a 	or	r5,r5,r3
   420f4:	210001c4 	addi	r4,r4,7
   420f8:	103ff516 	blt	r2,zero,420d0 <_gp+0xfffd81e8>
   420fc:	28000e26 	beq	r5,zero,42138 <_ZL20check_exception_specP16lsda_header_infoPKSt9type_infoPvl+0xa0>
   42100:	8809883a 	mov	r4,r17
   42104:	0041c3c0 	call	41c3c <_ZL15get_ttype_entryP16lsda_header_infom>
   42108:	d80d883a 	mov	r6,sp
   4210c:	900b883a 	mov	r5,r18
   42110:	1009883a 	mov	r4,r2
   42114:	0041e500 	call	41e50 <_ZL16get_adjusted_ptrPKSt9type_infoS1_PPv.constprop.3>
   42118:	10c03fcc 	andi	r3,r2,255
   4211c:	183fe926 	beq	r3,zero,420c4 <_gp+0xfffd81dc>
   42120:	dfc00417 	ldw	ra,16(sp)
   42124:	dc800317 	ldw	r18,12(sp)
   42128:	dc400217 	ldw	r17,8(sp)
   4212c:	dc000117 	ldw	r16,4(sp)
   42130:	dec00504 	addi	sp,sp,20
   42134:	f800283a 	ret
   42138:	0005883a 	mov	r2,zero
   4213c:	003ff806 	br	42120 <_gp+0xfffd8238>

00042140 <__gxx_personality_sj0>:
   42140:	00800134 	movhi	r2,4
   42144:	deffdd04 	addi	sp,sp,-140
   42148:	10885004 	addi	r2,r2,8512
   4214c:	d8800e15 	stw	r2,56(sp)
   42150:	008001b4 	movhi	r2,6
   42154:	10bdd504 	addi	r2,r2,-2220
   42158:	d8800f15 	stw	r2,60(sp)
   4215c:	00800134 	movhi	r2,4
   42160:	1089c604 	addi	r2,r2,10008
   42164:	d9001515 	stw	r4,84(sp)
   42168:	d9000804 	addi	r4,sp,32
   4216c:	d8801115 	stw	r2,68(sp)
   42170:	dfc02215 	stw	ra,136(sp)
   42174:	df002115 	stw	fp,132(sp)
   42178:	dec01015 	stw	sp,64(sp)
   4217c:	dec01215 	stw	sp,72(sp)
   42180:	d9401915 	stw	r5,100(sp)
   42184:	d9801615 	stw	r6,88(sp)
   42188:	d9c01715 	stw	r7,92(sp)
   4218c:	004393c0 	call	4393c <_Unwind_SjLj_Register>
   42190:	d8c01517 	ldw	r3,84(sp)
   42194:	d8000715 	stw	zero,28(sp)
   42198:	d8000615 	stw	zero,24(sp)
   4219c:	00800044 	movi	r2,1
   421a0:	18800926 	beq	r3,r2,421c8 <__gxx_personality_sj0+0x88>
   421a4:	01c000c4 	movi	r7,3
   421a8:	d9c01515 	stw	r7,84(sp)
   421ac:	d9000804 	addi	r4,sp,32
   421b0:	00439540 	call	43954 <_Unwind_SjLj_Unregister>
   421b4:	d8801517 	ldw	r2,84(sp)
   421b8:	dfc02217 	ldw	ra,136(sp)
   421bc:	df002117 	ldw	fp,132(sp)
   421c0:	dec02304 	addi	sp,sp,140
   421c4:	f800283a 	ret
   421c8:	d9001617 	ldw	r4,88(sp)
   421cc:	00af3574 	movhi	r2,48341
   421d0:	d9c01717 	ldw	r7,92(sp)
   421d4:	10b54004 	addi	r2,r2,-11008
   421d8:	00ee2cb4 	movhi	r3,47282
   421dc:	2085883a 	add	r2,r4,r2
   421e0:	18eaaf04 	addi	r3,r3,-21828
   421e4:	d8801b15 	stw	r2,108(sp)
   421e8:	38c7883a 	add	r3,r7,r3
   421ec:	1105803a 	cmpltu	r2,r2,r4
   421f0:	10c7883a 	add	r3,r2,r3
   421f4:	d8c01c15 	stw	r3,112(sp)
   421f8:	d8c01917 	ldw	r3,100(sp)
   421fc:	00800184 	movi	r2,6
   42200:	18805426 	beq	r3,r2,42354 <__gxx_personality_sj0+0x214>
   42204:	d9002417 	ldw	r4,144(sp)
   42208:	00bfffc4 	movi	r2,-1
   4220c:	d8800915 	stw	r2,36(sp)
   42210:	00439f80 	call	439f8 <_Unwind_GetLanguageSpecificData>
   42214:	d8801a15 	stw	r2,104(sp)
   42218:	1000c926 	beq	r2,zero,42540 <__gxx_personality_sj0+0x400>
   4221c:	d9002417 	ldw	r4,144(sp)
   42220:	d80d883a 	mov	r6,sp
   42224:	100b883a 	mov	r5,r2
   42228:	0041d1c0 	call	41d1c <_ZL17parse_lsda_headerP15_Unwind_ContextPKhP16lsda_header_info>
   4222c:	d9402417 	ldw	r5,144(sp)
   42230:	d9000503 	ldbu	r4,20(sp)
   42234:	d8801515 	stw	r2,84(sp)
   42238:	0041c900 	call	41c90 <_ZL21base_of_encoded_valuehP15_Unwind_Context>
   4223c:	d9002417 	ldw	r4,144(sp)
   42240:	d9400604 	addi	r5,sp,24
   42244:	d8800215 	stw	r2,8(sp)
   42248:	00439c80 	call	439c8 <_Unwind_GetIPInfo>
   4224c:	d8c00617 	ldw	r3,24(sp)
   42250:	18006126 	beq	r3,zero,423d8 <__gxx_personality_sj0+0x298>
   42254:	1000ba16 	blt	r2,zero,42540 <__gxx_personality_sj0+0x400>
   42258:	10002f1e 	bne	r2,zero,42318 <__gxx_personality_sj0+0x1d8>
   4225c:	d8001515 	stw	zero,84(sp)
   42260:	d8001f15 	stw	zero,124(sp)
   42264:	d8001815 	stw	zero,96(sp)
   42268:	00c00044 	movi	r3,1
   4226c:	d9001917 	ldw	r4,100(sp)
   42270:	2080004c 	andi	r2,r4,1
   42274:	1000b51e 	bne	r2,zero,4254c <__gxx_personality_sj0+0x40c>
   42278:	d9001917 	ldw	r4,100(sp)
   4227c:	2080020c 	andi	r2,r4,8
   42280:	1000b71e 	bne	r2,zero,42560 <__gxx_personality_sj0+0x420>
   42284:	d9c01c17 	ldw	r7,112(sp)
   42288:	3800b826 	beq	r7,zero,4256c <__gxx_personality_sj0+0x42c>
   4228c:	00800044 	movi	r2,1
   42290:	1880b526 	beq	r3,r2,42568 <__gxx_personality_sj0+0x428>
   42294:	d9c01517 	ldw	r7,84(sp)
   42298:	3800f516 	blt	r7,zero,42670 <__gxx_personality_sj0+0x530>
   4229c:	d9002417 	ldw	r4,144(sp)
   422a0:	d9802317 	ldw	r6,140(sp)
   422a4:	00bfffc4 	movi	r2,-1
   422a8:	000b883a 	mov	r5,zero
   422ac:	d8800915 	stw	r2,36(sp)
   422b0:	004399c0 	call	4399c <_Unwind_SetGR>
   422b4:	d9801517 	ldw	r6,84(sp)
   422b8:	d9002417 	ldw	r4,144(sp)
   422bc:	01400044 	movi	r5,1
   422c0:	004399c0 	call	4399c <_Unwind_SetGR>
   422c4:	d9002417 	ldw	r4,144(sp)
   422c8:	d9401f17 	ldw	r5,124(sp)
   422cc:	00439e80 	call	439e8 <_Unwind_SetIP>
   422d0:	010001c4 	movi	r4,7
   422d4:	d9001515 	stw	r4,84(sp)
   422d8:	003fb406 	br	421ac <_gp+0xfffd82c4>
   422dc:	000f883a 	mov	r7,zero
   422e0:	000d883a 	mov	r6,zero
   422e4:	19000003 	ldbu	r4,0(r3)
   422e8:	18c00044 	addi	r3,r3,1
   422ec:	d8c01515 	stw	r3,84(sp)
   422f0:	21401fcc 	andi	r5,r4,127
   422f4:	298a983a 	sll	r5,r5,r6
   422f8:	21003fcc 	andi	r4,r4,255
   422fc:	2100201c 	xori	r4,r4,128
   42300:	213fe004 	addi	r4,r4,-128
   42304:	394eb03a 	or	r7,r7,r5
   42308:	318001c4 	addi	r6,r6,7
   4230c:	203ff516 	blt	r4,zero,422e4 <_gp+0xfffd83fc>
   42310:	10bfffc4 	addi	r2,r2,-1
   42314:	10003226 	beq	r2,zero,423e0 <__gxx_personality_sj0+0x2a0>
   42318:	d9c01517 	ldw	r7,84(sp)
   4231c:	0011883a 	mov	r8,zero
   42320:	000d883a 	mov	r6,zero
   42324:	39000003 	ldbu	r4,0(r7)
   42328:	38c00044 	addi	r3,r7,1
   4232c:	180f883a 	mov	r7,r3
   42330:	21401fcc 	andi	r5,r4,127
   42334:	298a983a 	sll	r5,r5,r6
   42338:	21003fcc 	andi	r4,r4,255
   4233c:	2100201c 	xori	r4,r4,128
   42340:	213fe004 	addi	r4,r4,-128
   42344:	4150b03a 	or	r8,r8,r5
   42348:	318001c4 	addi	r6,r6,7
   4234c:	203ff516 	blt	r4,zero,42324 <_gp+0xfffd843c>
   42350:	003fe206 	br	422dc <_gp+0xfffd83f4>
   42354:	d9001c17 	ldw	r4,112(sp)
   42358:	203faa1e 	bne	r4,zero,42204 <_gp+0xfffd831c>
   4235c:	d9c01517 	ldw	r7,84(sp)
   42360:	d8801b17 	ldw	r2,108(sp)
   42364:	38bfa736 	bltu	r7,r2,42204 <_gp+0xfffd831c>
   42368:	d8c02317 	ldw	r3,140(sp)
   4236c:	18fffe17 	ldw	r3,-8(r3)
   42370:	d8c01f15 	stw	r3,124(sp)
   42374:	18008226 	beq	r3,zero,42580 <__gxx_personality_sj0+0x440>
   42378:	d9002317 	ldw	r4,140(sp)
   4237c:	d9c02317 	ldw	r7,140(sp)
   42380:	213ffb17 	ldw	r4,-20(r4)
   42384:	39fffd17 	ldw	r7,-12(r7)
   42388:	d9001515 	stw	r4,84(sp)
   4238c:	d9c01a15 	stw	r7,104(sp)
   42390:	d8801517 	ldw	r2,84(sp)
   42394:	103fc10e 	bge	r2,zero,4229c <_gp+0xfffd83b4>
   42398:	d9002417 	ldw	r4,144(sp)
   4239c:	d9401a17 	ldw	r5,104(sp)
   423a0:	d80d883a 	mov	r6,sp
   423a4:	00bfffc4 	movi	r2,-1
   423a8:	d8800915 	stw	r2,36(sp)
   423ac:	0041d1c0 	call	41d1c <_ZL17parse_lsda_headerP15_Unwind_ContextPKhP16lsda_header_info>
   423b0:	d9402417 	ldw	r5,144(sp)
   423b4:	d9000503 	ldbu	r4,20(sp)
   423b8:	0041c900 	call	41c90 <_ZL21base_of_encoded_valuehP15_Unwind_Context>
   423bc:	d9000503 	ldbu	r4,20(sp)
   423c0:	d9402417 	ldw	r5,144(sp)
   423c4:	d8800215 	stw	r2,8(sp)
   423c8:	0041c900 	call	41c90 <_ZL21base_of_encoded_valuehP15_Unwind_Context>
   423cc:	d8c02317 	ldw	r3,140(sp)
   423d0:	18bffe15 	stw	r2,-8(r3)
   423d4:	003fb106 	br	4229c <_gp+0xfffd83b4>
   423d8:	10bfffc4 	addi	r2,r2,-1
   423dc:	003f9d06 	br	42254 <_gp+0xfffd836c>
   423e0:	42000044 	addi	r8,r8,1
   423e4:	da001f15 	stw	r8,124(sp)
   423e8:	38005326 	beq	r7,zero,42538 <__gxx_personality_sj0+0x3f8>
   423ec:	d8800417 	ldw	r2,16(sp)
   423f0:	39ffffc4 	addi	r7,r7,-1
   423f4:	11c5883a 	add	r2,r2,r7
   423f8:	d8801815 	stw	r2,96(sp)
   423fc:	40005026 	beq	r8,zero,42540 <__gxx_personality_sj0+0x400>
   42400:	10007426 	beq	r2,zero,425d4 <__gxx_personality_sj0+0x494>
   42404:	d8801917 	ldw	r2,100(sp)
   42408:	1080020c 	andi	r2,r2,8
   4240c:	d8802015 	stw	r2,128(sp)
   42410:	1000a21e 	bne	r2,zero,4269c <__gxx_personality_sj0+0x55c>
   42414:	d8c01c17 	ldw	r3,112(sp)
   42418:	1800b026 	beq	r3,zero,426dc <__gxx_personality_sj0+0x59c>
   4241c:	01c001b4 	movhi	r7,6
   42420:	39c7c704 	addi	r7,r7,7964
   42424:	d9c01e15 	stw	r7,120(sp)
   42428:	d8001d05 	stb	zero,116(sp)
   4242c:	d8c01817 	ldw	r3,96(sp)
   42430:	d8001515 	stw	zero,84(sp)
   42434:	0009883a 	mov	r4,zero
   42438:	19400003 	ldbu	r5,0(r3)
   4243c:	18800044 	addi	r2,r3,1
   42440:	d9c01517 	ldw	r7,84(sp)
   42444:	28c01fcc 	andi	r3,r5,127
   42448:	1906983a 	sll	r3,r3,r4
   4244c:	29803fcc 	andi	r6,r5,255
   42450:	3180201c 	xori	r6,r6,128
   42454:	38ceb03a 	or	r7,r7,r3
   42458:	d8801715 	stw	r2,92(sp)
   4245c:	31bfe004 	addi	r6,r6,-128
   42460:	d9c01515 	stw	r7,84(sp)
   42464:	210001c4 	addi	r4,r4,7
   42468:	1007883a 	mov	r3,r2
   4246c:	303ff216 	blt	r6,zero,42438 <_gp+0xfffd8550>
   42470:	00c007c4 	movi	r3,31
   42474:	19000836 	bltu	r3,r4,42498 <__gxx_personality_sj0+0x358>
   42478:	2940100c 	andi	r5,r5,64
   4247c:	28000626 	beq	r5,zero,42498 <__gxx_personality_sj0+0x358>
   42480:	01c00044 	movi	r7,1
   42484:	3908983a 	sll	r4,r7,r4
   42488:	d8c01517 	ldw	r3,84(sp)
   4248c:	0109c83a 	sub	r4,zero,r4
   42490:	1906b03a 	or	r3,r3,r4
   42494:	d8c01515 	stw	r3,84(sp)
   42498:	d8001615 	stw	zero,88(sp)
   4249c:	0009883a 	mov	r4,zero
   424a0:	11400003 	ldbu	r5,0(r2)
   424a4:	d9c01617 	ldw	r7,88(sp)
   424a8:	10800044 	addi	r2,r2,1
   424ac:	28c01fcc 	andi	r3,r5,127
   424b0:	1906983a 	sll	r3,r3,r4
   424b4:	29803fcc 	andi	r6,r5,255
   424b8:	3180201c 	xori	r6,r6,128
   424bc:	38ceb03a 	or	r7,r7,r3
   424c0:	31bfe004 	addi	r6,r6,-128
   424c4:	d9c01615 	stw	r7,88(sp)
   424c8:	210001c4 	addi	r4,r4,7
   424cc:	303ff416 	blt	r6,zero,424a0 <_gp+0xfffd85b8>
   424d0:	008007c4 	movi	r2,31
   424d4:	11000736 	bltu	r2,r4,424f4 <__gxx_personality_sj0+0x3b4>
   424d8:	2940100c 	andi	r5,r5,64
   424dc:	28000526 	beq	r5,zero,424f4 <__gxx_personality_sj0+0x3b4>
   424e0:	00c00044 	movi	r3,1
   424e4:	1908983a 	sll	r4,r3,r4
   424e8:	0109c83a 	sub	r4,zero,r4
   424ec:	390eb03a 	or	r7,r7,r4
   424f0:	d9c01615 	stw	r7,88(sp)
   424f4:	d9001517 	ldw	r4,84(sp)
   424f8:	20003c26 	beq	r4,zero,425ec <__gxx_personality_sj0+0x4ac>
   424fc:	01003e0e 	bge	zero,r4,425f8 <__gxx_personality_sj0+0x4b8>
   42500:	01ffffc4 	movi	r7,-1
   42504:	200b883a 	mov	r5,r4
   42508:	d809883a 	mov	r4,sp
   4250c:	d9c00915 	stw	r7,36(sp)
   42510:	0041c3c0 	call	41c3c <_ZL15get_ttype_entryP16lsda_header_infom>
   42514:	10005f26 	beq	r2,zero,42694 <__gxx_personality_sj0+0x554>
   42518:	d8c01e17 	ldw	r3,120(sp)
   4251c:	1800571e 	bne	r3,zero,4267c <__gxx_personality_sj0+0x53c>
   42520:	d9001617 	ldw	r4,88(sp)
   42524:	20002926 	beq	r4,zero,425cc <__gxx_personality_sj0+0x48c>
   42528:	d9c01717 	ldw	r7,92(sp)
   4252c:	390f883a 	add	r7,r7,r4
   42530:	d9c01815 	stw	r7,96(sp)
   42534:	003fbd06 	br	4242c <_gp+0xfffd8544>
   42538:	d8c01f17 	ldw	r3,124(sp)
   4253c:	1800251e 	bne	r3,zero,425d4 <__gxx_personality_sj0+0x494>
   42540:	01000204 	movi	r4,8
   42544:	d9001515 	stw	r4,84(sp)
   42548:	003f1806 	br	421ac <_gp+0xfffd82c4>
   4254c:	d8801c17 	ldw	r2,112(sp)
   42550:	10000d26 	beq	r2,zero,42588 <__gxx_personality_sj0+0x448>
   42554:	00800184 	movi	r2,6
   42558:	d8801515 	stw	r2,84(sp)
   4255c:	003f1306 	br	421ac <_gp+0xfffd82c4>
   42560:	00800044 	movi	r2,1
   42564:	18bf4d1e 	bne	r3,r2,4229c <_gp+0xfffd83b4>
   42568:	0042bc00 	call	42bc0 <_ZSt9terminatev>
   4256c:	d9001b17 	ldw	r4,108(sp)
   42570:	00800044 	movi	r2,1
   42574:	113f4536 	bltu	r2,r4,4228c <_gp+0xfffd83a4>
   42578:	00800044 	movi	r2,1
   4257c:	18bf841e 	bne	r3,r2,42390 <_gp+0xfffd84a8>
   42580:	d9002317 	ldw	r4,140(sp)
   42584:	004337c0 	call	4337c <__cxa_call_terminate>
   42588:	d8c01b17 	ldw	r3,108(sp)
   4258c:	00800044 	movi	r2,1
   42590:	10fff036 	bltu	r2,r3,42554 <_gp+0xfffd866c>
   42594:	d9002317 	ldw	r4,140(sp)
   42598:	d8801817 	ldw	r2,96(sp)
   4259c:	d9c01517 	ldw	r7,84(sp)
   425a0:	d8c01a17 	ldw	r3,104(sp)
   425a4:	20bffc15 	stw	r2,-16(r4)
   425a8:	d8800717 	ldw	r2,28(sp)
   425ac:	21fffb15 	stw	r7,-20(r4)
   425b0:	d9c01f17 	ldw	r7,124(sp)
   425b4:	20bfff15 	stw	r2,-4(r4)
   425b8:	00800184 	movi	r2,6
   425bc:	20fffd15 	stw	r3,-12(r4)
   425c0:	21fffe15 	stw	r7,-8(r4)
   425c4:	d8801515 	stw	r2,84(sp)
   425c8:	003ef806 	br	421ac <_gp+0xfffd82c4>
   425cc:	d8801d03 	ldbu	r2,116(sp)
   425d0:	103fdb26 	beq	r2,zero,42540 <_gp+0xfffd8658>
   425d4:	d8c01917 	ldw	r3,100(sp)
   425d8:	1880004c 	andi	r2,r3,1
   425dc:	103fd81e 	bne	r2,zero,42540 <_gp+0xfffd8658>
   425e0:	d8001515 	stw	zero,84(sp)
   425e4:	00c00084 	movi	r3,2
   425e8:	003f2306 	br	42278 <_gp+0xfffd8390>
   425ec:	00c00044 	movi	r3,1
   425f0:	d8c01d05 	stb	r3,116(sp)
   425f4:	003fca06 	br	42520 <_gp+0xfffd8638>
   425f8:	d9001e17 	ldw	r4,120(sp)
   425fc:	20000426 	beq	r4,zero,42610 <__gxx_personality_sj0+0x4d0>
   42600:	d9c02017 	ldw	r7,128(sp)
   42604:	3800021e 	bne	r7,zero,42610 <__gxx_personality_sj0+0x4d0>
   42608:	d8801c17 	ldw	r2,112(sp)
   4260c:	10002726 	beq	r2,zero,426ac <__gxx_personality_sj0+0x56c>
   42610:	d8801517 	ldw	r2,84(sp)
   42614:	000d883a 	mov	r6,zero
   42618:	000b883a 	mov	r5,zero
   4261c:	0088303a 	nor	r4,zero,r2
   42620:	d8800317 	ldw	r2,12(sp)
   42624:	1109883a 	add	r4,r2,r4
   42628:	20800003 	ldbu	r2,0(r4)
   4262c:	21000044 	addi	r4,r4,1
   42630:	10c01fcc 	andi	r3,r2,127
   42634:	1946983a 	sll	r3,r3,r5
   42638:	10803fcc 	andi	r2,r2,255
   4263c:	1080201c 	xori	r2,r2,128
   42640:	10bfe004 	addi	r2,r2,-128
   42644:	30ccb03a 	or	r6,r6,r3
   42648:	294001c4 	addi	r5,r5,7
   4264c:	103ff616 	blt	r2,zero,42628 <_gp+0xfffd8740>
   42650:	3005003a 	cmpeq	r2,r6,zero
   42654:	10803fcc 	andi	r2,r2,255
   42658:	103fb126 	beq	r2,zero,42520 <_gp+0xfffd8638>
   4265c:	d9c01917 	ldw	r7,100(sp)
   42660:	3880004c 	andi	r2,r7,1
   42664:	103fb91e 	bne	r2,zero,4254c <_gp+0xfffd8664>
   42668:	d8802017 	ldw	r2,128(sp)
   4266c:	10002d26 	beq	r2,zero,42724 <__gxx_personality_sj0+0x5e4>
   42670:	00800044 	movi	r2,1
   42674:	d8800915 	stw	r2,36(sp)
   42678:	0042be80 	call	42be8 <_ZSt10unexpectedv>
   4267c:	d9800704 	addi	r6,sp,28
   42680:	180b883a 	mov	r5,r3
   42684:	1009883a 	mov	r4,r2
   42688:	0041e500 	call	41e50 <_ZL16get_adjusted_ptrPKSt9type_infoS1_PPv.constprop.3>
   4268c:	10803fcc 	andi	r2,r2,255
   42690:	103fa326 	beq	r2,zero,42520 <_gp+0xfffd8638>
   42694:	00c000c4 	movi	r3,3
   42698:	003ef406 	br	4226c <_gp+0xfffd8384>
   4269c:	010001b4 	movhi	r4,6
   426a0:	2107c504 	addi	r4,r4,7956
   426a4:	d9001e15 	stw	r4,120(sp)
   426a8:	003f5f06 	br	42428 <_gp+0xfffd8540>
   426ac:	d9001b17 	ldw	r4,108(sp)
   426b0:	00c00044 	movi	r3,1
   426b4:	193fd636 	bltu	r3,r4,42610 <_gp+0xfffd8728>
   426b8:	01ffffc4 	movi	r7,-1
   426bc:	d9c00915 	stw	r7,36(sp)
   426c0:	d9800717 	ldw	r6,28(sp)
   426c4:	d9c01517 	ldw	r7,84(sp)
   426c8:	d9401e17 	ldw	r5,120(sp)
   426cc:	d809883a 	mov	r4,sp
   426d0:	00420980 	call	42098 <_ZL20check_exception_specP16lsda_header_infoPKSt9type_infoPvl>
   426d4:	1080005c 	xori	r2,r2,1
   426d8:	003fde06 	br	42654 <_gp+0xfffd876c>
   426dc:	d9001b17 	ldw	r4,108(sp)
   426e0:	00800044 	movi	r2,1
   426e4:	113f4d36 	bltu	r2,r4,4241c <_gp+0xfffd8534>
   426e8:	d9c02317 	ldw	r7,140(sp)
   426ec:	38800017 	ldw	r2,0(r7)
   426f0:	1080004c 	andi	r2,r2,1
   426f4:	1000061e 	bne	r2,zero,42710 <__gxx_personality_sj0+0x5d0>
   426f8:	d8c02317 	ldw	r3,140(sp)
   426fc:	18800504 	addi	r2,r3,20
   42700:	d8800715 	stw	r2,28(sp)
   42704:	10bff017 	ldw	r2,-64(r2)
   42708:	d8801e15 	stw	r2,120(sp)
   4270c:	003f4606 	br	42428 <_gp+0xfffd8540>
   42710:	38bff517 	ldw	r2,-44(r7)
   42714:	003ffa06 	br	42700 <_gp+0xfffd8818>
   42718:	d9000a17 	ldw	r4,40(sp)
   4271c:	00429780 	call	42978 <__cxa_begin_catch>
   42720:	003f9106 	br	42568 <_gp+0xfffd8680>
   42724:	d9c01c17 	ldw	r7,112(sp)
   42728:	383eda1e 	bne	r7,zero,42294 <_gp+0xfffd83ac>
   4272c:	d8c01b17 	ldw	r3,108(sp)
   42730:	00800044 	movi	r2,1
   42734:	10fed736 	bltu	r2,r3,42294 <_gp+0xfffd83ac>
   42738:	00c000c4 	movi	r3,3
   4273c:	003f8e06 	br	42578 <_gp+0xfffd8690>

00042740 <__cxa_call_unexpected>:
   42740:	00800134 	movhi	r2,4
   42744:	deffe604 	addi	sp,sp,-104
   42748:	10885004 	addi	r2,r2,8512
   4274c:	d8800d15 	stw	r2,52(sp)
   42750:	008001b4 	movhi	r2,6
   42754:	10bdd904 	addi	r2,r2,-2204
   42758:	d8800e15 	stw	r2,56(sp)
   4275c:	d8800104 	addi	r2,sp,4
   42760:	d8800f15 	stw	r2,60(sp)
   42764:	00800134 	movhi	r2,4
   42768:	1089f304 	addi	r2,r2,10188
   4276c:	d9001415 	stw	r4,80(sp)
   42770:	d9000704 	addi	r4,sp,28
   42774:	dfc01915 	stw	ra,100(sp)
   42778:	d8801015 	stw	r2,64(sp)
   4277c:	df001815 	stw	fp,96(sp)
   42780:	dec01115 	stw	sp,68(sp)
   42784:	004393c0 	call	4393c <_Unwind_SjLj_Register>
   42788:	d9001417 	ldw	r4,80(sp)
   4278c:	00429780 	call	42978 <__cxa_begin_catch>
   42790:	d8c01417 	ldw	r3,80(sp)
   42794:	18bffe17 	ldw	r2,-8(r3)
   42798:	193ff717 	ldw	r4,-36(r3)
   4279c:	18fffd17 	ldw	r3,-12(r3)
   427a0:	d8800315 	stw	r2,12(sp)
   427a4:	d8c01615 	stw	r3,88(sp)
   427a8:	d8c01417 	ldw	r3,80(sp)
   427ac:	18fffb17 	ldw	r3,-20(r3)
   427b0:	d8c01515 	stw	r3,84(sp)
   427b4:	d8c01417 	ldw	r3,80(sp)
   427b8:	18fff817 	ldw	r3,-32(r3)
   427bc:	d8c01415 	stw	r3,80(sp)
   427c0:	00c00044 	movi	r3,1
   427c4:	d8c00815 	stw	r3,32(sp)
   427c8:	0042bd80 	call	42bd8 <_ZN10__cxxabiv112__unexpectedEPFvvE>
   427cc:	d8c00917 	ldw	r3,36(sp)
   427d0:	d8800817 	ldw	r2,32(sp)
   427d4:	d8c01715 	stw	r3,92(sp)
   427d8:	10000a26 	beq	r2,zero,42804 <__cxa_call_unexpected+0xc4>
   427dc:	10bfffc4 	addi	r2,r2,-1
   427e0:	10000126 	beq	r2,zero,427e8 <__cxa_call_unexpected+0xa8>
   427e4:	003b68fa 	trap	3
   427e8:	d8000815 	stw	zero,32(sp)
   427ec:	0042a2c0 	call	42a2c <__cxa_end_catch>
   427f0:	0042a2c0 	call	42a2c <__cxa_end_catch>
   427f4:	d9001717 	ldw	r4,92(sp)
   427f8:	00bfffc4 	movi	r2,-1
   427fc:	d8800815 	stw	r2,32(sp)
   42800:	0043b380 	call	43b38 <_Unwind_SjLj_Resume>
   42804:	d9001717 	ldw	r4,92(sp)
   42808:	00429780 	call	42978 <__cxa_begin_catch>
   4280c:	0042c480 	call	42c48 <__cxa_get_globals_fast>
   42810:	10800017 	ldw	r2,0(r2)
   42814:	10c00b17 	ldw	r3,44(r2)
   42818:	18c0004c 	andi	r3,r3,1
   4281c:	18001e26 	beq	r3,zero,42898 <__cxa_call_unexpected+0x158>
   42820:	10800017 	ldw	r2,0(r2)
   42824:	d8801715 	stw	r2,92(sp)
   42828:	d8801517 	ldw	r2,84(sp)
   4282c:	00802b0e 	bge	zero,r2,428dc <__cxa_call_unexpected+0x19c>
   42830:	d8c01717 	ldw	r3,92(sp)
   42834:	d8800317 	ldw	r2,12(sp)
   42838:	d9c01517 	ldw	r7,84(sp)
   4283c:	193ff017 	ldw	r4,-64(r3)
   42840:	d9801617 	ldw	r6,88(sp)
   42844:	d8800015 	stw	r2,0(sp)
   42848:	180b883a 	mov	r5,r3
   4284c:	00800084 	movi	r2,2
   42850:	d8800815 	stw	r2,32(sp)
   42854:	0041ed80 	call	41ed8 <_ZL28check_compact_exception_specPKSt9type_infoPvPKhij>
   42858:	10803fcc 	andi	r2,r2,255
   4285c:	10001e1e 	bne	r2,zero,428d8 <__cxa_call_unexpected+0x198>
   42860:	d8800317 	ldw	r2,12(sp)
   42864:	d9c01517 	ldw	r7,84(sp)
   42868:	d9801617 	ldw	r6,88(sp)
   4286c:	010001b4 	movhi	r4,6
   42870:	d8800015 	stw	r2,0(sp)
   42874:	213e9b04 	addi	r4,r4,-1428
   42878:	00800084 	movi	r2,2
   4287c:	000b883a 	mov	r5,zero
   42880:	d8800815 	stw	r2,32(sp)
   42884:	0041ed80 	call	41ed8 <_ZL28check_compact_exception_specPKSt9type_infoPvPKhij>
   42888:	10803fcc 	andi	r2,r2,255
   4288c:	1000051e 	bne	r2,zero,428a4 <__cxa_call_unexpected+0x164>
   42890:	d9001417 	ldw	r4,80(sp)
   42894:	0042b000 	call	42b00 <_ZN10__cxxabiv111__terminateEPFvvE>
   42898:	10801004 	addi	r2,r2,64
   4289c:	d8801715 	stw	r2,92(sp)
   428a0:	003fe106 	br	42828 <_gp+0xfffd8940>
   428a4:	01000104 	movi	r4,4
   428a8:	0042dc00 	call	42dc0 <__cxa_allocate_exception>
   428ac:	00c001b4 	movhi	r3,6
   428b0:	18feb604 	addi	r3,r3,-1320
   428b4:	01800134 	movhi	r6,4
   428b8:	014001b4 	movhi	r5,6
   428bc:	10c00015 	stw	r3,0(r2)
   428c0:	318c7c04 	addi	r6,r6,12784
   428c4:	00c00084 	movi	r3,2
   428c8:	297e9b04 	addi	r5,r5,-1428
   428cc:	1009883a 	mov	r4,r2
   428d0:	d8c00815 	stw	r3,32(sp)
   428d4:	00432680 	call	43268 <__cxa_throw>
   428d8:	00432f80 	call	432f8 <__cxa_rethrow>
   428dc:	d9401617 	ldw	r5,88(sp)
   428e0:	00800084 	movi	r2,2
   428e4:	d9800104 	addi	r6,sp,4
   428e8:	0009883a 	mov	r4,zero
   428ec:	d8800815 	stw	r2,32(sp)
   428f0:	0041d1c0 	call	41d1c <_ZL17parse_lsda_headerP15_Unwind_ContextPKhP16lsda_header_info>
   428f4:	d9801717 	ldw	r6,92(sp)
   428f8:	d9c01517 	ldw	r7,84(sp)
   428fc:	d9000104 	addi	r4,sp,4
   42900:	317ff017 	ldw	r5,-64(r6)
   42904:	00420980 	call	42098 <_ZL20check_exception_specP16lsda_header_infoPKSt9type_infoPvl>
   42908:	10803fcc 	andi	r2,r2,255
   4290c:	1000171e 	bne	r2,zero,4296c <__cxa_call_unexpected+0x22c>
   42910:	d9c01517 	ldw	r7,84(sp)
   42914:	014001b4 	movhi	r5,6
   42918:	00800084 	movi	r2,2
   4291c:	297e9b04 	addi	r5,r5,-1428
   42920:	000d883a 	mov	r6,zero
   42924:	d9000104 	addi	r4,sp,4
   42928:	d8800815 	stw	r2,32(sp)
   4292c:	00420980 	call	42098 <_ZL20check_exception_specP16lsda_header_infoPKSt9type_infoPvl>
   42930:	10803fcc 	andi	r2,r2,255
   42934:	103fd626 	beq	r2,zero,42890 <_gp+0xfffd89a8>
   42938:	01000104 	movi	r4,4
   4293c:	0042dc00 	call	42dc0 <__cxa_allocate_exception>
   42940:	00c001b4 	movhi	r3,6
   42944:	18feb604 	addi	r3,r3,-1320
   42948:	01800134 	movhi	r6,4
   4294c:	014001b4 	movhi	r5,6
   42950:	10c00015 	stw	r3,0(r2)
   42954:	318c7c04 	addi	r6,r6,12784
   42958:	00c00084 	movi	r3,2
   4295c:	297e9b04 	addi	r5,r5,-1428
   42960:	1009883a 	mov	r4,r2
   42964:	d8c00815 	stw	r3,32(sp)
   42968:	00432680 	call	43268 <__cxa_throw>
   4296c:	00432f80 	call	432f8 <__cxa_rethrow>

00042970 <__cxa_get_exception_ptr>:
   42970:	20bfff17 	ldw	r2,-4(r4)
   42974:	f800283a 	ret

00042978 <__cxa_begin_catch>:
   42978:	defffe04 	addi	sp,sp,-8
   4297c:	dc000015 	stw	r16,0(sp)
   42980:	dfc00115 	stw	ra,4(sp)
   42984:	2021883a 	mov	r16,r4
   42988:	0042c540 	call	42c54 <__cxa_get_globals>
   4298c:	81000017 	ldw	r4,0(r16)
   42990:	80c00117 	ldw	r3,4(r16)
   42994:	01af3574 	movhi	r6,48341
   42998:	31b54004 	addi	r6,r6,-11008
   4299c:	016e2cb4 	movhi	r5,47282
   429a0:	296aaf04 	addi	r5,r5,-21828
   429a4:	218d883a 	add	r6,r4,r6
   429a8:	3109803a 	cmpltu	r4,r6,r4
   429ac:	1947883a 	add	r3,r3,r5
   429b0:	20c7883a 	add	r3,r4,r3
   429b4:	817ff504 	addi	r5,r16,-44
   429b8:	11000017 	ldw	r4,0(r2)
   429bc:	18000726 	beq	r3,zero,429dc <__cxa_begin_catch+0x64>
   429c0:	2000191e 	bne	r4,zero,42a28 <__cxa_begin_catch+0xb0>
   429c4:	11400015 	stw	r5,0(r2)
   429c8:	0005883a 	mov	r2,zero
   429cc:	dfc00117 	ldw	ra,4(sp)
   429d0:	dc000017 	ldw	r16,0(sp)
   429d4:	dec00204 	addi	sp,sp,8
   429d8:	f800283a 	ret
   429dc:	01c00044 	movi	r7,1
   429e0:	39bff736 	bltu	r7,r6,429c0 <_gp+0xfffd8ad8>
   429e4:	80fffa17 	ldw	r3,-24(r16)
   429e8:	18000d16 	blt	r3,zero,42a20 <__cxa_begin_catch+0xa8>
   429ec:	18c00044 	addi	r3,r3,1
   429f0:	11800117 	ldw	r6,4(r2)
   429f4:	80fffa15 	stw	r3,-24(r16)
   429f8:	30ffffc4 	addi	r3,r6,-1
   429fc:	10c00115 	stw	r3,4(r2)
   42a00:	21400226 	beq	r4,r5,42a0c <__cxa_begin_catch+0x94>
   42a04:	813ff915 	stw	r4,-28(r16)
   42a08:	11400015 	stw	r5,0(r2)
   42a0c:	80bfff17 	ldw	r2,-4(r16)
   42a10:	dfc00117 	ldw	ra,4(sp)
   42a14:	dc000017 	ldw	r16,0(sp)
   42a18:	dec00204 	addi	sp,sp,8
   42a1c:	f800283a 	ret
   42a20:	38c7c83a 	sub	r3,r7,r3
   42a24:	003ff206 	br	429f0 <_gp+0xfffd8b08>
   42a28:	0042bc00 	call	42bc0 <_ZSt9terminatev>

00042a2c <__cxa_end_catch>:
   42a2c:	deffff04 	addi	sp,sp,-4
   42a30:	dfc00015 	stw	ra,0(sp)
   42a34:	0042c480 	call	42c48 <__cxa_get_globals_fast>
   42a38:	11000017 	ldw	r4,0(r2)
   42a3c:	20001426 	beq	r4,zero,42a90 <__cxa_end_catch+0x64>
   42a40:	21400b17 	ldw	r5,44(r4)
   42a44:	01ef3574 	movhi	r7,48341
   42a48:	39f54004 	addi	r7,r7,-11008
   42a4c:	29cf883a 	add	r7,r5,r7
   42a50:	20c00c17 	ldw	r3,48(r4)
   42a54:	394d803a 	cmpltu	r6,r7,r5
   42a58:	016e2cb4 	movhi	r5,47282
   42a5c:	296aaf04 	addi	r5,r5,-21828
   42a60:	1947883a 	add	r3,r3,r5
   42a64:	30c7883a 	add	r3,r6,r3
   42a68:	18000c1e 	bne	r3,zero,42a9c <__cxa_end_catch+0x70>
   42a6c:	00c00044 	movi	r3,1
   42a70:	19c00a36 	bltu	r3,r7,42a9c <__cxa_end_catch+0x70>
   42a74:	20c00517 	ldw	r3,20(r4)
   42a78:	18000d16 	blt	r3,zero,42ab0 <__cxa_end_catch+0x84>
   42a7c:	18ffffc4 	addi	r3,r3,-1
   42a80:	18001026 	beq	r3,zero,42ac4 <__cxa_end_catch+0x98>
   42a84:	00bfffc4 	movi	r2,-1
   42a88:	18801426 	beq	r3,r2,42adc <__cxa_end_catch+0xb0>
   42a8c:	20c00515 	stw	r3,20(r4)
   42a90:	dfc00017 	ldw	ra,0(sp)
   42a94:	dec00104 	addi	sp,sp,4
   42a98:	f800283a 	ret
   42a9c:	21000b04 	addi	r4,r4,44
   42aa0:	10000015 	stw	zero,0(r2)
   42aa4:	dfc00017 	ldw	ra,0(sp)
   42aa8:	dec00104 	addi	sp,sp,4
   42aac:	0043bc81 	jmpi	43bc8 <_Unwind_DeleteException>
   42ab0:	18c00044 	addi	r3,r3,1
   42ab4:	183ff51e 	bne	r3,zero,42a8c <_gp+0xfffd8ba4>
   42ab8:	21400417 	ldw	r5,16(r4)
   42abc:	11400015 	stw	r5,0(r2)
   42ac0:	003ff206 	br	42a8c <_gp+0xfffd8ba4>
   42ac4:	20c00417 	ldw	r3,16(r4)
   42ac8:	21000b04 	addi	r4,r4,44
   42acc:	10c00015 	stw	r3,0(r2)
   42ad0:	dfc00017 	ldw	ra,0(sp)
   42ad4:	dec00104 	addi	sp,sp,4
   42ad8:	0043bc81 	jmpi	43bc8 <_Unwind_DeleteException>
   42adc:	0042bc00 	call	42bc0 <_ZSt9terminatev>

00042ae0 <_ZSt18uncaught_exceptionv>:
   42ae0:	deffff04 	addi	sp,sp,-4
   42ae4:	dfc00015 	stw	ra,0(sp)
   42ae8:	0042c540 	call	42c54 <__cxa_get_globals>
   42aec:	10800117 	ldw	r2,4(r2)
   42af0:	1004c03a 	cmpne	r2,r2,zero
   42af4:	dfc00017 	ldw	ra,0(sp)
   42af8:	dec00104 	addi	sp,sp,4
   42afc:	f800283a 	ret

00042b00 <_ZN10__cxxabiv111__terminateEPFvvE>:
   42b00:	00800134 	movhi	r2,4
   42b04:	deffef04 	addi	sp,sp,-68
   42b08:	10885004 	addi	r2,r2,8512
   42b0c:	d8800615 	stw	r2,24(sp)
   42b10:	008001b4 	movhi	r2,6
   42b14:	10bddd04 	addi	r2,r2,-2188
   42b18:	d8800715 	stw	r2,28(sp)
   42b1c:	00800134 	movhi	r2,4
   42b20:	108ad604 	addi	r2,r2,11096
   42b24:	d9000d15 	stw	r4,52(sp)
   42b28:	d809883a 	mov	r4,sp
   42b2c:	d8800915 	stw	r2,36(sp)
   42b30:	dfc01015 	stw	ra,64(sp)
   42b34:	df000f15 	stw	fp,60(sp)
   42b38:	dec00815 	stw	sp,32(sp)
   42b3c:	dec00a15 	stw	sp,40(sp)
   42b40:	004393c0 	call	4393c <_Unwind_SjLj_Register>
   42b44:	00800044 	movi	r2,1
   42b48:	d8800115 	stw	r2,4(sp)
   42b4c:	d8800d17 	ldw	r2,52(sp)
   42b50:	103ee83a 	callr	r2
   42b54:	0043c540 	call	43c54 <abort>
   42b58:	d8c00217 	ldw	r3,8(sp)
   42b5c:	d8800117 	ldw	r2,4(sp)
   42b60:	d8c00d15 	stw	r3,52(sp)
   42b64:	d8c00317 	ldw	r3,12(sp)
   42b68:	d8c00e15 	stw	r3,56(sp)
   42b6c:	10000b26 	beq	r2,zero,42b9c <_ZN10__cxxabiv111__terminateEPFvvE+0x9c>
   42b70:	10bfffc4 	addi	r2,r2,-1
   42b74:	10000126 	beq	r2,zero,42b7c <_ZN10__cxxabiv111__terminateEPFvvE+0x7c>
   42b78:	003b68fa 	trap	3
   42b7c:	d8000115 	stw	zero,4(sp)
   42b80:	0042a2c0 	call	42a2c <__cxa_end_catch>
   42b84:	d8c00e17 	ldw	r3,56(sp)
   42b88:	00bfffc4 	movi	r2,-1
   42b8c:	18800826 	beq	r3,r2,42bb0 <_ZN10__cxxabiv111__terminateEPFvvE+0xb0>
   42b90:	d9000d17 	ldw	r4,52(sp)
   42b94:	d8800115 	stw	r2,4(sp)
   42b98:	0043b380 	call	43b38 <_Unwind_SjLj_Resume>
   42b9c:	d9000d17 	ldw	r4,52(sp)
   42ba0:	00429780 	call	42978 <__cxa_begin_catch>
   42ba4:	00800084 	movi	r2,2
   42ba8:	d8800115 	stw	r2,4(sp)
   42bac:	0043c540 	call	43c54 <abort>
   42bb0:	d8800e17 	ldw	r2,56(sp)
   42bb4:	d9000d17 	ldw	r4,52(sp)
   42bb8:	d8800115 	stw	r2,4(sp)
   42bbc:	00427400 	call	42740 <__cxa_call_unexpected>

00042bc0 <_ZSt9terminatev>:
   42bc0:	008001b4 	movhi	r2,6
   42bc4:	1087cb04 	addi	r2,r2,7980
   42bc8:	11000017 	ldw	r4,0(r2)
   42bcc:	deffff04 	addi	sp,sp,-4
   42bd0:	dfc00015 	stw	ra,0(sp)
   42bd4:	0042b000 	call	42b00 <_ZN10__cxxabiv111__terminateEPFvvE>

00042bd8 <_ZN10__cxxabiv112__unexpectedEPFvvE>:
   42bd8:	deffff04 	addi	sp,sp,-4
   42bdc:	dfc00015 	stw	ra,0(sp)
   42be0:	203ee83a 	callr	r4
   42be4:	0042bc00 	call	42bc0 <_ZSt9terminatev>

00042be8 <_ZSt10unexpectedv>:
   42be8:	008001b4 	movhi	r2,6
   42bec:	1087cc04 	addi	r2,r2,7984
   42bf0:	11000017 	ldw	r4,0(r2)
   42bf4:	deffff04 	addi	sp,sp,-4
   42bf8:	dfc00015 	stw	ra,0(sp)
   42bfc:	0042bd80 	call	42bd8 <_ZN10__cxxabiv112__unexpectedEPFvvE>

00042c00 <_ZSt13set_terminatePFvvE>:
   42c00:	00c001b4 	movhi	r3,6
   42c04:	18c7cb04 	addi	r3,r3,7980
   42c08:	18800017 	ldw	r2,0(r3)
   42c0c:	19000015 	stw	r4,0(r3)
   42c10:	f800283a 	ret

00042c14 <_ZSt13get_terminatev>:
   42c14:	008001b4 	movhi	r2,6
   42c18:	1087cb04 	addi	r2,r2,7980
   42c1c:	10800017 	ldw	r2,0(r2)
   42c20:	f800283a 	ret

00042c24 <_ZSt14set_unexpectedPFvvE>:
   42c24:	00c001b4 	movhi	r3,6
   42c28:	18c7cc04 	addi	r3,r3,7984
   42c2c:	18800017 	ldw	r2,0(r3)
   42c30:	19000015 	stw	r4,0(r3)
   42c34:	f800283a 	ret

00042c38 <_ZSt14get_unexpectedv>:
   42c38:	008001b4 	movhi	r2,6
   42c3c:	1087cc04 	addi	r2,r2,7984
   42c40:	10800017 	ldw	r2,0(r2)
   42c44:	f800283a 	ret

00042c48 <__cxa_get_globals_fast>:
   42c48:	008001b4 	movhi	r2,6
   42c4c:	108ee004 	addi	r2,r2,15232
   42c50:	f800283a 	ret

00042c54 <__cxa_get_globals>:
   42c54:	008001b4 	movhi	r2,6
   42c58:	108ee004 	addi	r2,r2,15232
   42c5c:	f800283a 	ret

00042c60 <_ZN12_GLOBAL__N_14pool4freeEPv.constprop.4>:
   42c60:	018001b4 	movhi	r6,6
   42c64:	318ef104 	addi	r6,r6,15300
   42c68:	31400117 	ldw	r5,4(r6)
   42c6c:	223fff04 	addi	r8,r4,-4
   42c70:	227fff17 	ldw	r9,-4(r4)
   42c74:	28001326 	beq	r5,zero,42cc4 <_ZN12_GLOBAL__N_14pool4freeEPv.constprop.4+0x64>
   42c78:	424f883a 	add	r7,r8,r9
   42c7c:	29c01426 	beq	r5,r7,42cd0 <_ZN12_GLOBAL__N_14pool4freeEPv.constprop.4+0x70>
   42c80:	28c00117 	ldw	r3,4(r5)
   42c84:	18001c26 	beq	r3,zero,42cf8 <_ZN12_GLOBAL__N_14pool4freeEPv.constprop.4+0x98>
   42c88:	38c00336 	bltu	r7,r3,42c98 <_ZN12_GLOBAL__N_14pool4freeEPv.constprop.4+0x38>
   42c8c:	00001e06 	br	42d08 <_ZN12_GLOBAL__N_14pool4freeEPv.constprop.4+0xa8>
   42c90:	3880052e 	bgeu	r7,r2,42ca8 <_ZN12_GLOBAL__N_14pool4freeEPv.constprop.4+0x48>
   42c94:	1007883a 	mov	r3,r2
   42c98:	18800117 	ldw	r2,4(r3)
   42c9c:	29800104 	addi	r6,r5,4
   42ca0:	180b883a 	mov	r5,r3
   42ca4:	103ffa1e 	bne	r2,zero,42c90 <_gp+0xfffd8da8>
   42ca8:	19400017 	ldw	r5,0(r3)
   42cac:	194f883a 	add	r7,r3,r5
   42cb0:	41c00e26 	beq	r8,r7,42cec <_ZN12_GLOBAL__N_14pool4freeEPv.constprop.4+0x8c>
   42cb4:	20800015 	stw	r2,0(r4)
   42cb8:	30800017 	ldw	r2,0(r6)
   42cbc:	12000115 	stw	r8,4(r2)
   42cc0:	f800283a 	ret
   42cc4:	20000015 	stw	zero,0(r4)
   42cc8:	32000115 	stw	r8,4(r6)
   42ccc:	f800283a 	ret
   42cd0:	28c00017 	ldw	r3,0(r5)
   42cd4:	28800117 	ldw	r2,4(r5)
   42cd8:	1a53883a 	add	r9,r3,r9
   42cdc:	227fff15 	stw	r9,-4(r4)
   42ce0:	20800015 	stw	r2,0(r4)
   42ce4:	32000115 	stw	r8,4(r6)
   42ce8:	f800283a 	ret
   42cec:	494b883a 	add	r5,r9,r5
   42cf0:	19400015 	stw	r5,0(r3)
   42cf4:	f800283a 	ret
   42cf8:	0005883a 	mov	r2,zero
   42cfc:	2807883a 	mov	r3,r5
   42d00:	31800104 	addi	r6,r6,4
   42d04:	003fe806 	br	42ca8 <_gp+0xfffd8dc0>
   42d08:	1805883a 	mov	r2,r3
   42d0c:	31800104 	addi	r6,r6,4
   42d10:	2807883a 	mov	r3,r5
   42d14:	003fe406 	br	42ca8 <_gp+0xfffd8dc0>

00042d18 <_ZN12_GLOBAL__N_14pool8allocateEj.constprop.5>:
   42d18:	20800104 	addi	r2,r4,4
   42d1c:	00c001c4 	movi	r3,7
   42d20:	1880112e 	bgeu	r3,r2,42d68 <_ZN12_GLOBAL__N_14pool8allocateEj.constprop.5+0x50>
   42d24:	20c9883a 	add	r4,r4,r3
   42d28:	00bfff04 	movi	r2,-4
   42d2c:	208a703a 	and	r5,r4,r2
   42d30:	018001b4 	movhi	r6,6
   42d34:	318ef104 	addi	r6,r6,15300
   42d38:	30c00117 	ldw	r3,4(r6)
   42d3c:	18000826 	beq	r3,zero,42d60 <_ZN12_GLOBAL__N_14pool8allocateEj.constprop.5+0x48>
   42d40:	19000017 	ldw	r4,0(r3)
   42d44:	21400436 	bltu	r4,r5,42d58 <_ZN12_GLOBAL__N_14pool8allocateEj.constprop.5+0x40>
   42d48:	00001a06 	br	42db4 <_ZN12_GLOBAL__N_14pool8allocateEj.constprop.5+0x9c>
   42d4c:	11000017 	ldw	r4,0(r2)
   42d50:	2140072e 	bgeu	r4,r5,42d70 <_ZN12_GLOBAL__N_14pool8allocateEj.constprop.5+0x58>
   42d54:	1007883a 	mov	r3,r2
   42d58:	18800117 	ldw	r2,4(r3)
   42d5c:	103ffb1e 	bne	r2,zero,42d4c <_gp+0xfffd8e64>
   42d60:	0005883a 	mov	r2,zero
   42d64:	f800283a 	ret
   42d68:	01400204 	movi	r5,8
   42d6c:	003ff006 	br	42d30 <_gp+0xfffd8e48>
   42d70:	18c00104 	addi	r3,r3,4
   42d74:	2149c83a 	sub	r4,r4,r5
   42d78:	018001c4 	movi	r6,7
   42d7c:	3100092e 	bgeu	r6,r4,42da4 <_ZN12_GLOBAL__N_14pool8allocateEj.constprop.5+0x8c>
   42d80:	11c00117 	ldw	r7,4(r2)
   42d84:	114d883a 	add	r6,r2,r5
   42d88:	31000015 	stw	r4,0(r6)
   42d8c:	31c00115 	stw	r7,4(r6)
   42d90:	18800017 	ldw	r2,0(r3)
   42d94:	11400015 	stw	r5,0(r2)
   42d98:	19800015 	stw	r6,0(r3)
   42d9c:	10800104 	addi	r2,r2,4
   42da0:	f800283a 	ret
   42da4:	11000117 	ldw	r4,4(r2)
   42da8:	10800104 	addi	r2,r2,4
   42dac:	19000015 	stw	r4,0(r3)
   42db0:	f800283a 	ret
   42db4:	1805883a 	mov	r2,r3
   42db8:	30c00104 	addi	r3,r6,4
   42dbc:	003fed06 	br	42d74 <_gp+0xfffd8e8c>

00042dc0 <__cxa_allocate_exception>:
   42dc0:	defffd04 	addi	sp,sp,-12
   42dc4:	dc400115 	stw	r17,4(sp)
   42dc8:	24401104 	addi	r17,r4,68
   42dcc:	8809883a 	mov	r4,r17
   42dd0:	dc000015 	stw	r16,0(sp)
   42dd4:	dfc00215 	stw	ra,8(sp)
   42dd8:	0043c6c0 	call	43c6c <malloc>
   42ddc:	1021883a 	mov	r16,r2
   42de0:	10000a26 	beq	r2,zero,42e0c <__cxa_allocate_exception+0x4c>
   42de4:	01801104 	movi	r6,68
   42de8:	000b883a 	mov	r5,zero
   42dec:	8009883a 	mov	r4,r16
   42df0:	00444a00 	call	444a0 <memset>
   42df4:	80801104 	addi	r2,r16,68
   42df8:	dfc00217 	ldw	ra,8(sp)
   42dfc:	dc400117 	ldw	r17,4(sp)
   42e00:	dc000017 	ldw	r16,0(sp)
   42e04:	dec00304 	addi	sp,sp,12
   42e08:	f800283a 	ret
   42e0c:	8809883a 	mov	r4,r17
   42e10:	0042d180 	call	42d18 <_ZN12_GLOBAL__N_14pool8allocateEj.constprop.5>
   42e14:	1021883a 	mov	r16,r2
   42e18:	103ff21e 	bne	r2,zero,42de4 <_gp+0xfffd8efc>
   42e1c:	0042bc00 	call	42bc0 <_ZSt9terminatev>

00042e20 <__cxa_free_exception>:
   42e20:	00c001b4 	movhi	r3,6
   42e24:	18cef104 	addi	r3,r3,15300
   42e28:	18800217 	ldw	r2,8(r3)
   42e2c:	213fef04 	addi	r4,r4,-68
   42e30:	1100042e 	bgeu	r2,r4,42e44 <__cxa_free_exception+0x24>
   42e34:	18c00317 	ldw	r3,12(r3)
   42e38:	10c5883a 	add	r2,r2,r3
   42e3c:	2080012e 	bgeu	r4,r2,42e44 <__cxa_free_exception+0x24>
   42e40:	0042c601 	jmpi	42c60 <_ZN12_GLOBAL__N_14pool4freeEPv.constprop.4>
   42e44:	0043c801 	jmpi	43c80 <free>

00042e48 <__cxa_allocate_dependent_exception>:
   42e48:	defffe04 	addi	sp,sp,-8
   42e4c:	01001004 	movi	r4,64
   42e50:	dc000015 	stw	r16,0(sp)
   42e54:	dfc00115 	stw	ra,4(sp)
   42e58:	0043c6c0 	call	43c6c <malloc>
   42e5c:	1021883a 	mov	r16,r2
   42e60:	10000926 	beq	r2,zero,42e88 <__cxa_allocate_dependent_exception+0x40>
   42e64:	01801004 	movi	r6,64
   42e68:	000b883a 	mov	r5,zero
   42e6c:	8009883a 	mov	r4,r16
   42e70:	00444a00 	call	444a0 <memset>
   42e74:	8005883a 	mov	r2,r16
   42e78:	dfc00117 	ldw	ra,4(sp)
   42e7c:	dc000017 	ldw	r16,0(sp)
   42e80:	dec00204 	addi	sp,sp,8
   42e84:	f800283a 	ret
   42e88:	01001004 	movi	r4,64
   42e8c:	0042d180 	call	42d18 <_ZN12_GLOBAL__N_14pool8allocateEj.constprop.5>
   42e90:	1021883a 	mov	r16,r2
   42e94:	103ff31e 	bne	r2,zero,42e64 <_gp+0xfffd8f7c>
   42e98:	0042bc00 	call	42bc0 <_ZSt9terminatev>

00042e9c <__cxa_free_dependent_exception>:
   42e9c:	014001b4 	movhi	r5,6
   42ea0:	294ef104 	addi	r5,r5,15300
   42ea4:	28c00217 	ldw	r3,8(r5)
   42ea8:	2005883a 	mov	r2,r4
   42eac:	1900042e 	bgeu	r3,r4,42ec0 <__cxa_free_dependent_exception+0x24>
   42eb0:	29400317 	ldw	r5,12(r5)
   42eb4:	1947883a 	add	r3,r3,r5
   42eb8:	20c0012e 	bgeu	r4,r3,42ec0 <__cxa_free_dependent_exception+0x24>
   42ebc:	0042c601 	jmpi	42c60 <_ZN12_GLOBAL__N_14pool4freeEPv.constprop.4>
   42ec0:	1009883a 	mov	r4,r2
   42ec4:	0043c801 	jmpi	43c80 <free>

00042ec8 <_GLOBAL__sub_I___cxa_allocate_exception>:
   42ec8:	defffd04 	addi	sp,sp,-12
   42ecc:	dc400115 	stw	r17,4(sp)
   42ed0:	dc000015 	stw	r16,0(sp)
   42ed4:	04424004 	movi	r17,2304
   42ed8:	040001b4 	movhi	r16,6
   42edc:	840ef104 	addi	r16,r16,15300
   42ee0:	8809883a 	mov	r4,r17
   42ee4:	dfc00215 	stw	ra,8(sp)
   42ee8:	84400315 	stw	r17,12(r16)
   42eec:	0043c6c0 	call	43c6c <malloc>
   42ef0:	80800215 	stw	r2,8(r16)
   42ef4:	10000826 	beq	r2,zero,42f18 <_GLOBAL__sub_I___cxa_allocate_exception+0x50>
   42ef8:	80800115 	stw	r2,4(r16)
   42efc:	14400015 	stw	r17,0(r2)
   42f00:	10000115 	stw	zero,4(r2)
   42f04:	dfc00217 	ldw	ra,8(sp)
   42f08:	dc400117 	ldw	r17,4(sp)
   42f0c:	dc000017 	ldw	r16,0(sp)
   42f10:	dec00304 	addi	sp,sp,12
   42f14:	f800283a 	ret
   42f18:	80000315 	stw	zero,12(r16)
   42f1c:	80000115 	stw	zero,4(r16)
   42f20:	003ff806 	br	42f04 <_gp+0xfffd901c>

00042f24 <_ZNK10__cxxabiv117__class_type_info11__do_upcastEPKS0_PPv>:
   42f24:	20800017 	ldw	r2,0(r4)
   42f28:	defffa04 	addi	sp,sp,-24
   42f2c:	dc000415 	stw	r16,16(sp)
   42f30:	10800617 	ldw	r2,24(r2)
   42f34:	3021883a 	mov	r16,r6
   42f38:	31800017 	ldw	r6,0(r6)
   42f3c:	00c00404 	movi	r3,16
   42f40:	d8c00215 	stw	r3,8(sp)
   42f44:	dfc00515 	stw	ra,20(sp)
   42f48:	d8000015 	stw	zero,0(sp)
   42f4c:	d8000115 	stw	zero,4(sp)
   42f50:	d8000315 	stw	zero,12(sp)
   42f54:	d80f883a 	mov	r7,sp
   42f58:	103ee83a 	callr	r2
   42f5c:	d8800117 	ldw	r2,4(sp)
   42f60:	00c00184 	movi	r3,6
   42f64:	1080018c 	andi	r2,r2,6
   42f68:	10c00526 	beq	r2,r3,42f80 <_ZNK10__cxxabiv117__class_type_info11__do_upcastEPKS0_PPv+0x5c>
   42f6c:	0005883a 	mov	r2,zero
   42f70:	dfc00517 	ldw	ra,20(sp)
   42f74:	dc000417 	ldw	r16,16(sp)
   42f78:	dec00604 	addi	sp,sp,24
   42f7c:	f800283a 	ret
   42f80:	d8c00017 	ldw	r3,0(sp)
   42f84:	00800044 	movi	r2,1
   42f88:	80c00015 	stw	r3,0(r16)
   42f8c:	dfc00517 	ldw	ra,20(sp)
   42f90:	dc000417 	ldw	r16,16(sp)
   42f94:	dec00604 	addi	sp,sp,24
   42f98:	f800283a 	ret

00042f9c <_ZNK10__cxxabiv117__class_type_info20__do_find_public_srcEiPKvPKS0_S2_>:
   42f9c:	d8800017 	ldw	r2,0(sp)
   42fa0:	11800226 	beq	r2,r6,42fac <_ZNK10__cxxabiv117__class_type_info20__do_find_public_srcEiPKvPKS0_S2_+0x10>
   42fa4:	00800044 	movi	r2,1
   42fa8:	f800283a 	ret
   42fac:	00800184 	movi	r2,6
   42fb0:	f800283a 	ret

00042fb4 <_ZN10__cxxabiv117__class_type_infoD1Ev>:
   42fb4:	008001b4 	movhi	r2,6
   42fb8:	10be8004 	addi	r2,r2,-1536
   42fbc:	20800015 	stw	r2,0(r4)
   42fc0:	00436981 	jmpi	43698 <_ZNSt9type_infoD1Ev>

00042fc4 <_ZN10__cxxabiv117__class_type_infoD0Ev>:
   42fc4:	defffe04 	addi	sp,sp,-8
   42fc8:	008001b4 	movhi	r2,6
   42fcc:	dc000015 	stw	r16,0(sp)
   42fd0:	dfc00115 	stw	ra,4(sp)
   42fd4:	10be8004 	addi	r2,r2,-1536
   42fd8:	20800015 	stw	r2,0(r4)
   42fdc:	2021883a 	mov	r16,r4
   42fe0:	00436980 	call	43698 <_ZNSt9type_infoD1Ev>
   42fe4:	8009883a 	mov	r4,r16
   42fe8:	dfc00117 	ldw	ra,4(sp)
   42fec:	dc000017 	ldw	r16,0(sp)
   42ff0:	dec00204 	addi	sp,sp,8
   42ff4:	00419881 	jmpi	41988 <_ZdlPv>

00042ff8 <_ZNK10__cxxabiv117__class_type_info11__do_upcastEPKS0_PKvRNS0_15__upcast_resultE>:
   42ff8:	21000117 	ldw	r4,4(r4)
   42ffc:	29400117 	ldw	r5,4(r5)
   43000:	defffd04 	addi	sp,sp,-12
   43004:	dc400115 	stw	r17,4(sp)
   43008:	dc000015 	stw	r16,0(sp)
   4300c:	dfc00215 	stw	ra,8(sp)
   43010:	3023883a 	mov	r17,r6
   43014:	3821883a 	mov	r16,r7
   43018:	21400526 	beq	r4,r5,43030 <_ZNK10__cxxabiv117__class_type_info11__do_upcastEPKS0_PKvRNS0_15__upcast_resultE+0x38>
   4301c:	20c00007 	ldb	r3,0(r4)
   43020:	00800a84 	movi	r2,42
   43024:	18800d26 	beq	r3,r2,4305c <_ZNK10__cxxabiv117__class_type_info11__do_upcastEPKS0_PKvRNS0_15__upcast_resultE+0x64>
   43028:	0044dc00 	call	44dc0 <strcmp>
   4302c:	10000b1e 	bne	r2,zero,4305c <_ZNK10__cxxabiv117__class_type_info11__do_upcastEPKS0_PKvRNS0_15__upcast_resultE+0x64>
   43030:	00800204 	movi	r2,8
   43034:	80800315 	stw	r2,12(r16)
   43038:	00800184 	movi	r2,6
   4303c:	80800115 	stw	r2,4(r16)
   43040:	84400015 	stw	r17,0(r16)
   43044:	00800044 	movi	r2,1
   43048:	dfc00217 	ldw	ra,8(sp)
   4304c:	dc400117 	ldw	r17,4(sp)
   43050:	dc000017 	ldw	r16,0(sp)
   43054:	dec00304 	addi	sp,sp,12
   43058:	f800283a 	ret
   4305c:	0005883a 	mov	r2,zero
   43060:	003ff906 	br	43048 <_gp+0xfffd9160>

00043064 <_ZNK10__cxxabiv117__class_type_info12__do_dyncastEiNS0_10__sub_kindEPKS0_PKvS3_S5_RNS0_16__dyncast_resultE>:
   43064:	defffa04 	addi	sp,sp,-24
   43068:	dc800415 	stw	r18,16(sp)
   4306c:	d8800817 	ldw	r2,32(sp)
   43070:	dc800617 	ldw	r18,24(sp)
   43074:	dc400315 	stw	r17,12(sp)
   43078:	dc000215 	stw	r16,8(sp)
   4307c:	dfc00515 	stw	ra,20(sp)
   43080:	dc400917 	ldw	r17,36(sp)
   43084:	24000117 	ldw	r16,4(r4)
   43088:	90801526 	beq	r18,r2,430e0 <_ZNK10__cxxabiv117__class_type_info12__do_dyncastEiNS0_10__sub_kindEPKS0_PKvS3_S5_RNS0_16__dyncast_resultE+0x7c>
   4308c:	39400117 	ldw	r5,4(r7)
   43090:	2c000826 	beq	r5,r16,430b4 <_ZNK10__cxxabiv117__class_type_info12__do_dyncastEiNS0_10__sub_kindEPKS0_PKvS3_S5_RNS0_16__dyncast_resultE+0x50>
   43094:	80c00007 	ldb	r3,0(r16)
   43098:	00800a84 	movi	r2,42
   4309c:	18800926 	beq	r3,r2,430c4 <_ZNK10__cxxabiv117__class_type_info12__do_dyncastEiNS0_10__sub_kindEPKS0_PKvS3_S5_RNS0_16__dyncast_resultE+0x60>
   430a0:	8009883a 	mov	r4,r16
   430a4:	d9800115 	stw	r6,4(sp)
   430a8:	0044dc00 	call	44dc0 <strcmp>
   430ac:	d9800117 	ldw	r6,4(sp)
   430b0:	1000041e 	bne	r2,zero,430c4 <_ZNK10__cxxabiv117__class_type_info12__do_dyncastEiNS0_10__sub_kindEPKS0_PKvS3_S5_RNS0_16__dyncast_resultE+0x60>
   430b4:	00800044 	movi	r2,1
   430b8:	8c800015 	stw	r18,0(r17)
   430bc:	89800115 	stw	r6,4(r17)
   430c0:	88800315 	stw	r2,12(r17)
   430c4:	0005883a 	mov	r2,zero
   430c8:	dfc00517 	ldw	ra,20(sp)
   430cc:	dc800417 	ldw	r18,16(sp)
   430d0:	dc400317 	ldw	r17,12(sp)
   430d4:	dc000217 	ldw	r16,8(sp)
   430d8:	dec00604 	addi	sp,sp,24
   430dc:	f800283a 	ret
   430e0:	d8800717 	ldw	r2,28(sp)
   430e4:	11400117 	ldw	r5,4(r2)
   430e8:	81400a26 	beq	r16,r5,43114 <_ZNK10__cxxabiv117__class_type_info12__do_dyncastEiNS0_10__sub_kindEPKS0_PKvS3_S5_RNS0_16__dyncast_resultE+0xb0>
   430ec:	80c00007 	ldb	r3,0(r16)
   430f0:	00800a84 	movi	r2,42
   430f4:	18800c26 	beq	r3,r2,43128 <_ZNK10__cxxabiv117__class_type_info12__do_dyncastEiNS0_10__sub_kindEPKS0_PKvS3_S5_RNS0_16__dyncast_resultE+0xc4>
   430f8:	8009883a 	mov	r4,r16
   430fc:	d9800115 	stw	r6,4(sp)
   43100:	d9c00015 	stw	r7,0(sp)
   43104:	0044dc00 	call	44dc0 <strcmp>
   43108:	d9800117 	ldw	r6,4(sp)
   4310c:	d9c00017 	ldw	r7,0(sp)
   43110:	1000021e 	bne	r2,zero,4311c <_ZNK10__cxxabiv117__class_type_info12__do_dyncastEiNS0_10__sub_kindEPKS0_PKvS3_S5_RNS0_16__dyncast_resultE+0xb8>
   43114:	89800215 	stw	r6,8(r17)
   43118:	003fea06 	br	430c4 <_gp+0xfffd91dc>
   4311c:	39400117 	ldw	r5,4(r7)
   43120:	817fdf1e 	bne	r16,r5,430a0 <_gp+0xfffd91b8>
   43124:	003fe306 	br	430b4 <_gp+0xfffd91cc>
   43128:	38800117 	ldw	r2,4(r7)
   4312c:	80bfe51e 	bne	r16,r2,430c4 <_gp+0xfffd91dc>
   43130:	003fe006 	br	430b4 <_gp+0xfffd91cc>

00043134 <_ZNK10__cxxabiv117__class_type_info10__do_catchEPKSt9type_infoPPvj>:
   43134:	20800117 	ldw	r2,4(r4)
   43138:	28c00117 	ldw	r3,4(r5)
   4313c:	10c02926 	beq	r2,r3,431e4 <_ZNK10__cxxabiv117__class_type_info10__do_catchEPKSt9type_infoPPvj+0xb0>
   43140:	defffb04 	addi	sp,sp,-20
   43144:	dcc00315 	stw	r19,12(sp)
   43148:	dc800215 	stw	r18,8(sp)
   4314c:	dc400115 	stw	r17,4(sp)
   43150:	dc000015 	stw	r16,0(sp)
   43154:	dfc00415 	stw	ra,16(sp)
   43158:	2821883a 	mov	r16,r5
   4315c:	11400007 	ldb	r5,0(r2)
   43160:	2025883a 	mov	r18,r4
   43164:	01000a84 	movi	r4,42
   43168:	3823883a 	mov	r17,r7
   4316c:	3027883a 	mov	r19,r6
   43170:	29000626 	beq	r5,r4,4318c <_ZNK10__cxxabiv117__class_type_info10__do_catchEPKSt9type_infoPPvj+0x58>
   43174:	180b883a 	mov	r5,r3
   43178:	1009883a 	mov	r4,r2
   4317c:	0044dc00 	call	44dc0 <strcmp>
   43180:	1000021e 	bne	r2,zero,4318c <_ZNK10__cxxabiv117__class_type_info10__do_catchEPKSt9type_infoPPvj+0x58>
   43184:	00800044 	movi	r2,1
   43188:	00000306 	br	43198 <_ZNK10__cxxabiv117__class_type_info10__do_catchEPKSt9type_infoPPvj+0x64>
   4318c:	008000c4 	movi	r2,3
   43190:	1440082e 	bgeu	r2,r17,431b4 <_ZNK10__cxxabiv117__class_type_info10__do_catchEPKSt9type_infoPPvj+0x80>
   43194:	0005883a 	mov	r2,zero
   43198:	dfc00417 	ldw	ra,16(sp)
   4319c:	dcc00317 	ldw	r19,12(sp)
   431a0:	dc800217 	ldw	r18,8(sp)
   431a4:	dc400117 	ldw	r17,4(sp)
   431a8:	dc000017 	ldw	r16,0(sp)
   431ac:	dec00504 	addi	sp,sp,20
   431b0:	f800283a 	ret
   431b4:	80800017 	ldw	r2,0(r16)
   431b8:	980d883a 	mov	r6,r19
   431bc:	900b883a 	mov	r5,r18
   431c0:	10800517 	ldw	r2,20(r2)
   431c4:	8009883a 	mov	r4,r16
   431c8:	dfc00417 	ldw	ra,16(sp)
   431cc:	dcc00317 	ldw	r19,12(sp)
   431d0:	dc800217 	ldw	r18,8(sp)
   431d4:	dc400117 	ldw	r17,4(sp)
   431d8:	dc000017 	ldw	r16,0(sp)
   431dc:	dec00504 	addi	sp,sp,20
   431e0:	1000683a 	jmp	r2
   431e4:	00800044 	movi	r2,1
   431e8:	f800283a 	ret

000431ec <_ZNSt9exceptionD1Ev>:
   431ec:	f800283a 	ret

000431f0 <_ZNSt13bad_exceptionD1Ev>:
   431f0:	f800283a 	ret

000431f4 <_ZNKSt9exception4whatEv>:
   431f4:	008001b4 	movhi	r2,6
   431f8:	10be8904 	addi	r2,r2,-1500
   431fc:	f800283a 	ret

00043200 <_ZNKSt13bad_exception4whatEv>:
   43200:	008001b4 	movhi	r2,6
   43204:	10be8d04 	addi	r2,r2,-1484
   43208:	f800283a 	ret

0004320c <_ZNSt9exceptionD0Ev>:
   4320c:	00419881 	jmpi	41988 <_ZdlPv>

00043210 <_ZNSt13bad_exceptionD0Ev>:
   43210:	00419881 	jmpi	41988 <_ZdlPv>

00043214 <_ZN10__cxxabiv115__forced_unwindD1Ev>:
   43214:	f800283a 	ret

00043218 <_ZN10__cxxabiv115__forced_unwindD0Ev>:
   43218:	00419881 	jmpi	41988 <_ZdlPv>

0004321c <_ZN10__cxxabiv119__foreign_exceptionD1Ev>:
   4321c:	f800283a 	ret

00043220 <_ZN10__cxxabiv119__foreign_exceptionD0Ev>:
   43220:	00419881 	jmpi	41988 <_ZdlPv>

00043224 <_ZL23__gxx_exception_cleanup19_Unwind_Reason_CodeP17_Unwind_Exception>:
   43224:	defffe04 	addi	sp,sp,-8
   43228:	dfc00115 	stw	ra,4(sp)
   4322c:	dc000015 	stw	r16,0(sp)
   43230:	00800044 	movi	r2,1
   43234:	11000a36 	bltu	r2,r4,43260 <_ZL23__gxx_exception_cleanup19_Unwind_Reason_CodeP17_Unwind_Exception+0x3c>
   43238:	28bff617 	ldw	r2,-40(r5)
   4323c:	2c000504 	addi	r16,r5,20
   43240:	10000226 	beq	r2,zero,4324c <_ZL23__gxx_exception_cleanup19_Unwind_Reason_CodeP17_Unwind_Exception+0x28>
   43244:	8009883a 	mov	r4,r16
   43248:	103ee83a 	callr	r2
   4324c:	8009883a 	mov	r4,r16
   43250:	dfc00117 	ldw	ra,4(sp)
   43254:	dc000017 	ldw	r16,0(sp)
   43258:	dec00204 	addi	sp,sp,8
   4325c:	0042e201 	jmpi	42e20 <__cxa_free_exception>
   43260:	293ff817 	ldw	r4,-32(r5)
   43264:	0042b000 	call	42b00 <_ZN10__cxxabiv111__terminateEPFvvE>

00043268 <__cxa_throw>:
   43268:	defffb04 	addi	sp,sp,-20
   4326c:	dfc00415 	stw	ra,16(sp)
   43270:	dcc00315 	stw	r19,12(sp)
   43274:	dc800215 	stw	r18,8(sp)
   43278:	2827883a 	mov	r19,r5
   4327c:	3025883a 	mov	r18,r6
   43280:	dc400115 	stw	r17,4(sp)
   43284:	dc000015 	stw	r16,0(sp)
   43288:	2021883a 	mov	r16,r4
   4328c:	0042c540 	call	42c54 <__cxa_get_globals>
   43290:	10c00117 	ldw	r3,4(r2)
   43294:	847ffb04 	addi	r17,r16,-20
   43298:	18c00044 	addi	r3,r3,1
   4329c:	10c00115 	stw	r3,4(r2)
   432a0:	00800044 	movi	r2,1
   432a4:	80bfef15 	stw	r2,-68(r16)
   432a8:	84fff015 	stw	r19,-64(r16)
   432ac:	84bff115 	stw	r18,-60(r16)
   432b0:	0042c380 	call	42c38 <_ZSt14get_unexpectedv>
   432b4:	80bff215 	stw	r2,-56(r16)
   432b8:	0042c140 	call	42c14 <_ZSt13get_terminatev>
   432bc:	80bff315 	stw	r2,-52(r16)
   432c0:	0090caf4 	movhi	r2,17195
   432c4:	108ac004 	addi	r2,r2,11008
   432c8:	80bffb15 	stw	r2,-20(r16)
   432cc:	0091d3b4 	movhi	r2,18254
   432d0:	109550c4 	addi	r2,r2,21827
   432d4:	80bffc15 	stw	r2,-16(r16)
   432d8:	00800134 	movhi	r2,4
   432dc:	108c8904 	addi	r2,r2,12836
   432e0:	8809883a 	mov	r4,r17
   432e4:	80bffd15 	stw	r2,-12(r16)
   432e8:	0043a240 	call	43a24 <_Unwind_SjLj_RaiseException>
   432ec:	8809883a 	mov	r4,r17
   432f0:	00429780 	call	42978 <__cxa_begin_catch>
   432f4:	0042bc00 	call	42bc0 <_ZSt9terminatev>

000432f8 <__cxa_rethrow>:
   432f8:	defffe04 	addi	sp,sp,-8
   432fc:	dfc00115 	stw	ra,4(sp)
   43300:	dc000015 	stw	r16,0(sp)
   43304:	0042c540 	call	42c54 <__cxa_get_globals>
   43308:	10c00117 	ldw	r3,4(r2)
   4330c:	11000017 	ldw	r4,0(r2)
   43310:	18c00044 	addi	r3,r3,1
   43314:	10c00115 	stw	r3,4(r2)
   43318:	20001126 	beq	r4,zero,43360 <__cxa_rethrow+0x68>
   4331c:	21400b17 	ldw	r5,44(r4)
   43320:	01ef3574 	movhi	r7,48341
   43324:	39f54004 	addi	r7,r7,-11008
   43328:	29cf883a 	add	r7,r5,r7
   4332c:	20c00c17 	ldw	r3,48(r4)
   43330:	394d803a 	cmpltu	r6,r7,r5
   43334:	016e2cb4 	movhi	r5,47282
   43338:	296aaf04 	addi	r5,r5,-21828
   4333c:	1947883a 	add	r3,r3,r5
   43340:	30c7883a 	add	r3,r6,r3
   43344:	18000726 	beq	r3,zero,43364 <__cxa_rethrow+0x6c>
   43348:	10000015 	stw	zero,0(r2)
   4334c:	24000b04 	addi	r16,r4,44
   43350:	8009883a 	mov	r4,r16
   43354:	0043b7c0 	call	43b7c <_Unwind_SjLj_Resume_or_Rethrow>
   43358:	8009883a 	mov	r4,r16
   4335c:	00429780 	call	42978 <__cxa_begin_catch>
   43360:	0042bc00 	call	42bc0 <_ZSt9terminatev>
   43364:	00c00044 	movi	r3,1
   43368:	19fff736 	bltu	r3,r7,43348 <_gp+0xfffd9460>
   4336c:	20800517 	ldw	r2,20(r4)
   43370:	0085c83a 	sub	r2,zero,r2
   43374:	20800515 	stw	r2,20(r4)
   43378:	003ff406 	br	4334c <_gp+0xfffd9464>

0004337c <__cxa_call_terminate>:
   4337c:	defffe04 	addi	sp,sp,-8
   43380:	dfc00115 	stw	ra,4(sp)
   43384:	dc000015 	stw	r16,0(sp)
   43388:	20000d26 	beq	r4,zero,433c0 <__cxa_call_terminate+0x44>
   4338c:	2021883a 	mov	r16,r4
   43390:	00429780 	call	42978 <__cxa_begin_catch>
   43394:	80c00017 	ldw	r3,0(r16)
   43398:	016f3574 	movhi	r5,48341
   4339c:	29754004 	addi	r5,r5,-11008
   433a0:	194b883a 	add	r5,r3,r5
   433a4:	80800117 	ldw	r2,4(r16)
   433a8:	28c9803a 	cmpltu	r4,r5,r3
   433ac:	00ee2cb4 	movhi	r3,47282
   433b0:	18eaaf04 	addi	r3,r3,-21828
   433b4:	10c5883a 	add	r2,r2,r3
   433b8:	2085883a 	add	r2,r4,r2
   433bc:	10000126 	beq	r2,zero,433c4 <__cxa_call_terminate+0x48>
   433c0:	0042bc00 	call	42bc0 <_ZSt9terminatev>
   433c4:	00800044 	movi	r2,1
   433c8:	117ffd36 	bltu	r2,r5,433c0 <_gp+0xfffd94d8>
   433cc:	813ff817 	ldw	r4,-32(r16)
   433d0:	0042b000 	call	42b00 <_ZN10__cxxabiv111__terminateEPFvvE>

000433d4 <_ZN10__cxxabiv120__si_class_type_infoD1Ev>:
   433d4:	008001b4 	movhi	r2,6
   433d8:	10bed204 	addi	r2,r2,-1208
   433dc:	20800015 	stw	r2,0(r4)
   433e0:	0042fb41 	jmpi	42fb4 <_ZN10__cxxabiv117__class_type_infoD1Ev>

000433e4 <_ZN10__cxxabiv120__si_class_type_infoD0Ev>:
   433e4:	defffe04 	addi	sp,sp,-8
   433e8:	008001b4 	movhi	r2,6
   433ec:	dc000015 	stw	r16,0(sp)
   433f0:	dfc00115 	stw	ra,4(sp)
   433f4:	10bed204 	addi	r2,r2,-1208
   433f8:	20800015 	stw	r2,0(r4)
   433fc:	2021883a 	mov	r16,r4
   43400:	0042fb40 	call	42fb4 <_ZN10__cxxabiv117__class_type_infoD1Ev>
   43404:	8009883a 	mov	r4,r16
   43408:	dfc00117 	ldw	ra,4(sp)
   4340c:	dc000017 	ldw	r16,0(sp)
   43410:	dec00204 	addi	sp,sp,8
   43414:	00419881 	jmpi	41988 <_ZdlPv>

00043418 <_ZNK10__cxxabiv120__si_class_type_info12__do_dyncastEiNS_17__class_type_info10__sub_kindEPKS1_PKvS4_S6_RNS1_16__dyncast_resultE>:
   43418:	defff504 	addi	sp,sp,-44
   4341c:	dc000115 	stw	r16,4(sp)
   43420:	38800117 	ldw	r2,4(r7)
   43424:	24000117 	ldw	r16,4(r4)
   43428:	df000915 	stw	fp,36(sp)
   4342c:	ddc00815 	stw	r23,32(sp)
   43430:	dd800715 	stw	r22,28(sp)
   43434:	dcc00415 	stw	r19,16(sp)
   43438:	dc800315 	stw	r18,12(sp)
   4343c:	dc400215 	stw	r17,8(sp)
   43440:	dfc00a15 	stw	ra,40(sp)
   43444:	dd400615 	stw	r21,24(sp)
   43448:	dd000515 	stw	r20,20(sp)
   4344c:	2823883a 	mov	r17,r5
   43450:	3039883a 	mov	fp,r6
   43454:	dcc00b17 	ldw	r19,44(sp)
   43458:	ddc00c17 	ldw	r23,48(sp)
   4345c:	dd800d17 	ldw	r22,52(sp)
   43460:	dc800e17 	ldw	r18,56(sp)
   43464:	80800b26 	beq	r16,r2,43494 <_ZNK10__cxxabiv120__si_class_type_info12__do_dyncastEiNS_17__class_type_info10__sub_kindEPKS1_PKvS4_S6_RNS1_16__dyncast_resultE+0x7c>
   43468:	80c00007 	ldb	r3,0(r16)
   4346c:	2029883a 	mov	r20,r4
   43470:	01000a84 	movi	r4,42
   43474:	382b883a 	mov	r21,r7
   43478:	19001a26 	beq	r3,r4,434e4 <_ZNK10__cxxabiv120__si_class_type_info12__do_dyncastEiNS_17__class_type_info10__sub_kindEPKS1_PKvS4_S6_RNS1_16__dyncast_resultE+0xcc>
   4347c:	100b883a 	mov	r5,r2
   43480:	8009883a 	mov	r4,r16
   43484:	d8c00015 	stw	r3,0(sp)
   43488:	0044dc00 	call	44dc0 <strcmp>
   4348c:	d8c00017 	ldw	r3,0(sp)
   43490:	1000141e 	bne	r2,zero,434e4 <_ZNK10__cxxabiv120__si_class_type_info12__do_dyncastEiNS_17__class_type_info10__sub_kindEPKS1_PKvS4_S6_RNS1_16__dyncast_resultE+0xcc>
   43494:	94c00015 	stw	r19,0(r18)
   43498:	97000115 	stw	fp,4(r18)
   4349c:	88002816 	blt	r17,zero,43540 <_ZNK10__cxxabiv120__si_class_type_info12__do_dyncastEiNS_17__class_type_info10__sub_kindEPKS1_PKvS4_S6_RNS1_16__dyncast_resultE+0x128>
   434a0:	9c63883a 	add	r17,r19,r17
   434a4:	b4403226 	beq	r22,r17,43570 <_ZNK10__cxxabiv120__si_class_type_info12__do_dyncastEiNS_17__class_type_info10__sub_kindEPKS1_PKvS4_S6_RNS1_16__dyncast_resultE+0x158>
   434a8:	00800044 	movi	r2,1
   434ac:	90800315 	stw	r2,12(r18)
   434b0:	0005883a 	mov	r2,zero
   434b4:	dfc00a17 	ldw	ra,40(sp)
   434b8:	df000917 	ldw	fp,36(sp)
   434bc:	ddc00817 	ldw	r23,32(sp)
   434c0:	dd800717 	ldw	r22,28(sp)
   434c4:	dd400617 	ldw	r21,24(sp)
   434c8:	dd000517 	ldw	r20,20(sp)
   434cc:	dcc00417 	ldw	r19,16(sp)
   434d0:	dc800317 	ldw	r18,12(sp)
   434d4:	dc400217 	ldw	r17,8(sp)
   434d8:	dc000117 	ldw	r16,4(sp)
   434dc:	dec00b04 	addi	sp,sp,44
   434e0:	f800283a 	ret
   434e4:	9d801926 	beq	r19,r22,4354c <_ZNK10__cxxabiv120__si_class_type_info12__do_dyncastEiNS_17__class_type_info10__sub_kindEPKS1_PKvS4_S6_RNS1_16__dyncast_resultE+0x134>
   434e8:	a1000217 	ldw	r4,8(r20)
   434ec:	a80f883a 	mov	r7,r21
   434f0:	e00d883a 	mov	r6,fp
   434f4:	20800017 	ldw	r2,0(r4)
   434f8:	dc800e15 	stw	r18,56(sp)
   434fc:	dd800d15 	stw	r22,52(sp)
   43500:	ddc00c15 	stw	r23,48(sp)
   43504:	dcc00b15 	stw	r19,44(sp)
   43508:	10800717 	ldw	r2,28(r2)
   4350c:	880b883a 	mov	r5,r17
   43510:	dfc00a17 	ldw	ra,40(sp)
   43514:	df000917 	ldw	fp,36(sp)
   43518:	ddc00817 	ldw	r23,32(sp)
   4351c:	dd800717 	ldw	r22,28(sp)
   43520:	dd400617 	ldw	r21,24(sp)
   43524:	dd000517 	ldw	r20,20(sp)
   43528:	dcc00417 	ldw	r19,16(sp)
   4352c:	dc800317 	ldw	r18,12(sp)
   43530:	dc400217 	ldw	r17,8(sp)
   43534:	dc000117 	ldw	r16,4(sp)
   43538:	dec00b04 	addi	sp,sp,44
   4353c:	1000683a 	jmp	r2
   43540:	00bfff84 	movi	r2,-2
   43544:	88bfda1e 	bne	r17,r2,434b0 <_gp+0xfffd95c8>
   43548:	003fd706 	br	434a8 <_gp+0xfffd95c0>
   4354c:	b9400117 	ldw	r5,4(r23)
   43550:	81400526 	beq	r16,r5,43568 <_ZNK10__cxxabiv120__si_class_type_info12__do_dyncastEiNS_17__class_type_info10__sub_kindEPKS1_PKvS4_S6_RNS1_16__dyncast_resultE+0x150>
   43554:	00800a84 	movi	r2,42
   43558:	18bfe326 	beq	r3,r2,434e8 <_gp+0xfffd9600>
   4355c:	8009883a 	mov	r4,r16
   43560:	0044dc00 	call	44dc0 <strcmp>
   43564:	103fe01e 	bne	r2,zero,434e8 <_gp+0xfffd9600>
   43568:	97000215 	stw	fp,8(r18)
   4356c:	003fd006 	br	434b0 <_gp+0xfffd95c8>
   43570:	00800184 	movi	r2,6
   43574:	003fcd06 	br	434ac <_gp+0xfffd95c4>

00043578 <_ZNK10__cxxabiv120__si_class_type_info20__do_find_public_srcEiPKvPKNS_17__class_type_infoES2_>:
   43578:	defffa04 	addi	sp,sp,-24
   4357c:	dc000215 	stw	r16,8(sp)
   43580:	dc000617 	ldw	r16,24(sp)
   43584:	dc800415 	stw	r18,16(sp)
   43588:	dc400315 	stw	r17,12(sp)
   4358c:	dfc00515 	stw	ra,20(sp)
   43590:	2023883a 	mov	r17,r4
   43594:	2825883a 	mov	r18,r5
   43598:	81800b26 	beq	r16,r6,435c8 <_ZNK10__cxxabiv120__si_class_type_info20__do_find_public_srcEiPKvPKNS_17__class_type_infoES2_+0x50>
   4359c:	89000217 	ldw	r4,8(r17)
   435a0:	900b883a 	mov	r5,r18
   435a4:	20800017 	ldw	r2,0(r4)
   435a8:	dc000615 	stw	r16,24(sp)
   435ac:	10800817 	ldw	r2,32(r2)
   435b0:	dfc00517 	ldw	ra,20(sp)
   435b4:	dc800417 	ldw	r18,16(sp)
   435b8:	dc400317 	ldw	r17,12(sp)
   435bc:	dc000217 	ldw	r16,8(sp)
   435c0:	dec00604 	addi	sp,sp,24
   435c4:	1000683a 	jmp	r2
   435c8:	21000117 	ldw	r4,4(r4)
   435cc:	39400117 	ldw	r5,4(r7)
   435d0:	21400926 	beq	r4,r5,435f8 <_ZNK10__cxxabiv120__si_class_type_info20__do_find_public_srcEiPKvPKNS_17__class_type_infoES2_+0x80>
   435d4:	20c00007 	ldb	r3,0(r4)
   435d8:	00800a84 	movi	r2,42
   435dc:	18bfef26 	beq	r3,r2,4359c <_gp+0xfffd96b4>
   435e0:	d9800015 	stw	r6,0(sp)
   435e4:	d9c00115 	stw	r7,4(sp)
   435e8:	0044dc00 	call	44dc0 <strcmp>
   435ec:	d9800017 	ldw	r6,0(sp)
   435f0:	d9c00117 	ldw	r7,4(sp)
   435f4:	103fe91e 	bne	r2,zero,4359c <_gp+0xfffd96b4>
   435f8:	00800184 	movi	r2,6
   435fc:	dfc00517 	ldw	ra,20(sp)
   43600:	dc800417 	ldw	r18,16(sp)
   43604:	dc400317 	ldw	r17,12(sp)
   43608:	dc000217 	ldw	r16,8(sp)
   4360c:	dec00604 	addi	sp,sp,24
   43610:	f800283a 	ret

00043614 <_ZNK10__cxxabiv120__si_class_type_info11__do_upcastEPKNS_17__class_type_infoEPKvRNS1_15__upcast_resultE>:
   43614:	defffb04 	addi	sp,sp,-20
   43618:	dcc00315 	stw	r19,12(sp)
   4361c:	dc800215 	stw	r18,8(sp)
   43620:	dc400115 	stw	r17,4(sp)
   43624:	dc000015 	stw	r16,0(sp)
   43628:	dfc00415 	stw	ra,16(sp)
   4362c:	2027883a 	mov	r19,r4
   43630:	2821883a 	mov	r16,r5
   43634:	3023883a 	mov	r17,r6
   43638:	3825883a 	mov	r18,r7
   4363c:	0042ff80 	call	42ff8 <_ZNK10__cxxabiv117__class_type_info11__do_upcastEPKS0_PKvRNS0_15__upcast_resultE>
   43640:	10c03fcc 	andi	r3,r2,255
   43644:	18000726 	beq	r3,zero,43664 <_ZNK10__cxxabiv120__si_class_type_info11__do_upcastEPKNS_17__class_type_infoEPKvRNS1_15__upcast_resultE+0x50>
   43648:	dfc00417 	ldw	ra,16(sp)
   4364c:	dcc00317 	ldw	r19,12(sp)
   43650:	dc800217 	ldw	r18,8(sp)
   43654:	dc400117 	ldw	r17,4(sp)
   43658:	dc000017 	ldw	r16,0(sp)
   4365c:	dec00504 	addi	sp,sp,20
   43660:	f800283a 	ret
   43664:	99000217 	ldw	r4,8(r19)
   43668:	900f883a 	mov	r7,r18
   4366c:	880d883a 	mov	r6,r17
   43670:	20800017 	ldw	r2,0(r4)
   43674:	800b883a 	mov	r5,r16
   43678:	10800617 	ldw	r2,24(r2)
   4367c:	dfc00417 	ldw	ra,16(sp)
   43680:	dcc00317 	ldw	r19,12(sp)
   43684:	dc800217 	ldw	r18,8(sp)
   43688:	dc400117 	ldw	r17,4(sp)
   4368c:	dc000017 	ldw	r16,0(sp)
   43690:	dec00504 	addi	sp,sp,20
   43694:	1000683a 	jmp	r2

00043698 <_ZNSt9type_infoD1Ev>:
   43698:	f800283a 	ret

0004369c <_ZNKSt9type_info14__is_pointer_pEv>:
   4369c:	0005883a 	mov	r2,zero
   436a0:	f800283a 	ret

000436a4 <_ZNKSt9type_info11__do_upcastEPKN10__cxxabiv117__class_type_infoEPPv>:
   436a4:	0005883a 	mov	r2,zero
   436a8:	f800283a 	ret

000436ac <_ZNSt9type_infoD0Ev>:
   436ac:	00419881 	jmpi	41988 <_ZdlPv>

000436b0 <_ZNKSt9type_info10__do_catchEPKS_PPvj>:
   436b0:	21000117 	ldw	r4,4(r4)
   436b4:	29400117 	ldw	r5,4(r5)
   436b8:	21400c26 	beq	r4,r5,436ec <_ZNKSt9type_info10__do_catchEPKS_PPvj+0x3c>
   436bc:	20c00007 	ldb	r3,0(r4)
   436c0:	00800a84 	movi	r2,42
   436c4:	18800726 	beq	r3,r2,436e4 <_ZNKSt9type_info10__do_catchEPKS_PPvj+0x34>
   436c8:	deffff04 	addi	sp,sp,-4
   436cc:	dfc00015 	stw	ra,0(sp)
   436d0:	0044dc00 	call	44dc0 <strcmp>
   436d4:	1005003a 	cmpeq	r2,r2,zero
   436d8:	dfc00017 	ldw	ra,0(sp)
   436dc:	dec00104 	addi	sp,sp,4
   436e0:	f800283a 	ret
   436e4:	0005883a 	mov	r2,zero
   436e8:	f800283a 	ret
   436ec:	00800044 	movi	r2,1
   436f0:	f800283a 	ret

000436f4 <__cxa_pure_virtual>:
   436f4:	014001b4 	movhi	r5,6
   436f8:	deffff04 	addi	sp,sp,-4
   436fc:	297ee704 	addi	r5,r5,-1124
   43700:	018006c4 	movi	r6,27
   43704:	01000084 	movi	r4,2
   43708:	dfc00015 	stw	ra,0(sp)
   4370c:	005d1ac0 	call	5d1ac <write>
   43710:	0042bc00 	call	42bc0 <_ZSt9terminatev>

00043714 <__cxa_deleted_virtual>:
   43714:	014001b4 	movhi	r5,6
   43718:	deffff04 	addi	sp,sp,-4
   4371c:	297eee04 	addi	r5,r5,-1096
   43720:	01800784 	movi	r6,30
   43724:	01000084 	movi	r4,2
   43728:	dfc00015 	stw	ra,0(sp)
   4372c:	005d1ac0 	call	5d1ac <write>
   43730:	0042bc00 	call	42bc0 <_ZSt9terminatev>

00043734 <_Unwind_ForcedUnwind_Phase2>:
   43734:	defff404 	addi	sp,sp,-48
   43738:	dd800915 	stw	r22,36(sp)
   4373c:	058001b4 	movhi	r22,6
   43740:	ddc00a15 	stw	r23,40(sp)
   43744:	dd400815 	stw	r21,32(sp)
   43748:	dd000715 	stw	r20,28(sp)
   4374c:	dcc00615 	stw	r19,24(sp)
   43750:	dc400415 	stw	r17,16(sp)
   43754:	dc000315 	stw	r16,12(sp)
   43758:	dfc00b15 	stw	ra,44(sp)
   4375c:	dc800515 	stw	r18,20(sp)
   43760:	2021883a 	mov	r16,r4
   43764:	2823883a 	mov	r17,r5
   43768:	24c00317 	ldw	r19,12(r4)
   4376c:	25000417 	ldw	r20,16(r4)
   43770:	28c00017 	ldw	r3,0(r5)
   43774:	b58ee204 	addi	r22,r22,15240
   43778:	054001c4 	movi	r21,7
   4377c:	05c00204 	movi	r23,8
   43780:	00001606 	br	437dc <_Unwind_ForcedUnwind_Phase2+0xa8>
   43784:	81800017 	ldw	r6,0(r16)
   43788:	81c00117 	ldw	r7,4(r16)
   4378c:	1c800617 	ldw	r18,24(r3)
   43790:	dd000215 	stw	r20,8(sp)
   43794:	dc400115 	stw	r17,4(sp)
   43798:	dc000015 	stw	r16,0(sp)
   4379c:	983ee83a 	callr	r19
   437a0:	01400284 	movi	r5,10
   437a4:	01000044 	movi	r4,1
   437a8:	1000241e 	bne	r2,zero,4383c <_Unwind_ForcedUnwind_Phase2+0x108>
   437ac:	90000726 	beq	r18,zero,437cc <_Unwind_ForcedUnwind_Phase2+0x98>
   437b0:	81800017 	ldw	r6,0(r16)
   437b4:	81c00117 	ldw	r7,4(r16)
   437b8:	dc400115 	stw	r17,4(sp)
   437bc:	dc000015 	stw	r16,0(sp)
   437c0:	903ee83a 	callr	r18
   437c4:	15401f26 	beq	r2,r21,43844 <_Unwind_ForcedUnwind_Phase2+0x110>
   437c8:	15c01c1e 	bne	r2,r23,4383c <_Unwind_ForcedUnwind_Phase2+0x108>
   437cc:	88800017 	ldw	r2,0(r17)
   437d0:	10c00017 	ldw	r3,0(r2)
   437d4:	b0c00015 	stw	r3,0(r22)
   437d8:	88c00015 	stw	r3,0(r17)
   437dc:	01400284 	movi	r5,10
   437e0:	01000044 	movi	r4,1
   437e4:	183fe71e 	bne	r3,zero,43784 <_gp+0xfffd989c>
   437e8:	81800017 	ldw	r6,0(r16)
   437ec:	81c00117 	ldw	r7,4(r16)
   437f0:	01400684 	movi	r5,26
   437f4:	dd000215 	stw	r20,8(sp)
   437f8:	dc400115 	stw	r17,4(sp)
   437fc:	dc000015 	stw	r16,0(sp)
   43800:	01000044 	movi	r4,1
   43804:	983ee83a 	callr	r19
   43808:	10000c1e 	bne	r2,zero,4383c <_Unwind_ForcedUnwind_Phase2+0x108>
   4380c:	00800144 	movi	r2,5
   43810:	dfc00b17 	ldw	ra,44(sp)
   43814:	ddc00a17 	ldw	r23,40(sp)
   43818:	dd800917 	ldw	r22,36(sp)
   4381c:	dd400817 	ldw	r21,32(sp)
   43820:	dd000717 	ldw	r20,28(sp)
   43824:	dcc00617 	ldw	r19,24(sp)
   43828:	dc800517 	ldw	r18,20(sp)
   4382c:	dc400417 	ldw	r17,16(sp)
   43830:	dc000317 	ldw	r16,12(sp)
   43834:	dec00c04 	addi	sp,sp,48
   43838:	f800283a 	ret
   4383c:	00800084 	movi	r2,2
   43840:	003ff306 	br	43810 <_gp+0xfffd9928>
   43844:	a805883a 	mov	r2,r21
   43848:	003ff106 	br	43810 <_gp+0xfffd9928>

0004384c <_Unwind_RaiseException_Phase2>:
   4384c:	28c00017 	ldw	r3,0(r5)
   43850:	defff804 	addi	sp,sp,-32
   43854:	dcc00515 	stw	r19,20(sp)
   43858:	dc800415 	stw	r18,16(sp)
   4385c:	dc400315 	stw	r17,12(sp)
   43860:	dc000215 	stw	r16,8(sp)
   43864:	dfc00715 	stw	ra,28(sp)
   43868:	dd000615 	stw	r20,24(sp)
   4386c:	2823883a 	mov	r17,r5
   43870:	2021883a 	mov	r16,r4
   43874:	048001c4 	movi	r18,7
   43878:	04c00204 	movi	r19,8
   4387c:	18001326 	beq	r3,zero,438cc <_Unwind_RaiseException_Phase2+0x80>
   43880:	81000417 	ldw	r4,16(r16)
   43884:	1a000617 	ldw	r8,24(r3)
   43888:	19001926 	beq	r3,r4,438f0 <_Unwind_RaiseException_Phase2+0xa4>
   4388c:	40000c26 	beq	r8,zero,438c0 <_Unwind_RaiseException_Phase2+0x74>
   43890:	01400084 	movi	r5,2
   43894:	0029883a 	mov	r20,zero
   43898:	81800017 	ldw	r6,0(r16)
   4389c:	81c00117 	ldw	r7,4(r16)
   438a0:	01000044 	movi	r4,1
   438a4:	dc400115 	stw	r17,4(sp)
   438a8:	dc000015 	stw	r16,0(sp)
   438ac:	403ee83a 	callr	r8
   438b0:	14801326 	beq	r2,r18,43900 <_Unwind_RaiseException_Phase2+0xb4>
   438b4:	14c0051e 	bne	r2,r19,438cc <_Unwind_RaiseException_Phase2+0x80>
   438b8:	a000131e 	bne	r20,zero,43908 <_Unwind_RaiseException_Phase2+0xbc>
   438bc:	88c00017 	ldw	r3,0(r17)
   438c0:	18c00017 	ldw	r3,0(r3)
   438c4:	88c00015 	stw	r3,0(r17)
   438c8:	183fed1e 	bne	r3,zero,43880 <_gp+0xfffd9998>
   438cc:	00800084 	movi	r2,2
   438d0:	dfc00717 	ldw	ra,28(sp)
   438d4:	dd000617 	ldw	r20,24(sp)
   438d8:	dcc00517 	ldw	r19,20(sp)
   438dc:	dc800417 	ldw	r18,16(sp)
   438e0:	dc400317 	ldw	r17,12(sp)
   438e4:	dc000217 	ldw	r16,8(sp)
   438e8:	dec00804 	addi	sp,sp,32
   438ec:	f800283a 	ret
   438f0:	40000526 	beq	r8,zero,43908 <_Unwind_RaiseException_Phase2+0xbc>
   438f4:	01400184 	movi	r5,6
   438f8:	05000104 	movi	r20,4
   438fc:	003fe606 	br	43898 <_gp+0xfffd99b0>
   43900:	9005883a 	mov	r2,r18
   43904:	003ff206 	br	438d0 <_gp+0xfffd99e8>
   43908:	0043c540 	call	43c54 <abort>

0004390c <uw_install_context.isra.1>:
   4390c:	20c00017 	ldw	r3,0(r4)
   43910:	deffff04 	addi	sp,sp,-4
   43914:	014001b4 	movhi	r5,6
   43918:	19000917 	ldw	r4,36(r3)
   4391c:	df000015 	stw	fp,0(sp)
   43920:	18800804 	addi	r2,r3,32
   43924:	d839883a 	mov	fp,sp
   43928:	294ee204 	addi	r5,r5,15240
   4392c:	28c00015 	stw	r3,0(r5)
   43930:	17000017 	ldw	fp,0(r2)
   43934:	1ec00a17 	ldw	sp,40(r3)
   43938:	2000683a 	jmp	r4

0004393c <_Unwind_SjLj_Register>:
   4393c:	008001b4 	movhi	r2,6
   43940:	108ee204 	addi	r2,r2,15240
   43944:	10c00017 	ldw	r3,0(r2)
   43948:	11000015 	stw	r4,0(r2)
   4394c:	20c00015 	stw	r3,0(r4)
   43950:	f800283a 	ret

00043954 <_Unwind_SjLj_Unregister>:
   43954:	20c00017 	ldw	r3,0(r4)
   43958:	008001b4 	movhi	r2,6
   4395c:	108ee204 	addi	r2,r2,15240
   43960:	10c00015 	stw	r3,0(r2)
   43964:	f800283a 	ret

00043968 <_Unwind_GetGR>:
   43968:	20800017 	ldw	r2,0(r4)
   4396c:	29400084 	addi	r5,r5,2
   43970:	294b883a 	add	r5,r5,r5
   43974:	294b883a 	add	r5,r5,r5
   43978:	114b883a 	add	r5,r2,r5
   4397c:	28800017 	ldw	r2,0(r5)
   43980:	f800283a 	ret

00043984 <_Unwind_GetCFA>:
   43984:	20800017 	ldw	r2,0(r4)
   43988:	10000226 	beq	r2,zero,43994 <_Unwind_GetCFA+0x10>
   4398c:	10800a17 	ldw	r2,40(r2)
   43990:	f800283a 	ret
   43994:	0005883a 	mov	r2,zero
   43998:	f800283a 	ret

0004399c <_Unwind_SetGR>:
   4399c:	20800017 	ldw	r2,0(r4)
   439a0:	29400084 	addi	r5,r5,2
   439a4:	294b883a 	add	r5,r5,r5
   439a8:	294b883a 	add	r5,r5,r5
   439ac:	114b883a 	add	r5,r2,r5
   439b0:	29800015 	stw	r6,0(r5)
   439b4:	f800283a 	ret

000439b8 <_Unwind_GetIP>:
   439b8:	20800017 	ldw	r2,0(r4)
   439bc:	10800117 	ldw	r2,4(r2)
   439c0:	10800044 	addi	r2,r2,1
   439c4:	f800283a 	ret

000439c8 <_Unwind_GetIPInfo>:
   439c8:	20800017 	ldw	r2,0(r4)
   439cc:	28000015 	stw	zero,0(r5)
   439d0:	10000326 	beq	r2,zero,439e0 <_Unwind_GetIPInfo+0x18>
   439d4:	10800117 	ldw	r2,4(r2)
   439d8:	10800044 	addi	r2,r2,1
   439dc:	f800283a 	ret
   439e0:	0005883a 	mov	r2,zero
   439e4:	f800283a 	ret

000439e8 <_Unwind_SetIP>:
   439e8:	20800017 	ldw	r2,0(r4)
   439ec:	297fffc4 	addi	r5,r5,-1
   439f0:	11400115 	stw	r5,4(r2)
   439f4:	f800283a 	ret

000439f8 <_Unwind_GetLanguageSpecificData>:
   439f8:	20800017 	ldw	r2,0(r4)
   439fc:	10800717 	ldw	r2,28(r2)
   43a00:	f800283a 	ret

00043a04 <_Unwind_GetRegionStart>:
   43a04:	0005883a 	mov	r2,zero
   43a08:	f800283a 	ret

00043a0c <_Unwind_FindEnclosingFunction>:
   43a0c:	0005883a 	mov	r2,zero
   43a10:	f800283a 	ret

00043a14 <_Unwind_GetDataRelBase>:
   43a14:	0005883a 	mov	r2,zero
   43a18:	f800283a 	ret

00043a1c <_Unwind_GetTextRelBase>:
   43a1c:	0005883a 	mov	r2,zero
   43a20:	f800283a 	ret

00043a24 <_Unwind_SjLj_RaiseException>:
   43a24:	008001b4 	movhi	r2,6
   43a28:	defff804 	addi	sp,sp,-32
   43a2c:	108ee204 	addi	r2,r2,15240
   43a30:	dc800515 	stw	r18,20(sp)
   43a34:	14800017 	ldw	r18,0(r2)
   43a38:	dfc00715 	stw	ra,28(sp)
   43a3c:	dcc00615 	stw	r19,24(sp)
   43a40:	dc400415 	stw	r17,16(sp)
   43a44:	dc000315 	stw	r16,12(sp)
   43a48:	dc800215 	stw	r18,8(sp)
   43a4c:	90001426 	beq	r18,zero,43aa0 <_Unwind_SjLj_RaiseException+0x7c>
   43a50:	2021883a 	mov	r16,r4
   43a54:	9005883a 	mov	r2,r18
   43a58:	04400184 	movi	r17,6
   43a5c:	04c00204 	movi	r19,8
   43a60:	10800617 	ldw	r2,24(r2)
   43a64:	10000a26 	beq	r2,zero,43a90 <_Unwind_SjLj_RaiseException+0x6c>
   43a68:	81800017 	ldw	r6,0(r16)
   43a6c:	81c00117 	ldw	r7,4(r16)
   43a70:	01400044 	movi	r5,1
   43a74:	d8c00204 	addi	r3,sp,8
   43a78:	d8c00115 	stw	r3,4(sp)
   43a7c:	dc000015 	stw	r16,0(sp)
   43a80:	2809883a 	mov	r4,r5
   43a84:	103ee83a 	callr	r2
   43a88:	14400d26 	beq	r2,r17,43ac0 <_Unwind_SjLj_RaiseException+0x9c>
   43a8c:	14c0171e 	bne	r2,r19,43aec <_Unwind_SjLj_RaiseException+0xc8>
   43a90:	d8800217 	ldw	r2,8(sp)
   43a94:	10800017 	ldw	r2,0(r2)
   43a98:	d8800215 	stw	r2,8(sp)
   43a9c:	103ff01e 	bne	r2,zero,43a60 <_gp+0xfffd9b78>
   43aa0:	00800144 	movi	r2,5
   43aa4:	dfc00717 	ldw	ra,28(sp)
   43aa8:	dcc00617 	ldw	r19,24(sp)
   43aac:	dc800517 	ldw	r18,20(sp)
   43ab0:	dc400417 	ldw	r17,16(sp)
   43ab4:	dc000317 	ldw	r16,12(sp)
   43ab8:	dec00804 	addi	sp,sp,32
   43abc:	f800283a 	ret
   43ac0:	d8800217 	ldw	r2,8(sp)
   43ac4:	80000315 	stw	zero,12(r16)
   43ac8:	d9400204 	addi	r5,sp,8
   43acc:	80800415 	stw	r2,16(r16)
   43ad0:	8009883a 	mov	r4,r16
   43ad4:	dc800215 	stw	r18,8(sp)
   43ad8:	004384c0 	call	4384c <_Unwind_RaiseException_Phase2>
   43adc:	00c001c4 	movi	r3,7
   43ae0:	10fff01e 	bne	r2,r3,43aa4 <_gp+0xfffd9bbc>
   43ae4:	d9000204 	addi	r4,sp,8
   43ae8:	004390c0 	call	4390c <uw_install_context.isra.1>
   43aec:	008000c4 	movi	r2,3
   43af0:	003fec06 	br	43aa4 <_gp+0xfffd9bbc>

00043af4 <_Unwind_SjLj_ForcedUnwind>:
   43af4:	00c001b4 	movhi	r3,6
   43af8:	18cee204 	addi	r3,r3,15240
   43afc:	defffe04 	addi	sp,sp,-8
   43b00:	18c00017 	ldw	r3,0(r3)
   43b04:	dfc00115 	stw	ra,4(sp)
   43b08:	21400315 	stw	r5,12(r4)
   43b0c:	21800415 	stw	r6,16(r4)
   43b10:	d80b883a 	mov	r5,sp
   43b14:	d8c00015 	stw	r3,0(sp)
   43b18:	00437340 	call	43734 <_Unwind_ForcedUnwind_Phase2>
   43b1c:	00c001c4 	movi	r3,7
   43b20:	10c00326 	beq	r2,r3,43b30 <_Unwind_SjLj_ForcedUnwind+0x3c>
   43b24:	dfc00117 	ldw	ra,4(sp)
   43b28:	dec00204 	addi	sp,sp,8
   43b2c:	f800283a 	ret
   43b30:	d809883a 	mov	r4,sp
   43b34:	004390c0 	call	4390c <uw_install_context.isra.1>

00043b38 <_Unwind_SjLj_Resume>:
   43b38:	00c001b4 	movhi	r3,6
   43b3c:	18cee204 	addi	r3,r3,15240
   43b40:	18c00017 	ldw	r3,0(r3)
   43b44:	20800317 	ldw	r2,12(r4)
   43b48:	defffe04 	addi	sp,sp,-8
   43b4c:	dfc00115 	stw	ra,4(sp)
   43b50:	d8c00015 	stw	r3,0(sp)
   43b54:	d80b883a 	mov	r5,sp
   43b58:	1000041e 	bne	r2,zero,43b6c <_Unwind_SjLj_Resume+0x34>
   43b5c:	004384c0 	call	4384c <_Unwind_RaiseException_Phase2>
   43b60:	00c001c4 	movi	r3,7
   43b64:	10c00326 	beq	r2,r3,43b74 <_Unwind_SjLj_Resume+0x3c>
   43b68:	0043c540 	call	43c54 <abort>
   43b6c:	00437340 	call	43734 <_Unwind_ForcedUnwind_Phase2>
   43b70:	003ffb06 	br	43b60 <_gp+0xfffd9c78>
   43b74:	d809883a 	mov	r4,sp
   43b78:	004390c0 	call	4390c <uw_install_context.isra.1>

00043b7c <_Unwind_SjLj_Resume_or_Rethrow>:
   43b7c:	20800317 	ldw	r2,12(r4)
   43b80:	defffe04 	addi	sp,sp,-8
   43b84:	dfc00115 	stw	ra,4(sp)
   43b88:	1000041e 	bne	r2,zero,43b9c <_Unwind_SjLj_Resume_or_Rethrow+0x20>
   43b8c:	0043a240 	call	43a24 <_Unwind_SjLj_RaiseException>
   43b90:	dfc00117 	ldw	ra,4(sp)
   43b94:	dec00204 	addi	sp,sp,8
   43b98:	f800283a 	ret
   43b9c:	008001b4 	movhi	r2,6
   43ba0:	108ee204 	addi	r2,r2,15240
   43ba4:	10800017 	ldw	r2,0(r2)
   43ba8:	d80b883a 	mov	r5,sp
   43bac:	d8800015 	stw	r2,0(sp)
   43bb0:	00437340 	call	43734 <_Unwind_ForcedUnwind_Phase2>
   43bb4:	00c001c4 	movi	r3,7
   43bb8:	10c00126 	beq	r2,r3,43bc0 <_Unwind_SjLj_Resume_or_Rethrow+0x44>
   43bbc:	0043c540 	call	43c54 <abort>
   43bc0:	d809883a 	mov	r4,sp
   43bc4:	004390c0 	call	4390c <uw_install_context.isra.1>

00043bc8 <_Unwind_DeleteException>:
   43bc8:	20800217 	ldw	r2,8(r4)
   43bcc:	10000326 	beq	r2,zero,43bdc <_Unwind_DeleteException+0x14>
   43bd0:	200b883a 	mov	r5,r4
   43bd4:	01000044 	movi	r4,1
   43bd8:	1000683a 	jmp	r2
   43bdc:	f800283a 	ret

00043be0 <_Unwind_Backtrace>:
   43be0:	008001b4 	movhi	r2,6
   43be4:	108ee204 	addi	r2,r2,15240
   43be8:	10800017 	ldw	r2,0(r2)
   43bec:	defffc04 	addi	sp,sp,-16
   43bf0:	dc400215 	stw	r17,8(sp)
   43bf4:	dc000115 	stw	r16,4(sp)
   43bf8:	dfc00315 	stw	ra,12(sp)
   43bfc:	2023883a 	mov	r17,r4
   43c00:	2821883a 	mov	r16,r5
   43c04:	d8800015 	stw	r2,0(sp)
   43c08:	00000506 	br	43c20 <_Unwind_Backtrace+0x40>
   43c0c:	883ee83a 	callr	r17
   43c10:	10000e1e 	bne	r2,zero,43c4c <_Unwind_Backtrace+0x6c>
   43c14:	d8800017 	ldw	r2,0(sp)
   43c18:	10800017 	ldw	r2,0(r2)
   43c1c:	d8800015 	stw	r2,0(sp)
   43c20:	800b883a 	mov	r5,r16
   43c24:	d809883a 	mov	r4,sp
   43c28:	103ff81e 	bne	r2,zero,43c0c <_gp+0xfffd9d24>
   43c2c:	883ee83a 	callr	r17
   43c30:	1000061e 	bne	r2,zero,43c4c <_Unwind_Backtrace+0x6c>
   43c34:	00800144 	movi	r2,5
   43c38:	dfc00317 	ldw	ra,12(sp)
   43c3c:	dc400217 	ldw	r17,8(sp)
   43c40:	dc000117 	ldw	r16,4(sp)
   43c44:	dec00404 	addi	sp,sp,16
   43c48:	f800283a 	ret
   43c4c:	008000c4 	movi	r2,3
   43c50:	003ff906 	br	43c38 <_gp+0xfffd9d50>

00043c54 <abort>:
   43c54:	deffff04 	addi	sp,sp,-4
   43c58:	01000184 	movi	r4,6
   43c5c:	dfc00015 	stw	ra,0(sp)
   43c60:	0044a1c0 	call	44a1c <raise>
   43c64:	01000044 	movi	r4,1
   43c68:	005c3540 	call	5c354 <_exit>

00043c6c <malloc>:
   43c6c:	008001b4 	movhi	r2,6
   43c70:	1087d104 	addi	r2,r2,8004
   43c74:	200b883a 	mov	r5,r4
   43c78:	11000017 	ldw	r4,0(r2)
   43c7c:	0043c941 	jmpi	43c94 <_malloc_r>

00043c80 <free>:
   43c80:	008001b4 	movhi	r2,6
   43c84:	1087d104 	addi	r2,r2,8004
   43c88:	200b883a 	mov	r5,r4
   43c8c:	11000017 	ldw	r4,0(r2)
   43c90:	004e9101 	jmpi	4e910 <_free_r>

00043c94 <_malloc_r>:
   43c94:	defff504 	addi	sp,sp,-44
   43c98:	dc800315 	stw	r18,12(sp)
   43c9c:	dfc00a15 	stw	ra,40(sp)
   43ca0:	df000915 	stw	fp,36(sp)
   43ca4:	ddc00815 	stw	r23,32(sp)
   43ca8:	dd800715 	stw	r22,28(sp)
   43cac:	dd400615 	stw	r21,24(sp)
   43cb0:	dd000515 	stw	r20,20(sp)
   43cb4:	dcc00415 	stw	r19,16(sp)
   43cb8:	dc400215 	stw	r17,8(sp)
   43cbc:	dc000115 	stw	r16,4(sp)
   43cc0:	288002c4 	addi	r2,r5,11
   43cc4:	00c00584 	movi	r3,22
   43cc8:	2025883a 	mov	r18,r4
   43ccc:	18807f2e 	bgeu	r3,r2,43ecc <_malloc_r+0x238>
   43cd0:	047ffe04 	movi	r17,-8
   43cd4:	1462703a 	and	r17,r2,r17
   43cd8:	8800a316 	blt	r17,zero,43f68 <_malloc_r+0x2d4>
   43cdc:	8940a236 	bltu	r17,r5,43f68 <_malloc_r+0x2d4>
   43ce0:	005cab40 	call	5cab4 <__malloc_lock>
   43ce4:	00807dc4 	movi	r2,503
   43ce8:	1441e92e 	bgeu	r2,r17,44490 <_malloc_r+0x7fc>
   43cec:	8804d27a 	srli	r2,r17,9
   43cf0:	1000a126 	beq	r2,zero,43f78 <_malloc_r+0x2e4>
   43cf4:	00c00104 	movi	r3,4
   43cf8:	18811e36 	bltu	r3,r2,44174 <_malloc_r+0x4e0>
   43cfc:	8804d1ba 	srli	r2,r17,6
   43d00:	12000e44 	addi	r8,r2,57
   43d04:	11c00e04 	addi	r7,r2,56
   43d08:	4209883a 	add	r4,r8,r8
   43d0c:	04c001b4 	movhi	r19,6
   43d10:	2109883a 	add	r4,r4,r4
   43d14:	9cc0de04 	addi	r19,r19,888
   43d18:	2109883a 	add	r4,r4,r4
   43d1c:	9909883a 	add	r4,r19,r4
   43d20:	24000117 	ldw	r16,4(r4)
   43d24:	213ffe04 	addi	r4,r4,-8
   43d28:	24009726 	beq	r4,r16,43f88 <_malloc_r+0x2f4>
   43d2c:	80800117 	ldw	r2,4(r16)
   43d30:	01bfff04 	movi	r6,-4
   43d34:	014003c4 	movi	r5,15
   43d38:	1184703a 	and	r2,r2,r6
   43d3c:	1447c83a 	sub	r3,r2,r17
   43d40:	28c00716 	blt	r5,r3,43d60 <_malloc_r+0xcc>
   43d44:	1800920e 	bge	r3,zero,43f90 <_malloc_r+0x2fc>
   43d48:	84000317 	ldw	r16,12(r16)
   43d4c:	24008e26 	beq	r4,r16,43f88 <_malloc_r+0x2f4>
   43d50:	80800117 	ldw	r2,4(r16)
   43d54:	1184703a 	and	r2,r2,r6
   43d58:	1447c83a 	sub	r3,r2,r17
   43d5c:	28fff90e 	bge	r5,r3,43d44 <_gp+0xfffd9e5c>
   43d60:	3809883a 	mov	r4,r7
   43d64:	018001b4 	movhi	r6,6
   43d68:	9c000417 	ldw	r16,16(r19)
   43d6c:	3180de04 	addi	r6,r6,888
   43d70:	32000204 	addi	r8,r6,8
   43d74:	82013426 	beq	r16,r8,44248 <_malloc_r+0x5b4>
   43d78:	80c00117 	ldw	r3,4(r16)
   43d7c:	00bfff04 	movi	r2,-4
   43d80:	188e703a 	and	r7,r3,r2
   43d84:	3c45c83a 	sub	r2,r7,r17
   43d88:	00c003c4 	movi	r3,15
   43d8c:	18811f16 	blt	r3,r2,4420c <_malloc_r+0x578>
   43d90:	32000515 	stw	r8,20(r6)
   43d94:	32000415 	stw	r8,16(r6)
   43d98:	10007f0e 	bge	r2,zero,43f98 <_malloc_r+0x304>
   43d9c:	00807fc4 	movi	r2,511
   43da0:	11c0fd36 	bltu	r2,r7,44198 <_malloc_r+0x504>
   43da4:	3806d0fa 	srli	r3,r7,3
   43da8:	01c00044 	movi	r7,1
   43dac:	30800117 	ldw	r2,4(r6)
   43db0:	19400044 	addi	r5,r3,1
   43db4:	294b883a 	add	r5,r5,r5
   43db8:	1807d0ba 	srai	r3,r3,2
   43dbc:	294b883a 	add	r5,r5,r5
   43dc0:	294b883a 	add	r5,r5,r5
   43dc4:	298b883a 	add	r5,r5,r6
   43dc8:	38c6983a 	sll	r3,r7,r3
   43dcc:	29c00017 	ldw	r7,0(r5)
   43dd0:	2a7ffe04 	addi	r9,r5,-8
   43dd4:	1886b03a 	or	r3,r3,r2
   43dd8:	82400315 	stw	r9,12(r16)
   43ddc:	81c00215 	stw	r7,8(r16)
   43de0:	30c00115 	stw	r3,4(r6)
   43de4:	2c000015 	stw	r16,0(r5)
   43de8:	3c000315 	stw	r16,12(r7)
   43dec:	2005d0ba 	srai	r2,r4,2
   43df0:	01400044 	movi	r5,1
   43df4:	288a983a 	sll	r5,r5,r2
   43df8:	19406f36 	bltu	r3,r5,43fb8 <_malloc_r+0x324>
   43dfc:	28c4703a 	and	r2,r5,r3
   43e00:	10000a1e 	bne	r2,zero,43e2c <_malloc_r+0x198>
   43e04:	00bfff04 	movi	r2,-4
   43e08:	294b883a 	add	r5,r5,r5
   43e0c:	2088703a 	and	r4,r4,r2
   43e10:	28c4703a 	and	r2,r5,r3
   43e14:	21000104 	addi	r4,r4,4
   43e18:	1000041e 	bne	r2,zero,43e2c <_malloc_r+0x198>
   43e1c:	294b883a 	add	r5,r5,r5
   43e20:	28c4703a 	and	r2,r5,r3
   43e24:	21000104 	addi	r4,r4,4
   43e28:	103ffc26 	beq	r2,zero,43e1c <_gp+0xfffd9f34>
   43e2c:	02bfff04 	movi	r10,-4
   43e30:	024003c4 	movi	r9,15
   43e34:	21800044 	addi	r6,r4,1
   43e38:	318d883a 	add	r6,r6,r6
   43e3c:	318d883a 	add	r6,r6,r6
   43e40:	318d883a 	add	r6,r6,r6
   43e44:	998d883a 	add	r6,r19,r6
   43e48:	333ffe04 	addi	r12,r6,-8
   43e4c:	2017883a 	mov	r11,r4
   43e50:	31800104 	addi	r6,r6,4
   43e54:	34000017 	ldw	r16,0(r6)
   43e58:	31fffd04 	addi	r7,r6,-12
   43e5c:	81c0041e 	bne	r16,r7,43e70 <_malloc_r+0x1dc>
   43e60:	0000fb06 	br	44250 <_malloc_r+0x5bc>
   43e64:	1801030e 	bge	r3,zero,44274 <_malloc_r+0x5e0>
   43e68:	84000317 	ldw	r16,12(r16)
   43e6c:	81c0f826 	beq	r16,r7,44250 <_malloc_r+0x5bc>
   43e70:	80800117 	ldw	r2,4(r16)
   43e74:	1284703a 	and	r2,r2,r10
   43e78:	1447c83a 	sub	r3,r2,r17
   43e7c:	48fff90e 	bge	r9,r3,43e64 <_gp+0xfffd9f7c>
   43e80:	80800317 	ldw	r2,12(r16)
   43e84:	81000217 	ldw	r4,8(r16)
   43e88:	89400054 	ori	r5,r17,1
   43e8c:	81400115 	stw	r5,4(r16)
   43e90:	20800315 	stw	r2,12(r4)
   43e94:	11000215 	stw	r4,8(r2)
   43e98:	8463883a 	add	r17,r16,r17
   43e9c:	9c400515 	stw	r17,20(r19)
   43ea0:	9c400415 	stw	r17,16(r19)
   43ea4:	18800054 	ori	r2,r3,1
   43ea8:	88800115 	stw	r2,4(r17)
   43eac:	8a000315 	stw	r8,12(r17)
   43eb0:	8a000215 	stw	r8,8(r17)
   43eb4:	88e3883a 	add	r17,r17,r3
   43eb8:	88c00015 	stw	r3,0(r17)
   43ebc:	9009883a 	mov	r4,r18
   43ec0:	005cad80 	call	5cad8 <__malloc_unlock>
   43ec4:	80800204 	addi	r2,r16,8
   43ec8:	00001b06 	br	43f38 <_malloc_r+0x2a4>
   43ecc:	04400404 	movi	r17,16
   43ed0:	89402536 	bltu	r17,r5,43f68 <_malloc_r+0x2d4>
   43ed4:	005cab40 	call	5cab4 <__malloc_lock>
   43ed8:	00800184 	movi	r2,6
   43edc:	01000084 	movi	r4,2
   43ee0:	04c001b4 	movhi	r19,6
   43ee4:	1085883a 	add	r2,r2,r2
   43ee8:	9cc0de04 	addi	r19,r19,888
   43eec:	1085883a 	add	r2,r2,r2
   43ef0:	9885883a 	add	r2,r19,r2
   43ef4:	14000117 	ldw	r16,4(r2)
   43ef8:	10fffe04 	addi	r3,r2,-8
   43efc:	80c0d926 	beq	r16,r3,44264 <_malloc_r+0x5d0>
   43f00:	80c00117 	ldw	r3,4(r16)
   43f04:	81000317 	ldw	r4,12(r16)
   43f08:	00bfff04 	movi	r2,-4
   43f0c:	1884703a 	and	r2,r3,r2
   43f10:	81400217 	ldw	r5,8(r16)
   43f14:	8085883a 	add	r2,r16,r2
   43f18:	10c00117 	ldw	r3,4(r2)
   43f1c:	29000315 	stw	r4,12(r5)
   43f20:	21400215 	stw	r5,8(r4)
   43f24:	18c00054 	ori	r3,r3,1
   43f28:	10c00115 	stw	r3,4(r2)
   43f2c:	9009883a 	mov	r4,r18
   43f30:	005cad80 	call	5cad8 <__malloc_unlock>
   43f34:	80800204 	addi	r2,r16,8
   43f38:	dfc00a17 	ldw	ra,40(sp)
   43f3c:	df000917 	ldw	fp,36(sp)
   43f40:	ddc00817 	ldw	r23,32(sp)
   43f44:	dd800717 	ldw	r22,28(sp)
   43f48:	dd400617 	ldw	r21,24(sp)
   43f4c:	dd000517 	ldw	r20,20(sp)
   43f50:	dcc00417 	ldw	r19,16(sp)
   43f54:	dc800317 	ldw	r18,12(sp)
   43f58:	dc400217 	ldw	r17,8(sp)
   43f5c:	dc000117 	ldw	r16,4(sp)
   43f60:	dec00b04 	addi	sp,sp,44
   43f64:	f800283a 	ret
   43f68:	00800304 	movi	r2,12
   43f6c:	90800015 	stw	r2,0(r18)
   43f70:	0005883a 	mov	r2,zero
   43f74:	003ff006 	br	43f38 <_gp+0xfffda050>
   43f78:	01002004 	movi	r4,128
   43f7c:	02001004 	movi	r8,64
   43f80:	01c00fc4 	movi	r7,63
   43f84:	003f6106 	br	43d0c <_gp+0xfffd9e24>
   43f88:	4009883a 	mov	r4,r8
   43f8c:	003f7506 	br	43d64 <_gp+0xfffd9e7c>
   43f90:	81000317 	ldw	r4,12(r16)
   43f94:	003fde06 	br	43f10 <_gp+0xfffda028>
   43f98:	81c5883a 	add	r2,r16,r7
   43f9c:	11400117 	ldw	r5,4(r2)
   43fa0:	9009883a 	mov	r4,r18
   43fa4:	29400054 	ori	r5,r5,1
   43fa8:	11400115 	stw	r5,4(r2)
   43fac:	005cad80 	call	5cad8 <__malloc_unlock>
   43fb0:	80800204 	addi	r2,r16,8
   43fb4:	003fe006 	br	43f38 <_gp+0xfffda050>
   43fb8:	9c000217 	ldw	r16,8(r19)
   43fbc:	00bfff04 	movi	r2,-4
   43fc0:	85800117 	ldw	r22,4(r16)
   43fc4:	b0ac703a 	and	r22,r22,r2
   43fc8:	b4400336 	bltu	r22,r17,43fd8 <_malloc_r+0x344>
   43fcc:	b445c83a 	sub	r2,r22,r17
   43fd0:	00c003c4 	movi	r3,15
   43fd4:	18805d16 	blt	r3,r2,4414c <_malloc_r+0x4b8>
   43fd8:	05c001b4 	movhi	r23,6
   43fdc:	008001b4 	movhi	r2,6
   43fe0:	108ee504 	addi	r2,r2,15252
   43fe4:	bdc7cd04 	addi	r23,r23,7988
   43fe8:	15400017 	ldw	r21,0(r2)
   43fec:	b8c00017 	ldw	r3,0(r23)
   43ff0:	00bfffc4 	movi	r2,-1
   43ff4:	858d883a 	add	r6,r16,r22
   43ff8:	8d6b883a 	add	r21,r17,r21
   43ffc:	1880ea26 	beq	r3,r2,443a8 <_malloc_r+0x714>
   44000:	ad4403c4 	addi	r21,r21,4111
   44004:	00bc0004 	movi	r2,-4096
   44008:	a8aa703a 	and	r21,r21,r2
   4400c:	a80b883a 	mov	r5,r21
   44010:	9009883a 	mov	r4,r18
   44014:	d9800015 	stw	r6,0(sp)
   44018:	00447080 	call	44708 <_sbrk_r>
   4401c:	1029883a 	mov	r20,r2
   44020:	00bfffc4 	movi	r2,-1
   44024:	d9800017 	ldw	r6,0(sp)
   44028:	a080e826 	beq	r20,r2,443cc <_malloc_r+0x738>
   4402c:	a180a636 	bltu	r20,r6,442c8 <_malloc_r+0x634>
   44030:	070001b4 	movhi	fp,6
   44034:	e70ef504 	addi	fp,fp,15316
   44038:	e0800017 	ldw	r2,0(fp)
   4403c:	a887883a 	add	r3,r21,r2
   44040:	e0c00015 	stw	r3,0(fp)
   44044:	3500e626 	beq	r6,r20,443e0 <_malloc_r+0x74c>
   44048:	b9000017 	ldw	r4,0(r23)
   4404c:	00bfffc4 	movi	r2,-1
   44050:	2080ee26 	beq	r4,r2,4440c <_malloc_r+0x778>
   44054:	a185c83a 	sub	r2,r20,r6
   44058:	10c5883a 	add	r2,r2,r3
   4405c:	e0800015 	stw	r2,0(fp)
   44060:	a0c001cc 	andi	r3,r20,7
   44064:	1800bc26 	beq	r3,zero,44358 <_malloc_r+0x6c4>
   44068:	a0e9c83a 	sub	r20,r20,r3
   4406c:	00840204 	movi	r2,4104
   44070:	a5000204 	addi	r20,r20,8
   44074:	10c7c83a 	sub	r3,r2,r3
   44078:	a545883a 	add	r2,r20,r21
   4407c:	1083ffcc 	andi	r2,r2,4095
   44080:	18abc83a 	sub	r21,r3,r2
   44084:	a80b883a 	mov	r5,r21
   44088:	9009883a 	mov	r4,r18
   4408c:	00447080 	call	44708 <_sbrk_r>
   44090:	00ffffc4 	movi	r3,-1
   44094:	10c0e126 	beq	r2,r3,4441c <_malloc_r+0x788>
   44098:	1505c83a 	sub	r2,r2,r20
   4409c:	1545883a 	add	r2,r2,r21
   440a0:	10800054 	ori	r2,r2,1
   440a4:	e0c00017 	ldw	r3,0(fp)
   440a8:	9d000215 	stw	r20,8(r19)
   440ac:	a0800115 	stw	r2,4(r20)
   440b0:	a8c7883a 	add	r3,r21,r3
   440b4:	e0c00015 	stw	r3,0(fp)
   440b8:	84c00e26 	beq	r16,r19,440f4 <_malloc_r+0x460>
   440bc:	018003c4 	movi	r6,15
   440c0:	3580a72e 	bgeu	r6,r22,44360 <_malloc_r+0x6cc>
   440c4:	81400117 	ldw	r5,4(r16)
   440c8:	013ffe04 	movi	r4,-8
   440cc:	b0bffd04 	addi	r2,r22,-12
   440d0:	1104703a 	and	r2,r2,r4
   440d4:	2900004c 	andi	r4,r5,1
   440d8:	2088b03a 	or	r4,r4,r2
   440dc:	81000115 	stw	r4,4(r16)
   440e0:	01400144 	movi	r5,5
   440e4:	8089883a 	add	r4,r16,r2
   440e8:	21400115 	stw	r5,4(r4)
   440ec:	21400215 	stw	r5,8(r4)
   440f0:	3080cd36 	bltu	r6,r2,44428 <_malloc_r+0x794>
   440f4:	008001b4 	movhi	r2,6
   440f8:	108ee404 	addi	r2,r2,15248
   440fc:	11000017 	ldw	r4,0(r2)
   44100:	20c0012e 	bgeu	r4,r3,44108 <_malloc_r+0x474>
   44104:	10c00015 	stw	r3,0(r2)
   44108:	008001b4 	movhi	r2,6
   4410c:	108ee304 	addi	r2,r2,15244
   44110:	11000017 	ldw	r4,0(r2)
   44114:	9c000217 	ldw	r16,8(r19)
   44118:	20c0012e 	bgeu	r4,r3,44120 <_malloc_r+0x48c>
   4411c:	10c00015 	stw	r3,0(r2)
   44120:	80c00117 	ldw	r3,4(r16)
   44124:	00bfff04 	movi	r2,-4
   44128:	1886703a 	and	r3,r3,r2
   4412c:	1c45c83a 	sub	r2,r3,r17
   44130:	1c400236 	bltu	r3,r17,4413c <_malloc_r+0x4a8>
   44134:	00c003c4 	movi	r3,15
   44138:	18800416 	blt	r3,r2,4414c <_malloc_r+0x4b8>
   4413c:	9009883a 	mov	r4,r18
   44140:	005cad80 	call	5cad8 <__malloc_unlock>
   44144:	0005883a 	mov	r2,zero
   44148:	003f7b06 	br	43f38 <_gp+0xfffda050>
   4414c:	88c00054 	ori	r3,r17,1
   44150:	80c00115 	stw	r3,4(r16)
   44154:	8463883a 	add	r17,r16,r17
   44158:	10800054 	ori	r2,r2,1
   4415c:	9c400215 	stw	r17,8(r19)
   44160:	88800115 	stw	r2,4(r17)
   44164:	9009883a 	mov	r4,r18
   44168:	005cad80 	call	5cad8 <__malloc_unlock>
   4416c:	80800204 	addi	r2,r16,8
   44170:	003f7106 	br	43f38 <_gp+0xfffda050>
   44174:	00c00504 	movi	r3,20
   44178:	18804a2e 	bgeu	r3,r2,442a4 <_malloc_r+0x610>
   4417c:	00c01504 	movi	r3,84
   44180:	18806e36 	bltu	r3,r2,4433c <_malloc_r+0x6a8>
   44184:	8804d33a 	srli	r2,r17,12
   44188:	12001bc4 	addi	r8,r2,111
   4418c:	11c01b84 	addi	r7,r2,110
   44190:	4209883a 	add	r4,r8,r8
   44194:	003edd06 	br	43d0c <_gp+0xfffd9e24>
   44198:	3804d27a 	srli	r2,r7,9
   4419c:	00c00104 	movi	r3,4
   441a0:	1880442e 	bgeu	r3,r2,442b4 <_malloc_r+0x620>
   441a4:	00c00504 	movi	r3,20
   441a8:	18808136 	bltu	r3,r2,443b0 <_malloc_r+0x71c>
   441ac:	11401704 	addi	r5,r2,92
   441b0:	10c016c4 	addi	r3,r2,91
   441b4:	294b883a 	add	r5,r5,r5
   441b8:	294b883a 	add	r5,r5,r5
   441bc:	294b883a 	add	r5,r5,r5
   441c0:	994b883a 	add	r5,r19,r5
   441c4:	28800017 	ldw	r2,0(r5)
   441c8:	018001b4 	movhi	r6,6
   441cc:	297ffe04 	addi	r5,r5,-8
   441d0:	3180de04 	addi	r6,r6,888
   441d4:	28806526 	beq	r5,r2,4436c <_malloc_r+0x6d8>
   441d8:	01bfff04 	movi	r6,-4
   441dc:	10c00117 	ldw	r3,4(r2)
   441e0:	1986703a 	and	r3,r3,r6
   441e4:	38c0022e 	bgeu	r7,r3,441f0 <_malloc_r+0x55c>
   441e8:	10800217 	ldw	r2,8(r2)
   441ec:	28bffb1e 	bne	r5,r2,441dc <_gp+0xfffda2f4>
   441f0:	11400317 	ldw	r5,12(r2)
   441f4:	98c00117 	ldw	r3,4(r19)
   441f8:	81400315 	stw	r5,12(r16)
   441fc:	80800215 	stw	r2,8(r16)
   44200:	2c000215 	stw	r16,8(r5)
   44204:	14000315 	stw	r16,12(r2)
   44208:	003ef806 	br	43dec <_gp+0xfffd9f04>
   4420c:	88c00054 	ori	r3,r17,1
   44210:	80c00115 	stw	r3,4(r16)
   44214:	8463883a 	add	r17,r16,r17
   44218:	34400515 	stw	r17,20(r6)
   4421c:	34400415 	stw	r17,16(r6)
   44220:	10c00054 	ori	r3,r2,1
   44224:	8a000315 	stw	r8,12(r17)
   44228:	8a000215 	stw	r8,8(r17)
   4422c:	88c00115 	stw	r3,4(r17)
   44230:	88a3883a 	add	r17,r17,r2
   44234:	88800015 	stw	r2,0(r17)
   44238:	9009883a 	mov	r4,r18
   4423c:	005cad80 	call	5cad8 <__malloc_unlock>
   44240:	80800204 	addi	r2,r16,8
   44244:	003f3c06 	br	43f38 <_gp+0xfffda050>
   44248:	30c00117 	ldw	r3,4(r6)
   4424c:	003ee706 	br	43dec <_gp+0xfffd9f04>
   44250:	5ac00044 	addi	r11,r11,1
   44254:	588000cc 	andi	r2,r11,3
   44258:	31800204 	addi	r6,r6,8
   4425c:	103efd1e 	bne	r2,zero,43e54 <_gp+0xfffd9f6c>
   44260:	00002406 	br	442f4 <_malloc_r+0x660>
   44264:	14000317 	ldw	r16,12(r2)
   44268:	143f251e 	bne	r2,r16,43f00 <_gp+0xfffda018>
   4426c:	21000084 	addi	r4,r4,2
   44270:	003ebc06 	br	43d64 <_gp+0xfffd9e7c>
   44274:	8085883a 	add	r2,r16,r2
   44278:	10c00117 	ldw	r3,4(r2)
   4427c:	81000317 	ldw	r4,12(r16)
   44280:	81400217 	ldw	r5,8(r16)
   44284:	18c00054 	ori	r3,r3,1
   44288:	10c00115 	stw	r3,4(r2)
   4428c:	29000315 	stw	r4,12(r5)
   44290:	21400215 	stw	r5,8(r4)
   44294:	9009883a 	mov	r4,r18
   44298:	005cad80 	call	5cad8 <__malloc_unlock>
   4429c:	80800204 	addi	r2,r16,8
   442a0:	003f2506 	br	43f38 <_gp+0xfffda050>
   442a4:	12001704 	addi	r8,r2,92
   442a8:	11c016c4 	addi	r7,r2,91
   442ac:	4209883a 	add	r4,r8,r8
   442b0:	003e9606 	br	43d0c <_gp+0xfffd9e24>
   442b4:	3804d1ba 	srli	r2,r7,6
   442b8:	11400e44 	addi	r5,r2,57
   442bc:	10c00e04 	addi	r3,r2,56
   442c0:	294b883a 	add	r5,r5,r5
   442c4:	003fbc06 	br	441b8 <_gp+0xfffda2d0>
   442c8:	84ff5926 	beq	r16,r19,44030 <_gp+0xfffda148>
   442cc:	008001b4 	movhi	r2,6
   442d0:	1080de04 	addi	r2,r2,888
   442d4:	14000217 	ldw	r16,8(r2)
   442d8:	00bfff04 	movi	r2,-4
   442dc:	80c00117 	ldw	r3,4(r16)
   442e0:	1886703a 	and	r3,r3,r2
   442e4:	003f9106 	br	4412c <_gp+0xfffda244>
   442e8:	60800217 	ldw	r2,8(r12)
   442ec:	213fffc4 	addi	r4,r4,-1
   442f0:	1300651e 	bne	r2,r12,44488 <_malloc_r+0x7f4>
   442f4:	208000cc 	andi	r2,r4,3
   442f8:	633ffe04 	addi	r12,r12,-8
   442fc:	103ffa1e 	bne	r2,zero,442e8 <_gp+0xfffda400>
   44300:	98800117 	ldw	r2,4(r19)
   44304:	0146303a 	nor	r3,zero,r5
   44308:	1884703a 	and	r2,r3,r2
   4430c:	98800115 	stw	r2,4(r19)
   44310:	294b883a 	add	r5,r5,r5
   44314:	117f2836 	bltu	r2,r5,43fb8 <_gp+0xfffda0d0>
   44318:	283f2726 	beq	r5,zero,43fb8 <_gp+0xfffda0d0>
   4431c:	2886703a 	and	r3,r5,r2
   44320:	5809883a 	mov	r4,r11
   44324:	183ec31e 	bne	r3,zero,43e34 <_gp+0xfffd9f4c>
   44328:	294b883a 	add	r5,r5,r5
   4432c:	2886703a 	and	r3,r5,r2
   44330:	21000104 	addi	r4,r4,4
   44334:	183ffc26 	beq	r3,zero,44328 <_gp+0xfffda440>
   44338:	003ebe06 	br	43e34 <_gp+0xfffd9f4c>
   4433c:	00c05504 	movi	r3,340
   44340:	18801236 	bltu	r3,r2,4438c <_malloc_r+0x6f8>
   44344:	8804d3fa 	srli	r2,r17,15
   44348:	12001e04 	addi	r8,r2,120
   4434c:	11c01dc4 	addi	r7,r2,119
   44350:	4209883a 	add	r4,r8,r8
   44354:	003e6d06 	br	43d0c <_gp+0xfffd9e24>
   44358:	00c40004 	movi	r3,4096
   4435c:	003f4606 	br	44078 <_gp+0xfffda190>
   44360:	00800044 	movi	r2,1
   44364:	a0800115 	stw	r2,4(r20)
   44368:	003f7406 	br	4413c <_gp+0xfffda254>
   4436c:	1805d0ba 	srai	r2,r3,2
   44370:	01c00044 	movi	r7,1
   44374:	30c00117 	ldw	r3,4(r6)
   44378:	388e983a 	sll	r7,r7,r2
   4437c:	2805883a 	mov	r2,r5
   44380:	38c6b03a 	or	r3,r7,r3
   44384:	30c00115 	stw	r3,4(r6)
   44388:	003f9b06 	br	441f8 <_gp+0xfffda310>
   4438c:	00c15504 	movi	r3,1364
   44390:	18801a36 	bltu	r3,r2,443fc <_malloc_r+0x768>
   44394:	8804d4ba 	srli	r2,r17,18
   44398:	12001f44 	addi	r8,r2,125
   4439c:	11c01f04 	addi	r7,r2,124
   443a0:	4209883a 	add	r4,r8,r8
   443a4:	003e5906 	br	43d0c <_gp+0xfffd9e24>
   443a8:	ad400404 	addi	r21,r21,16
   443ac:	003f1706 	br	4400c <_gp+0xfffda124>
   443b0:	00c01504 	movi	r3,84
   443b4:	18802336 	bltu	r3,r2,44444 <_malloc_r+0x7b0>
   443b8:	3804d33a 	srli	r2,r7,12
   443bc:	11401bc4 	addi	r5,r2,111
   443c0:	10c01b84 	addi	r3,r2,110
   443c4:	294b883a 	add	r5,r5,r5
   443c8:	003f7b06 	br	441b8 <_gp+0xfffda2d0>
   443cc:	9c000217 	ldw	r16,8(r19)
   443d0:	00bfff04 	movi	r2,-4
   443d4:	80c00117 	ldw	r3,4(r16)
   443d8:	1886703a 	and	r3,r3,r2
   443dc:	003f5306 	br	4412c <_gp+0xfffda244>
   443e0:	3083ffcc 	andi	r2,r6,4095
   443e4:	103f181e 	bne	r2,zero,44048 <_gp+0xfffda160>
   443e8:	99000217 	ldw	r4,8(r19)
   443ec:	b545883a 	add	r2,r22,r21
   443f0:	10800054 	ori	r2,r2,1
   443f4:	20800115 	stw	r2,4(r4)
   443f8:	003f3e06 	br	440f4 <_gp+0xfffda20c>
   443fc:	01003f84 	movi	r4,254
   44400:	02001fc4 	movi	r8,127
   44404:	01c01f84 	movi	r7,126
   44408:	003e4006 	br	43d0c <_gp+0xfffd9e24>
   4440c:	008001b4 	movhi	r2,6
   44410:	1087cd04 	addi	r2,r2,7988
   44414:	15000015 	stw	r20,0(r2)
   44418:	003f1106 	br	44060 <_gp+0xfffda178>
   4441c:	00800044 	movi	r2,1
   44420:	002b883a 	mov	r21,zero
   44424:	003f1f06 	br	440a4 <_gp+0xfffda1bc>
   44428:	81400204 	addi	r5,r16,8
   4442c:	9009883a 	mov	r4,r18
   44430:	004e9100 	call	4e910 <_free_r>
   44434:	008001b4 	movhi	r2,6
   44438:	108ef504 	addi	r2,r2,15316
   4443c:	10c00017 	ldw	r3,0(r2)
   44440:	003f2c06 	br	440f4 <_gp+0xfffda20c>
   44444:	00c05504 	movi	r3,340
   44448:	18800536 	bltu	r3,r2,44460 <_malloc_r+0x7cc>
   4444c:	3804d3fa 	srli	r2,r7,15
   44450:	11401e04 	addi	r5,r2,120
   44454:	10c01dc4 	addi	r3,r2,119
   44458:	294b883a 	add	r5,r5,r5
   4445c:	003f5606 	br	441b8 <_gp+0xfffda2d0>
   44460:	00c15504 	movi	r3,1364
   44464:	18800536 	bltu	r3,r2,4447c <_malloc_r+0x7e8>
   44468:	3804d4ba 	srli	r2,r7,18
   4446c:	11401f44 	addi	r5,r2,125
   44470:	10c01f04 	addi	r3,r2,124
   44474:	294b883a 	add	r5,r5,r5
   44478:	003f4f06 	br	441b8 <_gp+0xfffda2d0>
   4447c:	01403f84 	movi	r5,254
   44480:	00c01f84 	movi	r3,126
   44484:	003f4c06 	br	441b8 <_gp+0xfffda2d0>
   44488:	98800117 	ldw	r2,4(r19)
   4448c:	003fa006 	br	44310 <_gp+0xfffda428>
   44490:	8808d0fa 	srli	r4,r17,3
   44494:	20800044 	addi	r2,r4,1
   44498:	1085883a 	add	r2,r2,r2
   4449c:	003e9006 	br	43ee0 <_gp+0xfffd9ff8>

000444a0 <memset>:
   444a0:	20c000cc 	andi	r3,r4,3
   444a4:	2005883a 	mov	r2,r4
   444a8:	18004426 	beq	r3,zero,445bc <memset+0x11c>
   444ac:	31ffffc4 	addi	r7,r6,-1
   444b0:	30004026 	beq	r6,zero,445b4 <memset+0x114>
   444b4:	2813883a 	mov	r9,r5
   444b8:	200d883a 	mov	r6,r4
   444bc:	2007883a 	mov	r3,r4
   444c0:	00000406 	br	444d4 <memset+0x34>
   444c4:	3a3fffc4 	addi	r8,r7,-1
   444c8:	31800044 	addi	r6,r6,1
   444cc:	38003926 	beq	r7,zero,445b4 <memset+0x114>
   444d0:	400f883a 	mov	r7,r8
   444d4:	18c00044 	addi	r3,r3,1
   444d8:	32400005 	stb	r9,0(r6)
   444dc:	1a0000cc 	andi	r8,r3,3
   444e0:	403ff81e 	bne	r8,zero,444c4 <_gp+0xfffda5dc>
   444e4:	010000c4 	movi	r4,3
   444e8:	21c02d2e 	bgeu	r4,r7,445a0 <memset+0x100>
   444ec:	29003fcc 	andi	r4,r5,255
   444f0:	200c923a 	slli	r6,r4,8
   444f4:	3108b03a 	or	r4,r6,r4
   444f8:	200c943a 	slli	r6,r4,16
   444fc:	218cb03a 	or	r6,r4,r6
   44500:	010003c4 	movi	r4,15
   44504:	21c0182e 	bgeu	r4,r7,44568 <memset+0xc8>
   44508:	3b3ffc04 	addi	r12,r7,-16
   4450c:	6018d13a 	srli	r12,r12,4
   44510:	1a000104 	addi	r8,r3,4
   44514:	1ac00204 	addi	r11,r3,8
   44518:	6008913a 	slli	r4,r12,4
   4451c:	1a800304 	addi	r10,r3,12
   44520:	1813883a 	mov	r9,r3
   44524:	21000504 	addi	r4,r4,20
   44528:	1909883a 	add	r4,r3,r4
   4452c:	49800015 	stw	r6,0(r9)
   44530:	41800015 	stw	r6,0(r8)
   44534:	59800015 	stw	r6,0(r11)
   44538:	51800015 	stw	r6,0(r10)
   4453c:	42000404 	addi	r8,r8,16
   44540:	4a400404 	addi	r9,r9,16
   44544:	5ac00404 	addi	r11,r11,16
   44548:	52800404 	addi	r10,r10,16
   4454c:	413ff71e 	bne	r8,r4,4452c <_gp+0xfffda644>
   44550:	63000044 	addi	r12,r12,1
   44554:	6018913a 	slli	r12,r12,4
   44558:	39c003cc 	andi	r7,r7,15
   4455c:	010000c4 	movi	r4,3
   44560:	1b07883a 	add	r3,r3,r12
   44564:	21c00e2e 	bgeu	r4,r7,445a0 <memset+0x100>
   44568:	1813883a 	mov	r9,r3
   4456c:	3811883a 	mov	r8,r7
   44570:	010000c4 	movi	r4,3
   44574:	49800015 	stw	r6,0(r9)
   44578:	423fff04 	addi	r8,r8,-4
   4457c:	4a400104 	addi	r9,r9,4
   44580:	223ffc36 	bltu	r4,r8,44574 <_gp+0xfffda68c>
   44584:	393fff04 	addi	r4,r7,-4
   44588:	2008d0ba 	srli	r4,r4,2
   4458c:	39c000cc 	andi	r7,r7,3
   44590:	21000044 	addi	r4,r4,1
   44594:	2109883a 	add	r4,r4,r4
   44598:	2109883a 	add	r4,r4,r4
   4459c:	1907883a 	add	r3,r3,r4
   445a0:	38000526 	beq	r7,zero,445b8 <memset+0x118>
   445a4:	19cf883a 	add	r7,r3,r7
   445a8:	19400005 	stb	r5,0(r3)
   445ac:	18c00044 	addi	r3,r3,1
   445b0:	38fffd1e 	bne	r7,r3,445a8 <_gp+0xfffda6c0>
   445b4:	f800283a 	ret
   445b8:	f800283a 	ret
   445bc:	2007883a 	mov	r3,r4
   445c0:	300f883a 	mov	r7,r6
   445c4:	003fc706 	br	444e4 <_gp+0xfffda5fc>

000445c8 <_printf_r>:
   445c8:	defffd04 	addi	sp,sp,-12
   445cc:	2805883a 	mov	r2,r5
   445d0:	dfc00015 	stw	ra,0(sp)
   445d4:	d9800115 	stw	r6,4(sp)
   445d8:	d9c00215 	stw	r7,8(sp)
   445dc:	21400217 	ldw	r5,8(r4)
   445e0:	d9c00104 	addi	r7,sp,4
   445e4:	100d883a 	mov	r6,r2
   445e8:	00489580 	call	48958 <___vfprintf_internal_r>
   445ec:	dfc00017 	ldw	ra,0(sp)
   445f0:	dec00304 	addi	sp,sp,12
   445f4:	f800283a 	ret

000445f8 <printf>:
   445f8:	defffc04 	addi	sp,sp,-16
   445fc:	dfc00015 	stw	ra,0(sp)
   44600:	d9400115 	stw	r5,4(sp)
   44604:	d9800215 	stw	r6,8(sp)
   44608:	d9c00315 	stw	r7,12(sp)
   4460c:	008001b4 	movhi	r2,6
   44610:	1087d104 	addi	r2,r2,8004
   44614:	10800017 	ldw	r2,0(r2)
   44618:	200b883a 	mov	r5,r4
   4461c:	d9800104 	addi	r6,sp,4
   44620:	11000217 	ldw	r4,8(r2)
   44624:	004ab500 	call	4ab50 <__vfprintf_internal>
   44628:	dfc00017 	ldw	ra,0(sp)
   4462c:	dec00404 	addi	sp,sp,16
   44630:	f800283a 	ret

00044634 <_puts_r>:
   44634:	defff604 	addi	sp,sp,-40
   44638:	dc000715 	stw	r16,28(sp)
   4463c:	2021883a 	mov	r16,r4
   44640:	2809883a 	mov	r4,r5
   44644:	dc400815 	stw	r17,32(sp)
   44648:	dfc00915 	stw	ra,36(sp)
   4464c:	2823883a 	mov	r17,r5
   44650:	0044f2c0 	call	44f2c <strlen>
   44654:	10c00044 	addi	r3,r2,1
   44658:	d8800115 	stw	r2,4(sp)
   4465c:	008001b4 	movhi	r2,6
   44660:	10bef604 	addi	r2,r2,-1064
   44664:	d8800215 	stw	r2,8(sp)
   44668:	00800044 	movi	r2,1
   4466c:	d8800315 	stw	r2,12(sp)
   44670:	00800084 	movi	r2,2
   44674:	dc400015 	stw	r17,0(sp)
   44678:	d8c00615 	stw	r3,24(sp)
   4467c:	dec00415 	stw	sp,16(sp)
   44680:	d8800515 	stw	r2,20(sp)
   44684:	80000226 	beq	r16,zero,44690 <_puts_r+0x5c>
   44688:	80800e17 	ldw	r2,56(r16)
   4468c:	10001426 	beq	r2,zero,446e0 <_puts_r+0xac>
   44690:	81400217 	ldw	r5,8(r16)
   44694:	2880030b 	ldhu	r2,12(r5)
   44698:	10c8000c 	andi	r3,r2,8192
   4469c:	1800061e 	bne	r3,zero,446b8 <_puts_r+0x84>
   446a0:	29001917 	ldw	r4,100(r5)
   446a4:	00f7ffc4 	movi	r3,-8193
   446a8:	10880014 	ori	r2,r2,8192
   446ac:	20c6703a 	and	r3,r4,r3
   446b0:	2880030d 	sth	r2,12(r5)
   446b4:	28c01915 	stw	r3,100(r5)
   446b8:	d9800404 	addi	r6,sp,16
   446bc:	8009883a 	mov	r4,r16
   446c0:	004ec200 	call	4ec20 <__sfvwrite_r>
   446c4:	1000091e 	bne	r2,zero,446ec <_puts_r+0xb8>
   446c8:	00800284 	movi	r2,10
   446cc:	dfc00917 	ldw	ra,36(sp)
   446d0:	dc400817 	ldw	r17,32(sp)
   446d4:	dc000717 	ldw	r16,28(sp)
   446d8:	dec00a04 	addi	sp,sp,40
   446dc:	f800283a 	ret
   446e0:	8009883a 	mov	r4,r16
   446e4:	004e53c0 	call	4e53c <__sinit>
   446e8:	003fe906 	br	44690 <_gp+0xfffda7a8>
   446ec:	00bfffc4 	movi	r2,-1
   446f0:	003ff606 	br	446cc <_gp+0xfffda7e4>

000446f4 <puts>:
   446f4:	008001b4 	movhi	r2,6
   446f8:	1087d104 	addi	r2,r2,8004
   446fc:	200b883a 	mov	r5,r4
   44700:	11000017 	ldw	r4,0(r2)
   44704:	00446341 	jmpi	44634 <_puts_r>

00044708 <_sbrk_r>:
   44708:	defffd04 	addi	sp,sp,-12
   4470c:	dc000015 	stw	r16,0(sp)
   44710:	040001b4 	movhi	r16,6
   44714:	dc400115 	stw	r17,4(sp)
   44718:	840ee604 	addi	r16,r16,15256
   4471c:	2023883a 	mov	r17,r4
   44720:	2809883a 	mov	r4,r5
   44724:	dfc00215 	stw	ra,8(sp)
   44728:	80000015 	stw	zero,0(r16)
   4472c:	005ceec0 	call	5ceec <sbrk>
   44730:	00ffffc4 	movi	r3,-1
   44734:	10c00526 	beq	r2,r3,4474c <_sbrk_r+0x44>
   44738:	dfc00217 	ldw	ra,8(sp)
   4473c:	dc400117 	ldw	r17,4(sp)
   44740:	dc000017 	ldw	r16,0(sp)
   44744:	dec00304 	addi	sp,sp,12
   44748:	f800283a 	ret
   4474c:	80c00017 	ldw	r3,0(r16)
   44750:	183ff926 	beq	r3,zero,44738 <_gp+0xfffda850>
   44754:	88c00015 	stw	r3,0(r17)
   44758:	003ff706 	br	44738 <_gp+0xfffda850>

0004475c <scanf>:
   4475c:	defffc04 	addi	sp,sp,-16
   44760:	dfc00015 	stw	ra,0(sp)
   44764:	d9400115 	stw	r5,4(sp)
   44768:	d9800215 	stw	r6,8(sp)
   4476c:	d9c00315 	stw	r7,12(sp)
   44770:	008001b4 	movhi	r2,6
   44774:	1087d104 	addi	r2,r2,8004
   44778:	200d883a 	mov	r6,r4
   4477c:	11000017 	ldw	r4,0(r2)
   44780:	d9c00104 	addi	r7,sp,4
   44784:	21400117 	ldw	r5,4(r4)
   44788:	004c4680 	call	4c468 <_vfscanf_r>
   4478c:	dfc00017 	ldw	ra,0(sp)
   44790:	dec00404 	addi	sp,sp,16
   44794:	f800283a 	ret

00044798 <_scanf_r>:
   44798:	defffd04 	addi	sp,sp,-12
   4479c:	2805883a 	mov	r2,r5
   447a0:	dfc00015 	stw	ra,0(sp)
   447a4:	d9800115 	stw	r6,4(sp)
   447a8:	d9c00215 	stw	r7,8(sp)
   447ac:	21400117 	ldw	r5,4(r4)
   447b0:	d9c00104 	addi	r7,sp,4
   447b4:	100d883a 	mov	r6,r2
   447b8:	004c4680 	call	4c468 <_vfscanf_r>
   447bc:	dfc00017 	ldw	ra,0(sp)
   447c0:	dec00304 	addi	sp,sp,12
   447c4:	f800283a 	ret

000447c8 <_init_signal_r>:
   447c8:	2080b717 	ldw	r2,732(r4)
   447cc:	10000226 	beq	r2,zero,447d8 <_init_signal_r+0x10>
   447d0:	0005883a 	mov	r2,zero
   447d4:	f800283a 	ret
   447d8:	defffe04 	addi	sp,sp,-8
   447dc:	01402004 	movi	r5,128
   447e0:	dc000015 	stw	r16,0(sp)
   447e4:	dfc00115 	stw	ra,4(sp)
   447e8:	2021883a 	mov	r16,r4
   447ec:	0043c940 	call	43c94 <_malloc_r>
   447f0:	8080b715 	stw	r2,732(r16)
   447f4:	10000d26 	beq	r2,zero,4482c <_init_signal_r+0x64>
   447f8:	0007883a 	mov	r3,zero
   447fc:	01002004 	movi	r4,128
   44800:	00000106 	br	44808 <_init_signal_r+0x40>
   44804:	8080b717 	ldw	r2,732(r16)
   44808:	10c5883a 	add	r2,r2,r3
   4480c:	10000015 	stw	zero,0(r2)
   44810:	18c00104 	addi	r3,r3,4
   44814:	193ffb1e 	bne	r3,r4,44804 <_gp+0xfffda91c>
   44818:	0005883a 	mov	r2,zero
   4481c:	dfc00117 	ldw	ra,4(sp)
   44820:	dc000017 	ldw	r16,0(sp)
   44824:	dec00204 	addi	sp,sp,8
   44828:	f800283a 	ret
   4482c:	00bfffc4 	movi	r2,-1
   44830:	003ffa06 	br	4481c <_gp+0xfffda934>

00044834 <_signal_r>:
   44834:	00c007c4 	movi	r3,31
   44838:	19401536 	bltu	r3,r5,44890 <_signal_r+0x5c>
   4483c:	2080b717 	ldw	r2,732(r4)
   44840:	defffc04 	addi	sp,sp,-16
   44844:	dc800215 	stw	r18,8(sp)
   44848:	dc400115 	stw	r17,4(sp)
   4484c:	dc000015 	stw	r16,0(sp)
   44850:	dfc00315 	stw	ra,12(sp)
   44854:	3023883a 	mov	r17,r6
   44858:	2021883a 	mov	r16,r4
   4485c:	2825883a 	mov	r18,r5
   44860:	10000f26 	beq	r2,zero,448a0 <_signal_r+0x6c>
   44864:	948b883a 	add	r5,r18,r18
   44868:	294b883a 	add	r5,r5,r5
   4486c:	114b883a 	add	r5,r2,r5
   44870:	28800017 	ldw	r2,0(r5)
   44874:	2c400015 	stw	r17,0(r5)
   44878:	dfc00317 	ldw	ra,12(sp)
   4487c:	dc800217 	ldw	r18,8(sp)
   44880:	dc400117 	ldw	r17,4(sp)
   44884:	dc000017 	ldw	r16,0(sp)
   44888:	dec00404 	addi	sp,sp,16
   4488c:	f800283a 	ret
   44890:	00c00584 	movi	r3,22
   44894:	20c00015 	stw	r3,0(r4)
   44898:	00bfffc4 	movi	r2,-1
   4489c:	f800283a 	ret
   448a0:	00447c80 	call	447c8 <_init_signal_r>
   448a4:	1000021e 	bne	r2,zero,448b0 <_signal_r+0x7c>
   448a8:	8080b717 	ldw	r2,732(r16)
   448ac:	003fed06 	br	44864 <_gp+0xfffda97c>
   448b0:	00bfffc4 	movi	r2,-1
   448b4:	003ff006 	br	44878 <_gp+0xfffda990>

000448b8 <_raise_r>:
   448b8:	008007c4 	movi	r2,31
   448bc:	11402936 	bltu	r2,r5,44964 <_raise_r+0xac>
   448c0:	20c0b717 	ldw	r3,732(r4)
   448c4:	defffd04 	addi	sp,sp,-12
   448c8:	dc400115 	stw	r17,4(sp)
   448cc:	dc000015 	stw	r16,0(sp)
   448d0:	dfc00215 	stw	ra,8(sp)
   448d4:	2021883a 	mov	r16,r4
   448d8:	2823883a 	mov	r17,r5
   448dc:	18001726 	beq	r3,zero,4493c <_raise_r+0x84>
   448e0:	2945883a 	add	r2,r5,r5
   448e4:	1085883a 	add	r2,r2,r2
   448e8:	1887883a 	add	r3,r3,r2
   448ec:	19800017 	ldw	r6,0(r3)
   448f0:	30001226 	beq	r6,zero,4493c <_raise_r+0x84>
   448f4:	00800044 	movi	r2,1
   448f8:	30800e26 	beq	r6,r2,44934 <_raise_r+0x7c>
   448fc:	013fffc4 	movi	r4,-1
   44900:	31000926 	beq	r6,r4,44928 <_raise_r+0x70>
   44904:	18000015 	stw	zero,0(r3)
   44908:	2809883a 	mov	r4,r5
   4490c:	303ee83a 	callr	r6
   44910:	0005883a 	mov	r2,zero
   44914:	dfc00217 	ldw	ra,8(sp)
   44918:	dc400117 	ldw	r17,4(sp)
   4491c:	dc000017 	ldw	r16,0(sp)
   44920:	dec00304 	addi	sp,sp,12
   44924:	f800283a 	ret
   44928:	00c00584 	movi	r3,22
   4492c:	80c00015 	stw	r3,0(r16)
   44930:	003ff806 	br	44914 <_gp+0xfffdaa2c>
   44934:	0005883a 	mov	r2,zero
   44938:	003ff606 	br	44914 <_gp+0xfffdaa2c>
   4493c:	8009883a 	mov	r4,r16
   44940:	0044ac80 	call	44ac8 <_getpid_r>
   44944:	880d883a 	mov	r6,r17
   44948:	100b883a 	mov	r5,r2
   4494c:	8009883a 	mov	r4,r16
   44950:	dfc00217 	ldw	ra,8(sp)
   44954:	dc400117 	ldw	r17,4(sp)
   44958:	dc000017 	ldw	r16,0(sp)
   4495c:	dec00304 	addi	sp,sp,12
   44960:	0044a6c1 	jmpi	44a6c <_kill_r>
   44964:	00800584 	movi	r2,22
   44968:	20800015 	stw	r2,0(r4)
   4496c:	00bfffc4 	movi	r2,-1
   44970:	f800283a 	ret

00044974 <__sigtramp_r>:
   44974:	008007c4 	movi	r2,31
   44978:	11402436 	bltu	r2,r5,44a0c <__sigtramp_r+0x98>
   4497c:	20c0b717 	ldw	r3,732(r4)
   44980:	defffd04 	addi	sp,sp,-12
   44984:	dc400115 	stw	r17,4(sp)
   44988:	dc000015 	stw	r16,0(sp)
   4498c:	dfc00215 	stw	ra,8(sp)
   44990:	2021883a 	mov	r16,r4
   44994:	2823883a 	mov	r17,r5
   44998:	18001826 	beq	r3,zero,449fc <__sigtramp_r+0x88>
   4499c:	8c45883a 	add	r2,r17,r17
   449a0:	1085883a 	add	r2,r2,r2
   449a4:	1885883a 	add	r2,r3,r2
   449a8:	10c00017 	ldw	r3,0(r2)
   449ac:	18001126 	beq	r3,zero,449f4 <__sigtramp_r+0x80>
   449b0:	013fffc4 	movi	r4,-1
   449b4:	19000d26 	beq	r3,r4,449ec <__sigtramp_r+0x78>
   449b8:	01000044 	movi	r4,1
   449bc:	19000926 	beq	r3,r4,449e4 <__sigtramp_r+0x70>
   449c0:	10000015 	stw	zero,0(r2)
   449c4:	8809883a 	mov	r4,r17
   449c8:	183ee83a 	callr	r3
   449cc:	0005883a 	mov	r2,zero
   449d0:	dfc00217 	ldw	ra,8(sp)
   449d4:	dc400117 	ldw	r17,4(sp)
   449d8:	dc000017 	ldw	r16,0(sp)
   449dc:	dec00304 	addi	sp,sp,12
   449e0:	f800283a 	ret
   449e4:	008000c4 	movi	r2,3
   449e8:	003ff906 	br	449d0 <_gp+0xfffdaae8>
   449ec:	00800084 	movi	r2,2
   449f0:	003ff706 	br	449d0 <_gp+0xfffdaae8>
   449f4:	00800044 	movi	r2,1
   449f8:	003ff506 	br	449d0 <_gp+0xfffdaae8>
   449fc:	00447c80 	call	447c8 <_init_signal_r>
   44a00:	1000041e 	bne	r2,zero,44a14 <__sigtramp_r+0xa0>
   44a04:	80c0b717 	ldw	r3,732(r16)
   44a08:	003fe406 	br	4499c <_gp+0xfffdaab4>
   44a0c:	00bfffc4 	movi	r2,-1
   44a10:	f800283a 	ret
   44a14:	00bfffc4 	movi	r2,-1
   44a18:	003fed06 	br	449d0 <_gp+0xfffdaae8>

00044a1c <raise>:
   44a1c:	008001b4 	movhi	r2,6
   44a20:	1087d104 	addi	r2,r2,8004
   44a24:	200b883a 	mov	r5,r4
   44a28:	11000017 	ldw	r4,0(r2)
   44a2c:	00448b81 	jmpi	448b8 <_raise_r>

00044a30 <signal>:
   44a30:	008001b4 	movhi	r2,6
   44a34:	1087d104 	addi	r2,r2,8004
   44a38:	280d883a 	mov	r6,r5
   44a3c:	200b883a 	mov	r5,r4
   44a40:	11000017 	ldw	r4,0(r2)
   44a44:	00448341 	jmpi	44834 <_signal_r>

00044a48 <_init_signal>:
   44a48:	008001b4 	movhi	r2,6
   44a4c:	1087d104 	addi	r2,r2,8004
   44a50:	11000017 	ldw	r4,0(r2)
   44a54:	00447c81 	jmpi	447c8 <_init_signal_r>

00044a58 <__sigtramp>:
   44a58:	008001b4 	movhi	r2,6
   44a5c:	1087d104 	addi	r2,r2,8004
   44a60:	200b883a 	mov	r5,r4
   44a64:	11000017 	ldw	r4,0(r2)
   44a68:	00449741 	jmpi	44974 <__sigtramp_r>

00044a6c <_kill_r>:
   44a6c:	defffd04 	addi	sp,sp,-12
   44a70:	2805883a 	mov	r2,r5
   44a74:	dc000015 	stw	r16,0(sp)
   44a78:	040001b4 	movhi	r16,6
   44a7c:	dc400115 	stw	r17,4(sp)
   44a80:	840ee604 	addi	r16,r16,15256
   44a84:	2023883a 	mov	r17,r4
   44a88:	300b883a 	mov	r5,r6
   44a8c:	1009883a 	mov	r4,r2
   44a90:	dfc00215 	stw	ra,8(sp)
   44a94:	80000015 	stw	zero,0(r16)
   44a98:	005c70c0 	call	5c70c <kill>
   44a9c:	00ffffc4 	movi	r3,-1
   44aa0:	10c00526 	beq	r2,r3,44ab8 <_kill_r+0x4c>
   44aa4:	dfc00217 	ldw	ra,8(sp)
   44aa8:	dc400117 	ldw	r17,4(sp)
   44aac:	dc000017 	ldw	r16,0(sp)
   44ab0:	dec00304 	addi	sp,sp,12
   44ab4:	f800283a 	ret
   44ab8:	80c00017 	ldw	r3,0(r16)
   44abc:	183ff926 	beq	r3,zero,44aa4 <_gp+0xfffdabbc>
   44ac0:	88c00015 	stw	r3,0(r17)
   44ac4:	003ff706 	br	44aa4 <_gp+0xfffdabbc>

00044ac8 <_getpid_r>:
   44ac8:	005c5d01 	jmpi	5c5d0 <getpid>

00044acc <_sprintf_r>:
   44acc:	deffe404 	addi	sp,sp,-112
   44ad0:	2807883a 	mov	r3,r5
   44ad4:	dfc01a15 	stw	ra,104(sp)
   44ad8:	d9c01b15 	stw	r7,108(sp)
   44adc:	00a00034 	movhi	r2,32768
   44ae0:	10bfffc4 	addi	r2,r2,-1
   44ae4:	02008204 	movi	r8,520
   44ae8:	d8800215 	stw	r2,8(sp)
   44aec:	d8800515 	stw	r2,20(sp)
   44af0:	d9c01b04 	addi	r7,sp,108
   44af4:	d80b883a 	mov	r5,sp
   44af8:	00bfffc4 	movi	r2,-1
   44afc:	d8c00015 	stw	r3,0(sp)
   44b00:	d8c00415 	stw	r3,16(sp)
   44b04:	da00030d 	sth	r8,12(sp)
   44b08:	d880038d 	sth	r2,14(sp)
   44b0c:	0044fc40 	call	44fc4 <___svfprintf_internal_r>
   44b10:	d8c00017 	ldw	r3,0(sp)
   44b14:	18000005 	stb	zero,0(r3)
   44b18:	dfc01a17 	ldw	ra,104(sp)
   44b1c:	dec01c04 	addi	sp,sp,112
   44b20:	f800283a 	ret

00044b24 <sprintf>:
   44b24:	deffe304 	addi	sp,sp,-116
   44b28:	2007883a 	mov	r3,r4
   44b2c:	dfc01a15 	stw	ra,104(sp)
   44b30:	d9801b15 	stw	r6,108(sp)
   44b34:	d9c01c15 	stw	r7,112(sp)
   44b38:	010001b4 	movhi	r4,6
   44b3c:	2107d104 	addi	r4,r4,8004
   44b40:	21000017 	ldw	r4,0(r4)
   44b44:	00a00034 	movhi	r2,32768
   44b48:	10bfffc4 	addi	r2,r2,-1
   44b4c:	280d883a 	mov	r6,r5
   44b50:	02008204 	movi	r8,520
   44b54:	d8800215 	stw	r2,8(sp)
   44b58:	d8800515 	stw	r2,20(sp)
   44b5c:	d9c01b04 	addi	r7,sp,108
   44b60:	d80b883a 	mov	r5,sp
   44b64:	00bfffc4 	movi	r2,-1
   44b68:	d8c00015 	stw	r3,0(sp)
   44b6c:	d8c00415 	stw	r3,16(sp)
   44b70:	da00030d 	sth	r8,12(sp)
   44b74:	d880038d 	sth	r2,14(sp)
   44b78:	0044fc40 	call	44fc4 <___svfprintf_internal_r>
   44b7c:	d8c00017 	ldw	r3,0(sp)
   44b80:	18000005 	stb	zero,0(r3)
   44b84:	dfc01a17 	ldw	ra,104(sp)
   44b88:	dec01d04 	addi	sp,sp,116
   44b8c:	f800283a 	ret

00044b90 <sscanf>:
   44b90:	deffe204 	addi	sp,sp,-120
   44b94:	dc001a15 	stw	r16,104(sp)
   44b98:	2821883a 	mov	r16,r5
   44b9c:	dfc01b15 	stw	ra,108(sp)
   44ba0:	d9801c15 	stw	r6,112(sp)
   44ba4:	d9c01d15 	stw	r7,116(sp)
   44ba8:	00c08104 	movi	r3,516
   44bac:	d8c0030d 	sth	r3,12(sp)
   44bb0:	d9000015 	stw	r4,0(sp)
   44bb4:	d9000415 	stw	r4,16(sp)
   44bb8:	0044f2c0 	call	44f2c <strlen>
   44bbc:	00c001b4 	movhi	r3,6
   44bc0:	18c7d104 	addi	r3,r3,8004
   44bc4:	d8800115 	stw	r2,4(sp)
   44bc8:	d8800515 	stw	r2,20(sp)
   44bcc:	19000017 	ldw	r4,0(r3)
   44bd0:	00800134 	movhi	r2,4
   44bd4:	10933604 	addi	r2,r2,19672
   44bd8:	d8800815 	stw	r2,32(sp)
   44bdc:	d9c01c04 	addi	r7,sp,112
   44be0:	800d883a 	mov	r6,r16
   44be4:	d80b883a 	mov	r5,sp
   44be8:	00bfffc4 	movi	r2,-1
   44bec:	d8000c15 	stw	zero,48(sp)
   44bf0:	d8001115 	stw	zero,68(sp)
   44bf4:	d880038d 	sth	r2,14(sp)
