
HC05_Config.elf:     file format elf32-littlenios2
HC05_Config.elf
architecture: nios2:r1, flags 0x00000112:
EXEC_P, HAS_SYMS, D_PAGED
start address 0x00020244

Program Header:
    LOAD off    0x00001000 vaddr 0x00020000 paddr 0x00020000 align 2**12
         filesz 0x00000020 memsz 0x00000020 flags r-x
    LOAD off    0x00001020 vaddr 0x00020020 paddr 0x00020020 align 2**12
         filesz 0x00013500 memsz 0x00013500 flags r-x
    LOAD off    0x00014520 vaddr 0x00033520 paddr 0x00035108 align 2**12
         filesz 0x00001be8 memsz 0x00001be8 flags rw-
    LOAD off    0x00016cf0 vaddr 0x00036cf0 paddr 0x00036cf0 align 2**12
         filesz 0x00000000 memsz 0x0000017c flags rw-

Sections:
Idx Name          Size      VMA       LMA       File off  Algn
  0 .entry        00000020  00020000  00020000  00001000  2**5
                  CONTENTS, ALLOC, LOAD, READONLY, CODE
  1 .exceptions   00000224  00020020  00020020  00001020  2**2
                  CONTENTS, ALLOC, LOAD, READONLY, CODE
  2 .text         00012d18  00020244  00020244  00001244  2**2
                  CONTENTS, ALLOC, LOAD, READONLY, CODE
  3 .rodata       000005c4  00032f5c  00032f5c  00013f5c  2**2
                  CONTENTS, ALLOC, LOAD, READONLY, DATA
  4 .rwdata       00001be8  00033520  00035108  00014520  2**2
                  CONTENTS, ALLOC, LOAD, DATA, SMALL_DATA
  5 .bss          0000017c  00036cf0  00036cf0  00016cf0  2**2
                  ALLOC, SMALL_DATA
  6 .onchip_memory2_0 00000000  00036e6c  00036e6c  00016108  2**0
                  CONTENTS
  7 .comment      00000023  00000000  00000000  00016108  2**0
                  CONTENTS, READONLY
  8 .debug_aranges 00001448  00000000  00000000  00016130  2**3
                  CONTENTS, READONLY, DEBUGGING
  9 .debug_info   0002fb1b  00000000  00000000  00017578  2**0
                  CONTENTS, READONLY, DEBUGGING
 10 .debug_abbrev 0000cedc  00000000  00000000  00047093  2**0
                  CONTENTS, READONLY, DEBUGGING
 11 .debug_line   0000fc8f  00000000  00000000  00053f6f  2**0
                  CONTENTS, READONLY, DEBUGGING
 12 .debug_frame  000031d0  00000000  00000000  00063c00  2**2
                  CONTENTS, READONLY, DEBUGGING
 13 .debug_str    00006d46  00000000  00000000  00066dd0  2**0
                  CONTENTS, READONLY, DEBUGGING
 14 .debug_loc    0001b9f7  00000000  00000000  0006db16  2**0
                  CONTENTS, READONLY, DEBUGGING
 15 .debug_alt_sim_info 00000060  00000000  00000000  00089510  2**2
                  CONTENTS, READONLY, DEBUGGING
 16 .debug_ranges 00001fd0  00000000  00000000  00089570  2**3
                  CONTENTS, READONLY, DEBUGGING
 17 .thread_model 00000003  00000000  00000000  00090622  2**0
                  CONTENTS, READONLY
 18 .cpu          0000000c  00000000  00000000  00090625  2**0
                  CONTENTS, READONLY
 19 .qsys         00000001  00000000  00000000  00090631  2**0
                  CONTENTS, READONLY
 20 .simulation_enabled 00000001  00000000  00000000  00090632  2**0
                  CONTENTS, READONLY
 21 .stderr_dev   0000000b  00000000  00000000  00090633  2**0
                  CONTENTS, READONLY
 22 .stdin_dev    0000000b  00000000  00000000  0009063e  2**0
                  CONTENTS, READONLY
 23 .stdout_dev   0000000b  00000000  00000000  00090649  2**0
                  CONTENTS, READONLY
 24 .sopc_system_name 00000004  00000000  00000000  00090654  2**0
                  CONTENTS, READONLY
 25 .quartus_project_dir 00000051  00000000  00000000  00090658  2**0
                  CONTENTS, READONLY
 26 .jdi          00003d2a  00000000  00000000  000906a9  2**0
                  CONTENTS, READONLY
 27 .sopcinfo     0003f32a  00000000  00000000  000943d3  2**0
                  CONTENTS, READONLY
SYMBOL TABLE:
00020000 l    d  .entry	00000000 .entry
00020020 l    d  .exceptions	00000000 .exceptions
00020244 l    d  .text	00000000 .text
00032f5c l    d  .rodata	00000000 .rodata
00033520 l    d  .rwdata	00000000 .rwdata
00036cf0 l    d  .bss	00000000 .bss
00036e6c l    d  .onchip_memory2_0	00000000 .onchip_memory2_0
00000000 l    d  .comment	00000000 .comment
00000000 l    d  .debug_aranges	00000000 .debug_aranges
00000000 l    d  .debug_info	00000000 .debug_info
00000000 l    d  .debug_abbrev	00000000 .debug_abbrev
00000000 l    d  .debug_line	00000000 .debug_line
00000000 l    d  .debug_frame	00000000 .debug_frame
00000000 l    d  .debug_str	00000000 .debug_str
00000000 l    d  .debug_loc	00000000 .debug_loc
00000000 l    d  .debug_alt_sim_info	00000000 .debug_alt_sim_info
00000000 l    d  .debug_ranges	00000000 .debug_ranges
00000000 l    df *ABS*	00000000 ../HC05_Config_bsp//obj/HAL/src/crt0.o
0002028c l       .text	00000000 alt_after_alt_main
00000000 l    df *ABS*	00000000 alt_irq_handler.c
00000000 l    df *ABS*	00000000 alt_instruction_exception_entry.c
00000000 l    df *ABS*	00000000 CUart.cpp
00000000 l    df *ABS*	00000000 main.cpp
00000000 l    df *ABS*	00000000 del_op.cc
00000000 l    df *ABS*	00000000 eh_personality.cc
00020ad8 l     F .text	000000a4 _ZL21size_of_encoded_valueh
00020b7c l     F .text	0000020c _ZL28read_encoded_value_with_basehjPKhPj
00020d88 l     F .text	00000054 _ZL15get_ttype_entryP16lsda_header_infom
00020ddc l     F .text	0000008c _ZL21base_of_encoded_valuehP15_Unwind_Context
00020e68 l     F .text	00000134 _ZL17parse_lsda_headerP15_Unwind_ContextPKhP16lsda_header_info
00020f9c l     F .text	00000088 _ZL16get_adjusted_ptrPKSt9type_infoS1_PPv.constprop.3
00021024 l     F .text	000001c0 _ZL28check_compact_exception_specPKSt9type_infoPvPKhij
000211e4 l     F .text	000000a8 _ZL20check_exception_specP16lsda_header_infoPKSt9type_infoPvl
00000000 l    df *ABS*	00000000 eh_catch.cc
00000000 l    df *ABS*	00000000 eh_terminate.cc
00000000 l    df *ABS*	00000000 eh_globals.cc
00036cf0 l     O .bss	00000008 _ZL10eh_globals
00000000 l    df *ABS*	00000000 eh_alloc.cc
00021dac l     F .text	000000b8 _ZN12_GLOBAL__N_14pool4freeEPv.constprop.4
00036d34 l     O .bss	00000010 _ZN12_GLOBAL__N_114emergency_poolE
00021e64 l     F .text	000000a8 _ZN12_GLOBAL__N_14pool8allocateEj.constprop.5
00022014 l     F .text	0000005c _GLOBAL__sub_I___cxa_allocate_exception
00000000 l    df *ABS*	00000000 class_type_info.cc
00000000 l    df *ABS*	00000000 eh_exception.cc
00000000 l    df *ABS*	00000000 eh_throw.cc
00022370 l     F .text	00000044 _ZL23__gxx_exception_cleanup19_Unwind_Reason_CodeP17_Unwind_Exception
00000000 l    df *ABS*	00000000 eh_call.cc
00000000 l    df *ABS*	00000000 si_class_type_info.cc
00000000 l    df *ABS*	00000000 tinfo.cc
00000000 l    df *ABS*	00000000 eh_term_handler.cc
00000000 l    df *ABS*	00000000 eh_unex_handler.cc
00000000 l    df *ABS*	00000000 pure.cc
00000000 l    df *ABS*	00000000 lib2-divmod.c
00000000 l    df *ABS*	00000000 unwind-sjlj.c
00022a34 l     F .text	00000118 _Unwind_ForcedUnwind_Phase2
00036cf8 l     O .bss	00000004 fc_static
00022b4c l     F .text	000000c0 _Unwind_RaiseException_Phase2
00022c0c l     F .text	00000030 uw_install_context.isra.1
00000000 l    df *ABS*	00000000 abort.c
00000000 l    df *ABS*	00000000 malloc.c
00000000 l    df *ABS*	00000000 mallocr.c
00000000 l    df *ABS*	00000000 memset.c
00000000 l    df *ABS*	00000000 printf.c
00000000 l    df *ABS*	00000000 puts.c
00000000 l    df *ABS*	00000000 sbrkr.c
00000000 l    df *ABS*	00000000 signal.c
00000000 l    df *ABS*	00000000 signalr.c
00000000 l    df *ABS*	00000000 strcmp.c
00000000 l    df *ABS*	00000000 strlen.c
00000000 l    df *ABS*	00000000 vfprintf.c
00033256 l     O .rodata	00000010 zeroes.4404
000260e8 l     F .text	000000bc __sbprintf
00033266 l     O .rodata	00000010 blanks.4403
00000000 l    df *ABS*	00000000 wsetup.c
00000000 l    df *ABS*	00000000 dtoa.c
000262f8 l     F .text	00000200 quorem
00000000 l    df *ABS*	00000000 fflush.c
00000000 l    df *ABS*	00000000 findfp.c
00027e28 l     F .text	00000008 __fp_unlock
00027e3c l     F .text	0000019c __sinit.part.1
00027fd8 l     F .text	00000008 __fp_lock
00000000 l    df *ABS*	00000000 mallocr.c
00000000 l    df *ABS*	00000000 fvwrite.c
00000000 l    df *ABS*	00000000 fwalk.c
00000000 l    df *ABS*	00000000 impure.c
00033928 l     O .rwdata	00000424 impure_data
00000000 l    df *ABS*	00000000 int_errno.c
00000000 l    df *ABS*	00000000 locale.c
00033d6c l     O .rwdata	00000020 lc_ctype_charset
00033d4c l     O .rwdata	00000020 lc_message_charset
00033d8c l     O .rwdata	00000038 lconv
00000000 l    df *ABS*	00000000 makebuf.c
00000000 l    df *ABS*	00000000 memchr.c
00000000 l    df *ABS*	00000000 memcpy.c
00000000 l    df *ABS*	00000000 memmove.c
00000000 l    df *ABS*	00000000 mprec.c
00033298 l     O .rodata	0000000c p05.2768
00000000 l    df *ABS*	00000000 mallocr.c
00000000 l    df *ABS*	00000000 s_fpclassify.c
00000000 l    df *ABS*	00000000 stdio.c
00000000 l    df *ABS*	00000000 vfprintf.c
0002a970 l     F .text	000000fc __sprint_r.part.0
000333cc l     O .rodata	00000010 blanks.4348
000333bc l     O .rodata	00000010 zeroes.4349
0002befc l     F .text	000000bc __sbprintf
00000000 l    df *ABS*	00000000 writer.c
00000000 l    df *ABS*	00000000 closer.c
00000000 l    df *ABS*	00000000 mallocr.c
00000000 l    df *ABS*	00000000 fclose.c
00000000 l    df *ABS*	00000000 fputwc.c
00000000 l    df *ABS*	00000000 fstatr.c
00000000 l    df *ABS*	00000000 isattyr.c
00000000 l    df *ABS*	00000000 lseekr.c
00000000 l    df *ABS*	00000000 readr.c
00000000 l    df *ABS*	00000000 wbuf.c
00000000 l    df *ABS*	00000000 wcrtomb.c
00000000 l    df *ABS*	00000000 wctomb_r.c
00000000 l    df *ABS*	00000000 libgcc2.c
00000000 l    df *ABS*	00000000 libgcc2.c
00000000 l    df *ABS*	00000000 adddf3.c
00000000 l    df *ABS*	00000000 divdf3.c
00000000 l    df *ABS*	00000000 eqdf2.c
00000000 l    df *ABS*	00000000 gedf2.c
00000000 l    df *ABS*	00000000 ledf2.c
00000000 l    df *ABS*	00000000 muldf3.c
00000000 l    df *ABS*	00000000 subdf3.c
00000000 l    df *ABS*	00000000 fixdfsi.c
00000000 l    df *ABS*	00000000 floatsidf.c
00000000 l    df *ABS*	00000000 floatunsidf.c
00000000 l    df *ABS*	00000000 libgcc2.c
00000000 l    df *ABS*	00000000 libgcc2.c
00000000 l    df *ABS*	00000000 alt_close.c
0002fa04 l     F .text	0000003c alt_get_errno
00000000 l    df *ABS*	00000000 alt_dev.c
0002fb10 l     F .text	0000002c alt_dev_null_write
00000000 l    df *ABS*	00000000 alt_errno.c
00000000 l    df *ABS*	00000000 alt_exit.c
00000000 l    df *ABS*	00000000 alt_fcntl.c
0002fb70 l     F .text	0000003c alt_get_errno
00000000 l    df *ABS*	00000000 alt_fstat.c
0002fccc l     F .text	0000003c alt_get_errno
00000000 l    df *ABS*	00000000 alt_getpid.c
00000000 l    df *ABS*	00000000 alt_isatty.c
0002fdd8 l     F .text	0000003c alt_get_errno
00000000 l    df *ABS*	00000000 alt_kill.c
0002feb8 l     F .text	0000003c alt_get_errno
00000000 l    df *ABS*	00000000 alt_load.c
00030024 l     F .text	00000068 alt_load_section
00000000 l    df *ABS*	00000000 alt_lseek.c
00030110 l     F .text	0000003c alt_get_errno
00000000 l    df *ABS*	00000000 alt_main.c
00000000 l    df *ABS*	00000000 alt_malloc_lock.c
00000000 l    df *ABS*	00000000 alt_open.c
000302e4 l     F .text	0000003c alt_get_errno
00030320 l     F .text	000000c4 alt_file_locked
00000000 l    df *ABS*	00000000 alt_read.c
00030538 l     F .text	0000003c alt_get_errno
00000000 l    df *ABS*	00000000 alt_release_fd.c
00000000 l    df *ABS*	00000000 alt_sbrk.c
000350f8 l     O .rwdata	00000004 heap_end
00000000 l    df *ABS*	00000000 alt_tick.c
00000000 l    df *ABS*	00000000 alt_usleep.c
00000000 l    df *ABS*	00000000 alt_write.c
00030958 l     F .text	0000003c alt_get_errno
00000000 l    df *ABS*	00000000 alt_sys_init.c
00030a8c l     F .text	00000034 alt_dev_reg
00033f6c l     O .rwdata	00001060 jtag_uart_0
00034fcc l     O .rwdata	000000c4 hc_05_uart
00000000 l    df *ABS*	00000000 altera_avalon_jtag_uart_fd.c
00000000 l    df *ABS*	00000000 altera_avalon_jtag_uart_init.c
00030d9c l     F .text	0000020c altera_avalon_jtag_uart_irq
00030fa8 l     F .text	000000a0 altera_avalon_jtag_uart_timeout
00000000 l    df *ABS*	00000000 altera_avalon_jtag_uart_ioctl.c
00000000 l    df *ABS*	00000000 altera_avalon_jtag_uart_read.c
00000000 l    df *ABS*	00000000 altera_avalon_jtag_uart_write.c
00000000 l    df *ABS*	00000000 altera_avalon_timer_sc.c
000315e0 l     F .text	00000078 alt_avalon_timer_sc_irq
00000000 l    df *ABS*	00000000 altera_avalon_uart_fd.c
00000000 l    df *ABS*	00000000 altera_avalon_uart_init.c
00031890 l     F .text	0000009c altera_avalon_uart_irq
0003192c l     F .text	000000e4 altera_avalon_uart_rxirq
00031a10 l     F .text	00000148 altera_avalon_uart_txirq
00000000 l    df *ABS*	00000000 altera_avalon_uart_read.c
00031bac l     F .text	0000003c alt_get_errno
00000000 l    df *ABS*	00000000 altera_avalon_uart_write.c
00031dc4 l     F .text	0000003c alt_get_errno
00000000 l    df *ABS*	00000000 alt_alarm_start.c
00000000 l    df *ABS*	00000000 alt_busy_sleep.c
00000000 l    df *ABS*	00000000 alt_dcache_flush_all.c
00000000 l    df *ABS*	00000000 alt_dev_llist_insert.c
00032278 l     F .text	0000003c alt_get_errno
00000000 l    df *ABS*	00000000 alt_do_ctors.c
00000000 l    df *ABS*	00000000 alt_do_dtors.c
00000000 l    df *ABS*	00000000 alt_find_dev.c
00000000 l    df *ABS*	00000000 alt_find_file.c
00000000 l    df *ABS*	00000000 alt_get_fd.c
00000000 l    df *ABS*	00000000 alt_icache_flush_all.c
00000000 l    df *ABS*	00000000 alt_iic.c
00000000 l    df *ABS*	00000000 alt_iic_isr_register.c
00000000 l    df *ABS*	00000000 alt_io_redirect.c
00032928 l     F .text	000000c4 alt_open_fd
00000000 l    df *ABS*	00000000 alt_irq_vars.c
00000000 l    df *ABS*	00000000 altera_nios2_gen2_irq.c
00000000 l    df *ABS*	00000000 alt_icache_flush.c
00000000 l    df *ABS*	00000000 atexit.c
00000000 l    df *ABS*	00000000 exit.c
00000000 l    df *ABS*	00000000 memcmp.c
00000000 l    df *ABS*	00000000 __atexit.c
00000000 l    df *ABS*	00000000 __call_atexit.c
00036d30 g     O .bss	00000004 alt_instruction_exception_handler
00021f6c g     F .text	00000028 __cxa_free_exception
000227e8 g     F .text	00000008 _ZNKSt9type_info15__is_function_pEv
0002a0e4 g     F .text	00000074 _mprec_log10
00021d34 g     F .text	00000018 _ZSt10unexpectedv
0002a1d0 g     F .text	0000008c __any_on
0002c498 g     F .text	00000054 _isatty_r
000332a4 g     O .rodata	00000028 __mprec_tinytens
00030220 g     F .text	0000007c alt_main
00023934 g     F .text	000000c0 _puts_r
00036d6c g     O .bss	00000100 alt_irq
00022360 g     F .text	00000004 _ZN10__cxxabiv115__forced_unwindD1Ev
0002c4ec g     F .text	00000060 _lseek_r
00022cc8 g     F .text	00000020 .hidden _Unwind_GetIPInfo
00035108 g       *ABS*	00000000 __flash_rwdata_start
0002e530 g     F .text	00000088 .hidden __eqdf2
00022444 g     F .text	00000084 __cxa_rethrow
00022c54 g     F .text	00000014 .hidden _Unwind_SjLj_Unregister
00021d70 g     F .text	00000014 _ZSt14set_unexpectedPFvvE
00022cb8 g     F .text	00000010 .hidden _Unwind_GetIP
00036e6c g       *ABS*	00000000 __alt_heap_start
00023d00 g     F .text	0000005c _kill_r
000238f8 g     F .text	0000003c printf
0002c704 g     F .text	0000009c _wcrtomb_r
00023ac8 g     F .text	00000084 _signal_r
0002a90c g     F .text	0000005c __sseek
00028178 g     F .text	00000010 __sinit
0002c5ac g     F .text	00000140 __swbuf_r
00021fe8 g     F .text	0000002c __cxa_free_dependent_exception
00022520 g     F .text	00000010 _ZN10__cxxabiv120__si_class_type_infoD2Ev
00028c40 g     F .text	0000007c _setlocale_r
00033144  w    O .rodata	00000025 _ZTSN10__cxxabiv120__si_class_type_infoE
00027fe0 g     F .text	00000068 __sfmoreglue
000302c0 g     F .text	00000024 __malloc_unlock
00022360 g     F .text	00000004 _ZN10__cxxabiv115__forced_unwindD2Ev
00021c2c g     F .text	00000020 _ZSt18uncaught_exceptionv
00022860 g     F .text	00000020 __cxa_deleted_virtual
00029104 g     F .text	0000015c memmove
00022338 g     F .text	00000004 _ZNSt9exceptionD2Ev
00028160 g     F .text	00000018 _cleanup
00029260 g     F .text	000000a8 _Balloc
000202cc g     F .text	00000048 _ZN5CUartD2Ev
0002034c g     F .text	00000048 _ZN5CUart4OpenEPc
0002e5b8 g     F .text	000000dc .hidden __gtdf2
00033108  w    O .rodata	00000014 _ZTVSt13bad_exception
00032a68 g     F .text	00000024 altera_nios2_gen2_irq_init
00020000 g     F .entry	0000001c __reset
00022d04 g     F .text	00000008 .hidden _Unwind_GetRegionStart
00020020 g       *ABS*	00000000 __flash_exceptions_start
0002c43c g     F .text	0000005c _fstat_r
00036d08 g     O .bss	00000004 errno
0002a888 g     F .text	00000008 __seofread
00022ee0 g     F .text	00000074 .hidden _Unwind_Backtrace
00036d1c g     O .bss	00000004 alt_argv
0003d090 g       *ABS*	00000000 _gp
00030928 g     F .text	00000030 usleep
0002fdb8 g     F .text	00000020 getpid
0002188c g     F .text	00000230 __cxa_call_unexpected
00021abc g     F .text	00000008 __cxa_get_exception_ptr
00033dec g     O .rwdata	00000180 alt_fd_list
00022df4 g     F .text	00000044 .hidden _Unwind_SjLj_ForcedUnwind
00022c84 g     F .text	00000018 .hidden _Unwind_GetCFA
00021d4c g     F .text	00000014 _ZSt13set_terminatePFvvE
00032418 g     F .text	00000090 alt_find_dev
00028fbc g     F .text	00000148 memcpy
00021f94 g     F .text	00000054 __cxa_allocate_dependent_exception
00027e30 g     F .text	0000000c _cleanup_r
000220e8 g     F .text	00000018 _ZNK10__cxxabiv117__class_type_info20__do_find_public_srcEiPKvPKS0_S2_
0002f81c g     F .text	000000dc .hidden __floatsidf
000329ec g     F .text	0000007c alt_io_redirect
0002e694 g     F .text	000000f4 .hidden __ltdf2
00032f5c g       *ABS*	00000000 __DTOR_END__
00022100 g     F .text	00000010 _ZN10__cxxabiv117__class_type_infoD1Ev
000239f4 g     F .text	00000014 puts
00032b1c g     F .text	0000009c alt_exception_cause_generated_bad_addr
0002a7c0 g     F .text	00000074 __fpclassifyd
0002a040 g     F .text	000000a4 __ratio
0002bee0 g     F .text	0000001c __vfiprintf_internal
000311a0 g     F .text	0000021c altera_avalon_jtag_uart_read
00022f6c g     F .text	00000014 malloc
000238c8 g     F .text	00000030 _printf_r
00020000 g       *ABS*	00000000 __alt_mem_onchip_memory2_0
00022978 g     F .text	00000064 .hidden __udivsi3
0002fe14 g     F .text	000000a4 isatty
00023b4c g     F .text	000000bc _raise_r
000332f4 g     O .rodata	000000c8 __mprec_tens
00028cbc g     F .text	0000000c __locale_charset
00032a8c g     F .text	00000090 alt_icache_flush
00036d04 g     O .bss	00000004 __malloc_top_pad
00023d5c g     F .text	00000004 _getpid_r
000350d8 g     O .rwdata	00000004 __mb_cur_max
00028cec g     F .text	0000000c _localeconv_r
0002966c g     F .text	0000003c __i2b
000285fc g     F .text	000004bc __sfvwrite_r
00022280 g     F .text	000000b8 _ZNK10__cxxabiv117__class_type_info10__do_catchEPKSt9type_infoPPvj
00023c08 g     F .text	000000a8 __sigtramp_r
00023a08 g     F .text	00000054 _sbrk_r
000331b4  w    O .rodata	00000020 _ZTVSt9type_info
0002c54c g     F .text	00000060 _read_r
00022340 g     F .text	0000000c _ZNKSt9exception4whatEv
00020460 g     F .text	00000098 _ZN5CUart5WriteEPci
000350f0 g     O .rwdata	00000004 alt_max_fd
0002c130 g     F .text	000000f0 _fclose_r
00027df8 g     F .text	00000030 fflush
00020290 g     F .text	0000003c _ZN5CUartC1Ev
00036d00 g     O .bss	00000004 __malloc_max_sbrked_mem
000205bc g     F .text	00000108 _ZN5CUart15ReadWithTimeoutEPhtPtm
0002d39c g     F .text	000008ac .hidden __adddf3
00033178  w    O .rodata	0000002c _ZTVN10__cxxabiv120__si_class_type_infoE
00029de8 g     F .text	0000010c __b2d
0002ce64 g     F .text	00000538 .hidden __umoddi3
0003014c g     F .text	000000d4 lseek
00022144 g     F .text	0000006c _ZNK10__cxxabiv117__class_type_info11__do_upcastEPKS0_PKvRNS0_15__upcast_resultE
00020ad4 g     F .text	00000004 _ZdlPv
000350d0 g     O .rwdata	00000004 _global_impure_ptr
0002a25c g     F .text	00000564 _realloc_r
00036e6c g       *ABS*	00000000 __bss_end
00032838 g     F .text	000000f0 alt_iic_isr_register
00030820 g     F .text	00000108 alt_tick
00022c3c g     F .text	00000018 .hidden _Unwind_SjLj_Register
0002c8ec g     F .text	00000578 .hidden __udivdi3
0002c398 g     F .text	00000024 _fputwc_r
000332cc g     O .rodata	00000028 __mprec_bigtens
00029450 g     F .text	00000104 __s2b
00022f54 g     F .text	00000018 abort
0002f8f8 g     F .text	000000a8 .hidden __floatunsidf
00029b28 g     F .text	00000060 __mcmp
000317e4 g     F .text	000000ac altera_avalon_uart_init
00021b78 g     F .text	000000b4 __cxa_end_catch
00028198 g     F .text	00000018 __fp_lock_all
000327ec g     F .text	0000004c alt_ic_irq_enabled
0002233c g     F .text	00000004 _ZNSt13bad_exceptionD2Ev
00030784 g     F .text	0000009c alt_alarm_stop
00020314 g     F .text	00000038 _ZN5CUartD0Ev
00036d2c g     O .bss	00000004 alt_irq_active
00021d0c g     F .text	00000018 _ZSt9terminatev
000200fc g     F .exceptions	000000d4 alt_irq_handler
00033dc4 g     O .rwdata	00000028 alt_dev_null
00022368 g     F .text	00000004 _ZN10__cxxabiv119__foreign_exceptionD2Ev
00033000  w    O .rodata	00000022 _ZTSN10__cxxabiv117__class_type_infoE
00032230 g     F .text	00000048 alt_dcache_flush_all
00029554 g     F .text	00000068 __hi0bits
000350a0  w    O .rwdata	00000008 _ZTISt9exception
0002f79c g     F .text	00000080 .hidden __fixdfsi
00035108 g       *ABS*	00000000 __ram_rwdata_end
000206c4 g     F .text	000001a8 _Z11CommandReadR5CUartPciPi
000227e4 g     F .text	00000004 _ZNSt9type_infoD1Ev
000350e8 g     O .rwdata	00000008 alt_dev_list
00022368 g     F .text	00000004 _ZN10__cxxabiv119__foreign_exceptionD1Ev
00030994 g     F .text	000000f8 write
000227f8 g     F .text	00000004 _ZNSt9type_infoD0Ev
00033520 g       *ABS*	00000000 __ram_rodata_end
0002fd08 g     F .text	000000b0 fstat
0002fef4 g     F .text	00000130 kill
0002e694 g     F .text	000000f4 .hidden __ledf2
000298a0 g     F .text	00000140 __pow5mult
0002aa84 g     F .text	0000145c ___vfiprintf_internal_r
00036d14 g     O .bss	00000004 __nlocale_changed
000229dc g     F .text	00000058 .hidden __umodsi3
000227f0 g     F .text	00000008 _ZNKSt9type_info11__do_upcastEPKN10__cxxabiv117__class_type_infoEPPv
00021d60 g     F .text	00000010 _ZSt13get_terminatev
00036e6c g       *ABS*	00000000 end
00031e00 g     F .text	000001ac altera_avalon_uart_write
00022ec8 g     F .text	00000018 .hidden _Unwind_DeleteException
00030cdc g     F .text	000000c0 altera_avalon_jtag_uart_init
000201d0 g     F .exceptions	00000074 alt_instruction_exception_entry
000221b0 g     F .text	000000d0 _ZNK10__cxxabiv117__class_type_info12__do_dyncastEiNS0_10__sub_kindEPKS0_PKvS3_S5_RNS0_16__dyncast_resultE
00032f55 g       *ABS*	00000000 __CTOR_LIST__
000386a0 g       *ABS*	00000000 __alt_stack_pointer
00031658 g     F .text	0000007c alt_avalon_timer_sc_init
00031734 g     F .text	00000060 altera_avalon_uart_write_fd
0002f9a0 g     F .text	00000064 .hidden __clzsi2
00031794 g     F .text	00000050 altera_avalon_uart_close_fd
00022070 g     F .text	00000078 _ZNK10__cxxabiv117__class_type_info11__do_upcastEPKS0_PPv
000313bc g     F .text	00000224 altera_avalon_jtag_uart_write
00028188 g     F .text	00000004 __sfp_lock_acquire
00033090  w    O .rodata	00000012 _ZTSSt13bad_exception
00028ed8 g     F .text	000000e4 memchr
00023ed4 g     F .text	000021f8 ___vfprintf_internal_r
00020290 g     F .text	0000003c _ZN5CUartC2Ev
000282ec g     F .text	00000310 _free_r
00028cc8 g     F .text	00000010 __locale_mb_cur_max
00032d98 g     F .text	00000180 __call_exitprocs
00036d10 g     O .bss	00000004 __mlocale_changed
000350c8 g     O .rwdata	00000004 __malloc_sbrk_base
00020244 g     F .text	0000004c _start
00036d24 g     O .bss	00000004 _alt_tick_rate
000331a4  w    O .rodata	0000000d _ZTSSt9type_info
00022840 g     F .text	00000020 __cxa_pure_virtual
000299e0 g     F .text	00000148 __lshift
00036d28 g     O .bss	00000004 _alt_nticks
00023cc4 g     F .text	00000018 signal
00030574 g     F .text	000000fc read
00030af8 g     F .text	00000080 alt_sys_init
00032c80 g     F .text	00000118 __register_exitproc
00022564 g     F .text	00000160 _ZNK10__cxxabiv120__si_class_type_info12__do_dyncastEiNS_17__class_type_info10__sub_kindEPKS1_PKvS4_S6_RNS1_16__dyncast_resultE
000296a8 g     F .text	000001f8 __multiply
00031048 g     F .text	00000068 altera_avalon_jtag_uart_close
00033520 g       *ABS*	00000000 __ram_rwdata_start
00022d24 g     F .text	000000d0 .hidden _Unwind_SjLj_RaiseException
00032f5c g       *ABS*	00000000 __ram_rodata_start
00036d44 g     O .bss	00000028 __malloc_current_mallinfo
00022e38 g     F .text	00000044 .hidden _Unwind_SjLj_Resume
00029ef4 g     F .text	0000014c __d2b
00033130  w    O .rodata	00000014 _ZTVN10__cxxabiv119__foreign_exceptionE
000227e4 g     F .text	00000004 _ZNSt9type_infoD2Ev
0002236c g     F .text	00000004 _ZN10__cxxabiv119__foreign_exceptionD0Ev
00022760 g     F .text	00000084 _ZNK10__cxxabiv120__si_class_type_info11__do_upcastEPKNS_17__class_type_infoEPKvRNS1_15__upcast_resultE
00030b78 g     F .text	00000060 altera_avalon_jtag_uart_read_fd
000325b0 g     F .text	000000a4 alt_get_fd
000320d8 g     F .text	00000158 alt_busy_sleep
000350b0  w    O .rwdata	00000008 _ZTIN10__cxxabiv119__foreign_exceptionE
0002c018 g     F .text	00000054 _close_r
00035098  w    O .rwdata	00000007 _ZTS5CUart
00032c04 g     F .text	0000007c memcmp
00030c38 g     F .text	00000050 altera_avalon_jtag_uart_close_fd
00036e6c g       *ABS*	00000000 __alt_stack_base
00030c88 g     F .text	00000054 altera_avalon_jtag_uart_ioctl_fd
00022520 g     F .text	00000010 _ZN10__cxxabiv120__si_class_type_infoD1Ev
000261a4 g     F .text	00000154 __swsetup_r
00022e7c g     F .text	0000004c .hidden _Unwind_SjLj_Resume_or_Rethrow
0002dc48 g     F .text	000008e8 .hidden __divdf3
00028048 g     F .text	00000118 __sfp
0002a158 g     F .text	00000078 __copybits
000227e8 g     F .text	00000008 _ZNKSt9type_info14__is_pointer_pEv
00033520 g     O .rwdata	00000408 __malloc_av_
00028194 g     F .text	00000004 __sinit_lock_release
0002e788 g     F .text	00000718 .hidden __muldf3
0002a834 g     F .text	00000054 __sread
000330f4  w    O .rodata	00000014 _ZTVSt9exception
00022364 g     F .text	00000004 _ZN10__cxxabiv115__forced_unwindD0Ev
000324a8 g     F .text	00000108 alt_find_file
000322b4 g     F .text	000000a4 alt_dev_llist_insert
0003029c g     F .text	00000024 __malloc_lock
000306d4 g     F .text	000000b0 sbrk
00033030  w    O .rodata	0000002c _ZTVN10__cxxabiv117__class_type_infoE
000223b4 g     F .text	00000090 __cxa_throw
00027d9c g     F .text	0000005c _fflush_r
00022ce8 g     F .text	00000010 .hidden _Unwind_SetIP
0002c06c g     F .text	000000c4 _calloc_r
00036cf0 g       *ABS*	00000000 __bss_start
000237a0 g     F .text	00000128 memset
0002086c g     F .text	00000268 main
00036d20 g     O .bss	00000004 alt_envp
00036cfc g     O .bss	00000004 __malloc_max_total_mem
00030bd8 g     F .text	00000060 altera_avalon_jtag_uart_write_fd
0002c6ec g     F .text	00000018 __swbuf
00021d94 g     F .text	0000000c __cxa_get_globals_fast
0002a968 g     F .text	00000008 __sclose
000386a0 g       *ABS*	00000000 __alt_heap_limit
0002c220 g     F .text	00000014 fclose
000264f8 g     F .text	00001688 _dtoa_r
00022f94 g     F .text	0000080c _malloc_r
0002c860 g     F .text	00000030 __ascii_wctomb
0002234c g     F .text	0000000c _ZNKSt13bad_exception4whatEv
000350f4 g     O .rwdata	00000004 alt_errno
00023cdc g     F .text	00000010 _init_signal
00033024  w    O .rodata	0000000c _ZTIN10__cxxabiv117__class_type_infoE
00028ab8 g     F .text	000000c4 _fwalk
0002233c g     F .text	00000004 _ZNSt13bad_exceptionD1Ev
00022880 g     F .text	00000084 .hidden __divsi3
000281c8 g     F .text	00000124 _malloc_trim_r
00032f5c g       *ABS*	00000000 __CTOR_END__
00023d60 g     F .text	000000dc strcmp
0002053c g     F .text	00000080 _ZN5CUart16NoneBlockingReadEPciPi
00032f5c g       *ABS*	00000000 __flash_rodata_start
0003311c  w    O .rodata	00000014 _ZTVN10__cxxabiv115__forced_unwindE
00032f5c g       *ABS*	00000000 __DTOR_LIST__
0002e530 g     F .text	00000088 .hidden __nedf2
00030ac0 g     F .text	00000038 alt_irq_init
00030670 g     F .text	00000064 alt_release_fd
00022530 g     F .text	00000034 _ZN10__cxxabiv120__si_class_type_infoD0Ev
000202cc g     F .text	00000048 _ZN5CUartD1Ev
000333dc g     O .rodata	00000100 .hidden __clz_tab
00036d0c g     O .bss	00000004 _PathLocale
00020394 g     F .text	00000048 _ZN5CUart5CloseEv
00032bb8 g     F .text	00000014 atexit
0002bfb8 g     F .text	00000060 _write_r
00028cf8 g     F .text	00000018 setlocale
00022d1c g     F .text	00000008 .hidden _Unwind_GetTextRelBase
000224c8 g     F .text	00000058 __cxa_call_terminate
000350d4 g     O .rwdata	00000004 _impure_ptr
000350a8  w    O .rwdata	00000008 _ZTIN10__cxxabiv115__forced_unwindE
00036d18 g     O .bss	00000004 alt_argc
00027b80 g     F .text	0000021c __sflush_r
000323b8 g     F .text	00000060 _do_dtors
00028ce4 g     F .text	00000008 __locale_cjk_lang
00035090  w    O .rwdata	00000008 _ZTI5CUart
00021d84 g     F .text	00000010 _ZSt14get_unexpectedv
00020020 g       .exceptions	00000000 alt_irq_entry
00029d84 g     F .text	00000064 __ulp
00022d0c g     F .text	00000008 .hidden _Unwind_FindEnclosingFunction
000281b0 g     F .text	00000018 __fp_unlock_all
000350e0 g     O .rwdata	00000008 alt_fs_list
000330d0  w    O .rodata	00000024 _ZTSN10__cxxabiv119__foreign_exceptionE
00022cf8 g     F .text	0000000c .hidden _Unwind_GetLanguageSpecificData
00021ac4 g     F .text	000000b4 __cxa_begin_catch
00022100 g     F .text	00000010 _ZN10__cxxabiv117__class_type_infoD2Ev
00021d24 g     F .text	00000010 _ZN10__cxxabiv112__unexpectedEPFvvE
00020020 g       *ABS*	00000000 __ram_exceptions_start
00028d10 g     F .text	0000000c localeconv
0002235c g     F .text	00000004 _ZNSt13bad_exceptionD0Ev
000350c0 g     O .rwdata	00000004 _ZN10__cxxabiv119__terminate_handlerE
000204f8 g     F .text	00000044 _ZN5CUart11WriteStringEPc
00032688 g     F .text	00000050 alt_ic_isr_register
00021f0c g     F .text	00000060 __cxa_allocate_exception
0003316c  w    O .rodata	0000000c _ZTIN10__cxxabiv120__si_class_type_infoE
00035108 g       *ABS*	00000000 _edata
000316d4 g     F .text	00000060 altera_avalon_uart_read_fd
00036e6c g       *ABS*	00000000 _end
0002128c g     F .text	00000600 __gxx_personality_sj0
0002c234 g     F .text	00000164 __fputwc
00020244 g       *ABS*	00000000 __ram_exceptions_end
000310b0 g     F .text	000000f0 altera_avalon_jtag_uart_ioctl
000203dc g     F .text	00000084 _ZN5CUart4ReadEPciPi
00022338 g     F .text	00000004 _ZNSt9exceptionD1Ev
00032760 g     F .text	0000008c alt_ic_irq_disable
0002a890 g     F .text	0000007c __swrite
000350cc g     O .rwdata	00000004 __malloc_trim_threshold
00028cd8 g     F .text	0000000c __locale_msgcharset
00032bcc g     F .text	00000038 exit
00022c9c g     F .text	0000001c .hidden _Unwind_SetGR
00028b7c g     F .text	000000c4 _fwalk_reent
000226c4 g     F .text	0000009c _ZNK10__cxxabiv120__si_class_type_info20__do_find_public_srcEiPKvPKNS_17__class_type_infoES2_
00029b88 g     F .text	000001fc __mdiff
00021c4c g     F .text	000000c0 _ZN10__cxxabiv111__terminateEPFvvE
00022904 g     F .text	00000074 .hidden __modsi3
000386a0 g       *ABS*	00000000 __alt_data_end
00020020 g     F .exceptions	00000000 alt_exception
0002818c g     F .text	00000004 __sfp_lock_release
000330a4  w    O .rodata	0000000c _ZTISt13bad_exception
00031b58 g     F .text	00000054 altera_avalon_uart_close
0002fb3c g     F .text	00000034 _exit
00031fac g     F .text	0000012c alt_alarm_start
00022c68 g     F .text	0000001c .hidden _Unwind_GetGR
00021da0 g     F .text	0000000c __cxa_get_globals
00028d1c g     F .text	000001bc __smakebuf_r
000350c4 g     O .rwdata	00000004 _ZN10__cxxabiv120__unexpected_handlerE
00023e3c g     F .text	00000098 strlen
00023a5c g     F .text	0000006c _init_signal_r
000350b8  w    O .rwdata	00000008 _ZTISt9type_info
000303e4 g     F .text	00000154 open
0002e5b8 g     F .text	000000dc .hidden __gedf2
00033080  w    O .rodata	0000000d _ZTSSt9exception
000350dc g     O .rwdata	00000004 __wctomb
00022358 g     F .text	00000004 _ZNSt9exceptionD0Ev
0002aa6c g     F .text	00000018 __sprint_r
00032654 g     F .text	00000034 alt_icache_flush_all
00032f5c  w    O .rodata	00000010 _ZTV5CUart
00022d14 g     F .text	00000008 .hidden _Unwind_GetDataRelBase
00035104 g     O .rwdata	00000004 alt_priority_mask
000326d8 g     F .text	00000088 alt_ic_irq_enable
000260cc g     F .text	0000001c __vfprintf_internal
00031be8 g     F .text	000001dc altera_avalon_uart_read
0002c890 g     F .text	0000005c _wctomb_r
0002eea0 g     F .text	000008fc .hidden __subdf3
0002fbac g     F .text	00000120 fcntl
000295bc g     F .text	000000b0 __lo0bits
000350fc g     O .rwdata	00000008 alt_alarm_list
00032358 g     F .text	00000060 _do_ctors
00023cec g     F .text	00000014 __sigtramp
0002c7a0 g     F .text	000000c0 wcrtomb
0002fa40 g     F .text	000000d0 close
000330b0  w    O .rodata	00000020 _ZTSN10__cxxabiv115__forced_unwindE
0003008c g     F .text	00000084 alt_load
000227fc g     F .text	00000044 _ZNKSt9type_info10__do_catchEPKS_PPvj
0002c3bc g     F .text	00000080 fputwc
00023cb0 g     F .text	00000014 raise
00022f80 g     F .text	00000014 free
00028190 g     F .text	00000004 __sinit_lock_acquire
00029330 g     F .text	00000120 __multadd
00022110 g     F .text	00000034 _ZN10__cxxabiv117__class_type_infoD0Ev
00029308 g     F .text	00000028 _Bfree



Disassembly of section .entry:

00020000 <__reset>:
#if NIOS2_ICACHE_SIZE > 0 && defined(ALT_ALLOW_CODE_AT_RESET) && (!defined(ALT_SIM_OPTIMIZE) || defined(NIOS2_ECC_PRESENT))
    /* Assume the instruction cache size is always a power of two. */
#if NIOS2_ICACHE_SIZE > 0x8000
    movhi r2, %hi(NIOS2_ICACHE_SIZE)
#else
    movui r2, NIOS2_ICACHE_SIZE
   20000:	00840014 	movui	r2,4096
#endif

0:
    initi r2
   20004:	1001483a 	initi	r2
    addi r2, r2, -NIOS2_ICACHE_LINE_SIZE
   20008:	10bff804 	addi	r2,r2,-32
    bgt r2, zero, 0b
   2000c:	00bffd16 	blt	zero,r2,20004 <_gp+0xfffe2f74>
 * Jump to the _start entry point in the .text section if reset code
 * is allowed or if optimizing for RTL simulation.
 */
#if defined(ALT_ALLOW_CODE_AT_RESET) || defined(ALT_SIM_OPTIMIZE)
    /* Jump to the _start entry point in the .text section. */
    movhi r1, %hi(_start)
   20010:	004000b4 	movhi	at,2
    ori r1, r1, %lo(_start)
   20014:	08409114 	ori	at,at,580
    jmp r1
   20018:	0800683a 	jmp	at
   2001c:	00000000 	call	0 <__reset-0x20000>

Disassembly of section .exceptions:

00020020 <alt_exception>:

#else /* ALT_EXCEPTION_STACK disabled */
        /* 
         * Reserve space on normal stack for registers about to be pushed.
         */
        addi  sp, sp, -76
   20020:	deffed04 	addi	sp,sp,-76
         * documentation for details).
         *
         * Leave a gap in the stack frame at 4(sp) for the muldiv handler to
         * store zero into.
         */
        stw   ra,  0(sp)
   20024:	dfc00015 	stw	ra,0(sp)
        stw   r1,   8(sp)
   20028:	d8400215 	stw	at,8(sp)
        stw   r2,  12(sp)
   2002c:	d8800315 	stw	r2,12(sp)
        stw   r3,  16(sp)
   20030:	d8c00415 	stw	r3,16(sp)
        stw   r4,  20(sp)
   20034:	d9000515 	stw	r4,20(sp)
        stw   r5,  24(sp)
   20038:	d9400615 	stw	r5,24(sp)
        stw   r6,  28(sp)
   2003c:	d9800715 	stw	r6,28(sp)
        stw   r7,  32(sp)
   20040:	d9c00815 	stw	r7,32(sp)
        rdctl r5, estatus   /* Read early to avoid usage stall */
   20044:	000b307a 	rdctl	r5,estatus
        stw   r8,  36(sp)
   20048:	da000915 	stw	r8,36(sp)
        stw   r9,  40(sp)
   2004c:	da400a15 	stw	r9,40(sp)
        stw   r10, 44(sp)
   20050:	da800b15 	stw	r10,44(sp)
        stw   r11, 48(sp)
   20054:	dac00c15 	stw	r11,48(sp)
        stw   r12, 52(sp)
   20058:	db000d15 	stw	r12,52(sp)
        stw   r13, 56(sp)
   2005c:	db400e15 	stw	r13,56(sp)
        stw   r14, 60(sp)
   20060:	db800f15 	stw	r14,60(sp)
        stw   r15, 64(sp)
   20064:	dbc01015 	stw	r15,64(sp)
        /*
         * ea-4 contains the address of the instruction being executed
         * when the exception occured. For interrupt exceptions, we will
         * will be re-issue the isntruction. Store it in 72(sp)
         */
        stw   r5,  68(sp)  /* estatus */
   20068:	d9401115 	stw	r5,68(sp)
        addi  r15, ea, -4  /* instruction that caused exception */
   2006c:	ebffff04 	addi	r15,ea,-4
        stw   r15,  72(sp)
   20070:	dbc01215 	stw	r15,72(sp)
#else
        /*
         * Test to see if the exception was a software exception or caused 
         * by an external interrupt, and vector accordingly.
         */
        rdctl r4, ipending
   20074:	0009313a 	rdctl	r4,ipending
        andi  r2, r5, 1
   20078:	2880004c 	andi	r2,r5,1
        beq   r2, zero, .Lnot_irq
   2007c:	10000326 	beq	r2,zero,2008c <alt_exception+0x6c>
        beq   r4, zero, .Lnot_irq
   20080:	20000226 	beq	r4,zero,2008c <alt_exception+0x6c>
        /*
         * Now that all necessary registers have been preserved, call 
         * alt_irq_handler() to process the interrupts.
         */

        call alt_irq_handler
   20084:	00200fc0 	call	200fc <alt_irq_handler>

        .section .exceptions.irqreturn, "xa"

        br    .Lexception_exit
   20088:	00000706 	br	200a8 <alt_exception+0x88>
         * upon completion, so we write ea (address of instruction *after*
         * the one where the exception occured) into 72(sp). The actual
         * instruction that caused the exception is written in r2, which these
         * handlers will utilize.
         */
        stw ea, 72(sp) /* EA is PC+4 so will skip over instruction causing exception */
   2008c:	df401215 	stw	ea,72(sp)
.Lunknown_16bit:
        addi.n r4, r4, 2 /* Need PC+2 to skip over instruction causing exception */
        stw r4, 72(sp)

#else /* CDX is not Enabled and all instructions are 32bits */
        ldw r2, -4(ea) /* Instruction value that caused exception */
   20090:	e8bfff17 	ldw	r2,-4(ea)
         * debugger is present) or go into an infinite loop since the
         * handling behavior is undefined; in that case we will not return here.
         */

        /* Load exception-causing address as first argument (r4) */
        addi   r4, ea, -4
   20094:	e93fff04 	addi	r4,ea,-4

        /* Call the instruction-exception entry */
        call   alt_instruction_exception_entry
   20098:	00201d00 	call	201d0 <alt_instruction_exception_entry>
         * instruction
         *
         * Return code was 0: Skip. The instruction after the exception is
         * already stored in 72(sp).
         */
        bne   r2, r0, .Lexception_exit
   2009c:	1000021e 	bne	r2,zero,200a8 <alt_exception+0x88>

        /*
         * Otherwise, modify 72(sp) to re-issue the instruction that caused the
         * exception.
         */
        addi  r15, ea, -4  /* instruction that caused exception */
   200a0:	ebffff04 	addi	r15,ea,-4
        stw   r15,  72(sp)
   200a4:	dbc01215 	stw	r15,72(sp)
        /* 
         * Restore the saved registers, so that all general purpose registers 
         * have been restored to their state at the time the interrupt occured.
         */

        ldw   r5,  68(sp)
   200a8:	d9401117 	ldw	r5,68(sp)
        ldw   ea,  72(sp)  /* This becomes the PC once eret is executed */
   200ac:	df401217 	ldw	ea,72(sp)
        ldw   ra,   0(sp)
   200b0:	dfc00017 	ldw	ra,0(sp)

        wrctl estatus, r5
   200b4:	2801707a 	wrctl	estatus,r5

        ldw   r1,   8(sp)
   200b8:	d8400217 	ldw	at,8(sp)
        ldw   r2,  12(sp)
   200bc:	d8800317 	ldw	r2,12(sp)
        ldw   r3,  16(sp)
   200c0:	d8c00417 	ldw	r3,16(sp)
        ldw   r4,  20(sp)
   200c4:	d9000517 	ldw	r4,20(sp)
        ldw   r5,  24(sp)
   200c8:	d9400617 	ldw	r5,24(sp)
        ldw   r6,  28(sp)
   200cc:	d9800717 	ldw	r6,28(sp)
        ldw   r7,  32(sp)
   200d0:	d9c00817 	ldw	r7,32(sp)

#if defined(ALT_EXCEPTION_STACK) && defined(ALT_STACK_CHECK)
        ldw   et, %gprel(alt_exception_old_stack_limit)(gp)
#endif

        ldw   r8,  36(sp)
   200d4:	da000917 	ldw	r8,36(sp)
        ldw   r9,  40(sp)
   200d8:	da400a17 	ldw	r9,40(sp)
        ldw   r10, 44(sp)
   200dc:	da800b17 	ldw	r10,44(sp)
        ldw   r11, 48(sp)
   200e0:	dac00c17 	ldw	r11,48(sp)
        ldw   r12, 52(sp)
   200e4:	db000d17 	ldw	r12,52(sp)
        ldw   r13, 56(sp)
   200e8:	db400e17 	ldw	r13,56(sp)
        ldw   r14, 60(sp)
   200ec:	db800f17 	ldw	r14,60(sp)
        ldw   r15, 64(sp)
   200f0:	dbc01017 	ldw	r15,64(sp)
        stw   et, %gprel(alt_stack_limit_value)(gp)
        stw   zero, %gprel(alt_exception_old_stack_limit)(gp)
#endif /* ALT_STACK_CHECK */
        ldw   sp,  76(sp)
#else /* ALT_EXCEPTION_STACK disabled */
        addi  sp, sp, 76
   200f4:	dec01304 	addi	sp,sp,76

        /*
         * Return to the interrupted instruction.
         */

        eret
   200f8:	ef80083a 	eret

000200fc <alt_irq_handler>:
 * instruction is present if the macro ALT_CI_INTERRUPT_VECTOR defined.
 */

void alt_irq_handler (void) __attribute__ ((section (".exceptions")));
void alt_irq_handler (void)
{
   200fc:	defff904 	addi	sp,sp,-28
   20100:	dfc00615 	stw	ra,24(sp)
   20104:	df000515 	stw	fp,20(sp)
   20108:	df000504 	addi	fp,sp,20
  
  /*
   * Notify the operating system that we are at interrupt level.
   */ 
  
  ALT_OS_INT_ENTER();
   2010c:	0001883a 	nop
#ifndef NIOS2_EIC_PRESENT
static ALT_INLINE alt_u32 ALT_ALWAYS_INLINE alt_irq_pending (void)
{
  alt_u32 active;

  NIOS2_READ_IPENDING (active);
   20110:	0005313a 	rdctl	r2,ipending
   20114:	e0bffe15 	stw	r2,-8(fp)

  return active;
   20118:	e0bffe17 	ldw	r2,-8(fp)
   * Consider the case where the high priority interupt is asserted during
   * the interrupt entry sequence for a lower priority interrupt to see why
   * this is the case.
   */

  active = alt_irq_pending ();
   2011c:	e0bffb15 	stw	r2,-20(fp)

  do
  {
    i = 0;
   20120:	e03ffd15 	stw	zero,-12(fp)
    mask = 1;
   20124:	00800044 	movi	r2,1
   20128:	e0bffc15 	stw	r2,-16(fp)
     * called to clear the interrupt condition.
     */

    do
    {
      if (active & mask)
   2012c:	e0fffb17 	ldw	r3,-20(fp)
   20130:	e0bffc17 	ldw	r2,-16(fp)
   20134:	1884703a 	and	r2,r3,r2
   20138:	10001426 	beq	r2,zero,2018c <alt_irq_handler+0x90>
      { 
#ifdef ALT_ENHANCED_INTERRUPT_API_PRESENT
        alt_irq[i].handler(alt_irq[i].context); 
   2013c:	008000f4 	movhi	r2,3
   20140:	109b5b04 	addi	r2,r2,28012
   20144:	e0fffd17 	ldw	r3,-12(fp)
   20148:	180690fa 	slli	r3,r3,3
   2014c:	10c5883a 	add	r2,r2,r3
   20150:	10c00017 	ldw	r3,0(r2)
   20154:	008000f4 	movhi	r2,3
   20158:	109b5b04 	addi	r2,r2,28012
   2015c:	e13ffd17 	ldw	r4,-12(fp)
   20160:	200890fa 	slli	r4,r4,3
   20164:	1105883a 	add	r2,r2,r4
   20168:	10800104 	addi	r2,r2,4
   2016c:	10800017 	ldw	r2,0(r2)
   20170:	1009883a 	mov	r4,r2
   20174:	183ee83a 	callr	r3
#else
        alt_irq[i].handler(alt_irq[i].context, i); 
#endif
        break;
   20178:	0001883a 	nop
#ifndef NIOS2_EIC_PRESENT
static ALT_INLINE alt_u32 ALT_ALWAYS_INLINE alt_irq_pending (void)
{
  alt_u32 active;

  NIOS2_READ_IPENDING (active);
   2017c:	0005313a 	rdctl	r2,ipending
   20180:	e0bfff15 	stw	r2,-4(fp)

  return active;
   20184:	e0bfff17 	ldw	r2,-4(fp)
   20188:	00000706 	br	201a8 <alt_irq_handler+0xac>
      }
      mask <<= 1;
   2018c:	e0bffc17 	ldw	r2,-16(fp)
   20190:	1085883a 	add	r2,r2,r2
   20194:	e0bffc15 	stw	r2,-16(fp)
      i++;
   20198:	e0bffd17 	ldw	r2,-12(fp)
   2019c:	10800044 	addi	r2,r2,1
   201a0:	e0bffd15 	stw	r2,-12(fp)

    } while (1);
   201a4:	003fe106 	br	2012c <_gp+0xfffe309c>

    active = alt_irq_pending ();
   201a8:	e0bffb15 	stw	r2,-20(fp)
    
  } while (active);
   201ac:	e0bffb17 	ldw	r2,-20(fp)
   201b0:	103fdb1e 	bne	r2,zero,20120 <_gp+0xfffe3090>

  /*
   * Notify the operating system that interrupt processing is complete.
   */ 

  ALT_OS_INT_EXIT();
   201b4:	0001883a 	nop
}
   201b8:	0001883a 	nop
   201bc:	e037883a 	mov	sp,fp
   201c0:	dfc00117 	ldw	ra,4(sp)
   201c4:	df000017 	ldw	fp,0(sp)
   201c8:	dec00204 	addi	sp,sp,8
   201cc:	f800283a 	ret

000201d0 <alt_instruction_exception_entry>:
 * that handler if it has been registered. Absent a handler, it will
 * break break or hang as discussed below.
 */
int 
alt_instruction_exception_entry (alt_u32 exception_pc)
{
   201d0:	defffb04 	addi	sp,sp,-20
   201d4:	dfc00415 	stw	ra,16(sp)
   201d8:	df000315 	stw	fp,12(sp)
   201dc:	df000304 	addi	fp,sp,12
   201e0:	e13fff15 	stw	r4,-4(fp)
 * NIOS2_EXCEPTION_CAUSE_NOT_PRESENT. Your handling routine should
 * check the validity of the cause argument before proceeding.
 */
#ifdef NIOS2_HAS_EXTRA_EXCEPTION_INFO
  /* Get exception cause & "badaddr" */
  NIOS2_READ_EXCEPTION(cause);
   201e4:	000531fa 	rdctl	r2,exception
   201e8:	e0bffd15 	stw	r2,-12(fp)
  cause = ( (cause & NIOS2_EXCEPTION_REG_CAUSE_MASK) >>
   201ec:	e0bffd17 	ldw	r2,-12(fp)
   201f0:	10801f0c 	andi	r2,r2,124
   201f4:	1004d0ba 	srli	r2,r2,2
   201f8:	e0bffd15 	stw	r2,-12(fp)
              NIOS2_EXCEPTION_REG_CAUSE_OFST );

  NIOS2_READ_BADADDR(badaddr);
   201fc:	0005333a 	rdctl	r2,badaddr
   20200:	e0bffe15 	stw	r2,-8(fp)
#else
  cause = NIOS2_EXCEPTION_CAUSE_NOT_PRESENT;
  badaddr = 0;
#endif /* NIOS2_HAS_EXTRA_EXCEPTION_INFO */

  if(alt_instruction_exception_handler) {
   20204:	d0a72817 	ldw	r2,-25440(gp)
   20208:	10000726 	beq	r2,zero,20228 <alt_instruction_exception_entry+0x58>
     * Call handler. Its return value indicates whether the exception-causing
     * instruction should be re-issued. The code that called us,
     * alt_eceptions_entry.S, will look at this value and adjust the ea
     * register as necessary
     */
    return alt_instruction_exception_handler(cause, exception_pc, badaddr);
   2020c:	d0a72817 	ldw	r2,-25440(gp)
   20210:	e0fffd17 	ldw	r3,-12(fp)
   20214:	e1bffe17 	ldw	r6,-8(fp)
   20218:	e17fff17 	ldw	r5,-4(fp)
   2021c:	1809883a 	mov	r4,r3
   20220:	103ee83a 	callr	r2
   20224:	00000206 	br	20230 <alt_instruction_exception_entry+0x60>
   *    (a peripheral which negates its interrupt output before its
   *    interrupt handler has been executed will cause spurious interrupts)
   */
  else {
#ifdef NIOS2_HAS_DEBUG_STUB
    NIOS2_BREAK();
   20228:	003da03a 	break	0
      ;
#endif /* NIOS2_HAS_DEBUG_STUB */
  }

  /* We should not get here. Remove compiler warning. */
  return NIOS2_EXCEPTION_RETURN_REISSUE_INST;
   2022c:	0005883a 	mov	r2,zero
}
   20230:	e037883a 	mov	sp,fp
   20234:	dfc00117 	ldw	ra,4(sp)
   20238:	df000017 	ldw	fp,0(sp)
   2023c:	dec00204 	addi	sp,sp,8
   20240:	f800283a 	ret

Disassembly of section .text:

00020244 <_start>:

    /* Assume the data cache size is always a power of two. */
#if NIOS2_DCACHE_SIZE > 0x8000
    movhi r2, %hi(NIOS2_DCACHE_SIZE)
#else
    movui r2, NIOS2_DCACHE_SIZE
   20244:	00820014 	movui	r2,2048
#endif

0:
    initd 0(r2)
   20248:	10000033 	initd	0(r2)
#ifdef NIOS2_ECC_PRESENT
    addi r2, r2, -4
#else
    addi r2, r2, -NIOS2_DCACHE_LINE_SIZE
   2024c:	10bff804 	addi	r2,r2,-32
#endif
    bgt r2, zero, 0b
   20250:	00bffd16 	blt	zero,r2,20248 <_gp+0xfffe31b8>

    /*
     * Now that the caches are initialized, set up the stack pointer and global pointer.
     * The values provided by the linker are assumed to be correctly aligned.
     */
    movhi sp, %hi(__alt_stack_pointer)
   20254:	06c000f4 	movhi	sp,3
    ori sp, sp, %lo(__alt_stack_pointer)
   20258:	dee1a814 	ori	sp,sp,34464
    movhi gp, %hi(_gp)
   2025c:	068000f4 	movhi	gp,3
    ori gp, gp, %lo(_gp)
   20260:	d6b42414 	ori	gp,gp,53392
 */
#ifndef ALT_SIM_OPTIMIZE
    /* Log that the BSS is about to be cleared. */
    ALT_LOG_PUTS(alt_log_msg_bss)

    movhi r2, %hi(__bss_start)
   20264:	008000f4 	movhi	r2,3
    ori r2, r2, %lo(__bss_start)
   20268:	109b3c14 	ori	r2,r2,27888

    movhi r3, %hi(__bss_end)
   2026c:	00c000f4 	movhi	r3,3
    ori r3, r3, %lo(__bss_end)
   20270:	18db9b14 	ori	r3,r3,28268

    beq r2, r3, 1f
   20274:	10c00326 	beq	r2,r3,20284 <_start+0x40>

0:
    stw zero, (r2)
   20278:	10000015 	stw	zero,0(r2)
    addi r2, r2, 4
   2027c:	10800104 	addi	r2,r2,4
    bltu r2, r3, 0b
   20280:	10fffd36 	bltu	r2,r3,20278 <_gp+0xfffe31e8>
     * section aren't defined until alt_load() has been called).
     */
    mov   et, zero
#endif

    call alt_load
   20284:	003008c0 	call	3008c <alt_load>

    /* Log that alt_main is about to be called. */
    ALT_LOG_PUTS(alt_log_msg_alt_main)

    /* Call the C entry point. It should never return. */
    call alt_main
   20288:	00302200 	call	30220 <alt_main>

0002028c <alt_after_alt_main>:

    /* Wait in infinite loop in case alt_main does return. */
alt_after_alt_main:
    br alt_after_alt_main
   2028c:	003fff06 	br	2028c <_gp+0xfffe31fc>

00020290 <_ZN5CUartC1Ev>:
 */
#include "CUart.h"
#include "sys/alt_dev.h"
#include "altera_avalon_uart.h"

CUart::CUart():
   20290:	defffe04 	addi	sp,sp,-8
   20294:	df000115 	stw	fp,4(sp)
   20298:	df000104 	addi	fp,sp,4
   2029c:	e13fff15 	stw	r4,-4(fp)
	// TODO Auto-generated constructor stub
	UartHandle(0)
   202a0:	008000f4 	movhi	r2,3
   202a4:	108bd904 	addi	r2,r2,12132
   202a8:	e0ffff17 	ldw	r3,-4(fp)
   202ac:	18800015 	stw	r2,0(r3)
   202b0:	e0bfff17 	ldw	r2,-4(fp)
   202b4:	10000115 	stw	zero,4(r2)
{

}
   202b8:	0001883a 	nop
   202bc:	e037883a 	mov	sp,fp
   202c0:	df000017 	ldw	fp,0(sp)
   202c4:	dec00104 	addi	sp,sp,4
   202c8:	f800283a 	ret

000202cc <_ZN5CUartD1Ev>:

CUart::~CUart() {
   202cc:	defffd04 	addi	sp,sp,-12
   202d0:	dfc00215 	stw	ra,8(sp)
   202d4:	df000115 	stw	fp,4(sp)
   202d8:	df000104 	addi	fp,sp,4
   202dc:	e13fff15 	stw	r4,-4(fp)
   202e0:	008000f4 	movhi	r2,3
   202e4:	108bd904 	addi	r2,r2,12132
   202e8:	e0ffff17 	ldw	r3,-4(fp)
   202ec:	18800015 	stw	r2,0(r3)
	// TODO Auto-generated destructor stub


}
   202f0:	0005883a 	mov	r2,zero
   202f4:	10000226 	beq	r2,zero,20300 <_ZN5CUartD1Ev+0x34>
   202f8:	e13fff17 	ldw	r4,-4(fp)
   202fc:	0020ad40 	call	20ad4 <_ZdlPv>
   20300:	e037883a 	mov	sp,fp
   20304:	dfc00117 	ldw	ra,4(sp)
   20308:	df000017 	ldw	fp,0(sp)
   2030c:	dec00204 	addi	sp,sp,8
   20310:	f800283a 	ret

00020314 <_ZN5CUartD0Ev>:
	UartHandle(0)
{

}

CUart::~CUart() {
   20314:	defffd04 	addi	sp,sp,-12
   20318:	dfc00215 	stw	ra,8(sp)
   2031c:	df000115 	stw	fp,4(sp)
   20320:	df000104 	addi	fp,sp,4
   20324:	e13fff15 	stw	r4,-4(fp)
	// TODO Auto-generated destructor stub


}
   20328:	e13fff17 	ldw	r4,-4(fp)
   2032c:	00202cc0 	call	202cc <_ZN5CUartD1Ev>
   20330:	e13fff17 	ldw	r4,-4(fp)
   20334:	0020ad40 	call	20ad4 <_ZdlPv>
   20338:	e037883a 	mov	sp,fp
   2033c:	dfc00117 	ldw	ra,4(sp)
   20340:	df000017 	ldw	fp,0(sp)
   20344:	dec00204 	addi	sp,sp,8
   20348:	f800283a 	ret

0002034c <_ZN5CUart4OpenEPc>:

void CUart::Open(char *pDeviceName)
{
   2034c:	defffc04 	addi	sp,sp,-16
   20350:	dfc00315 	stw	ra,12(sp)
   20354:	df000215 	stw	fp,8(sp)
   20358:	df000204 	addi	fp,sp,8
   2035c:	e13ffe15 	stw	r4,-8(fp)
   20360:	e17fff15 	stw	r5,-4(fp)
	UartHandle = open(pDeviceName, O_ACCMODE); // open file for reading and writing
   20364:	014000c4 	movi	r5,3
   20368:	e13fff17 	ldw	r4,-4(fp)
   2036c:	00303e40 	call	303e4 <open>
   20370:	1007883a 	mov	r3,r2
   20374:	e0bffe17 	ldw	r2,-8(fp)
   20378:	10c00115 	stw	r3,4(r2)
}
   2037c:	0001883a 	nop
   20380:	e037883a 	mov	sp,fp
   20384:	dfc00117 	ldw	ra,4(sp)
   20388:	df000017 	ldw	fp,0(sp)
   2038c:	dec00204 	addi	sp,sp,8
   20390:	f800283a 	ret

00020394 <_ZN5CUart5CloseEv>:

void  CUart::Close()
{
   20394:	defffd04 	addi	sp,sp,-12
   20398:	dfc00215 	stw	ra,8(sp)
   2039c:	df000115 	stw	fp,4(sp)
   203a0:	df000104 	addi	fp,sp,4
   203a4:	e13fff15 	stw	r4,-4(fp)
    if (UartHandle)
   203a8:	e0bfff17 	ldw	r2,-4(fp)
   203ac:	10800117 	ldw	r2,4(r2)
   203b0:	10000426 	beq	r2,zero,203c4 <_ZN5CUart5CloseEv+0x30>
      close(UartHandle);
   203b4:	e0bfff17 	ldw	r2,-4(fp)
   203b8:	10800117 	ldw	r2,4(r2)
   203bc:	1009883a 	mov	r4,r2
   203c0:	002fa400 	call	2fa40 <close>
}
   203c4:	0001883a 	nop
   203c8:	e037883a 	mov	sp,fp
   203cc:	dfc00117 	ldw	ra,4(sp)
   203d0:	df000017 	ldw	fp,0(sp)
   203d4:	dec00204 	addi	sp,sp,8
   203d8:	f800283a 	ret

000203dc <_ZN5CUart4ReadEPciPi>:

bool CUart::Read(char *pBuffer, int nBufferSize, int *prx_len){
   203dc:	defff804 	addi	sp,sp,-32
   203e0:	dfc00715 	stw	ra,28(sp)
   203e4:	df000615 	stw	fp,24(sp)
   203e8:	df000604 	addi	fp,sp,24
   203ec:	e13ffc15 	stw	r4,-16(fp)
   203f0:	e17ffd15 	stw	r5,-12(fp)
   203f4:	e1bffe15 	stw	r6,-8(fp)
   203f8:	e1ffff15 	stw	r7,-4(fp)
	int nResult;
    bool bSuccess = FALSE;
   203fc:	e03ffa05 	stb	zero,-24(fp)
    if (UartHandle){
   20400:	e0bffc17 	ldw	r2,-16(fp)
   20404:	10800117 	ldw	r2,4(r2)
   20408:	10000f26 	beq	r2,zero,20448 <_ZN5CUart4ReadEPciPi+0x6c>
        nResult = read(UartHandle, pBuffer, nBufferSize);
   2040c:	e0bffc17 	ldw	r2,-16(fp)
   20410:	10800117 	ldw	r2,4(r2)
   20414:	e0fffe17 	ldw	r3,-8(fp)
   20418:	180d883a 	mov	r6,r3
   2041c:	e17ffd17 	ldw	r5,-12(fp)
   20420:	1009883a 	mov	r4,r2
   20424:	00305740 	call	30574 <read>
   20428:	e0bffb15 	stw	r2,-20(fp)
        if (nResult >= 0){
   2042c:	e0bffb17 	ldw	r2,-20(fp)
   20430:	10000516 	blt	r2,zero,20448 <_ZN5CUart4ReadEPciPi+0x6c>
            *prx_len = nResult;
   20434:	e0bfff17 	ldw	r2,-4(fp)
   20438:	e0fffb17 	ldw	r3,-20(fp)
   2043c:	10c00015 	stw	r3,0(r2)
            bSuccess = TRUE;
   20440:	00800044 	movi	r2,1
   20444:	e0bffa05 	stb	r2,-24(fp)
            //if (*prx_len == nBufferSize)
            //    bSuccess = TRUE;
        }
    }
    return bSuccess;
   20448:	e0bffa03 	ldbu	r2,-24(fp)
}
   2044c:	e037883a 	mov	sp,fp
   20450:	dfc00117 	ldw	ra,4(sp)
   20454:	df000017 	ldw	fp,0(sp)
   20458:	dec00204 	addi	sp,sp,8
   2045c:	f800283a 	ret

00020460 <_ZN5CUart5WriteEPci>:




bool  CUart::Write(char *pData, int nDataSize)
{
   20460:	defffa04 	addi	sp,sp,-24
   20464:	dfc00515 	stw	ra,20(sp)
   20468:	df000415 	stw	fp,16(sp)
   2046c:	df000404 	addi	fp,sp,16
   20470:	e13ffd15 	stw	r4,-12(fp)
   20474:	e17ffe15 	stw	r5,-8(fp)
   20478:	e1bfff15 	stw	r6,-4(fp)
    bool bSuccess = FALSE;
   2047c:	e03ffc05 	stb	zero,-16(fp)
    if (UartHandle){
   20480:	e0bffd17 	ldw	r2,-12(fp)
   20484:	10800117 	ldw	r2,4(r2)
   20488:	10001526 	beq	r2,zero,204e0 <_ZN5CUart5WriteEPci+0x80>
    	write(UartHandle, pData, nDataSize);
   2048c:	e0bffd17 	ldw	r2,-12(fp)
   20490:	10800117 	ldw	r2,4(r2)
   20494:	e0ffff17 	ldw	r3,-4(fp)
   20498:	180d883a 	mov	r6,r3
   2049c:	e17ffe17 	ldw	r5,-8(fp)
   204a0:	1009883a 	mov	r4,r2
   204a4:	00309940 	call	30994 <write>
        if (write(UartHandle, pData, nDataSize) == nDataSize)
   204a8:	e0bffd17 	ldw	r2,-12(fp)
   204ac:	10800117 	ldw	r2,4(r2)
   204b0:	e0ffff17 	ldw	r3,-4(fp)
   204b4:	180d883a 	mov	r6,r3
   204b8:	e17ffe17 	ldw	r5,-8(fp)
   204bc:	1009883a 	mov	r4,r2
   204c0:	00309940 	call	30994 <write>
   204c4:	1007883a 	mov	r3,r2
   204c8:	e0bfff17 	ldw	r2,-4(fp)
   204cc:	1885003a 	cmpeq	r2,r3,r2
   204d0:	10803fcc 	andi	r2,r2,255
   204d4:	10000226 	beq	r2,zero,204e0 <_ZN5CUart5WriteEPci+0x80>
            bSuccess = TRUE;
   204d8:	00800044 	movi	r2,1
   204dc:	e0bffc05 	stb	r2,-16(fp)
    }
    return bSuccess;
   204e0:	e0bffc03 	ldbu	r2,-16(fp)
}
   204e4:	e037883a 	mov	sp,fp
   204e8:	dfc00117 	ldw	ra,4(sp)
   204ec:	df000017 	ldw	fp,0(sp)
   204f0:	dec00204 	addi	sp,sp,8
   204f4:	f800283a 	ret

000204f8 <_ZN5CUart11WriteStringEPc>:


bool CUart::WriteString(char *pString)
{
   204f8:	defffc04 	addi	sp,sp,-16
   204fc:	dfc00315 	stw	ra,12(sp)
   20500:	df000215 	stw	fp,8(sp)
   20504:	df000204 	addi	fp,sp,8
   20508:	e13ffe15 	stw	r4,-8(fp)
   2050c:	e17fff15 	stw	r5,-4(fp)
	return CUart::Write(pString, strlen(pString));
   20510:	e13fff17 	ldw	r4,-4(fp)
   20514:	0023e3c0 	call	23e3c <strlen>
   20518:	100d883a 	mov	r6,r2
   2051c:	e17fff17 	ldw	r5,-4(fp)
   20520:	e13ffe17 	ldw	r4,-8(fp)
   20524:	00204600 	call	20460 <_ZN5CUart5WriteEPci>
}
   20528:	e037883a 	mov	sp,fp
   2052c:	dfc00117 	ldw	ra,4(sp)
   20530:	df000017 	ldw	fp,0(sp)
   20534:	dec00204 	addi	sp,sp,8
   20538:	f800283a 	ret

0002053c <_ZN5CUart16NoneBlockingReadEPciPi>:

bool CUart::NoneBlockingRead(char *pBuffer, int nBufferSize, int *prx_len){
   2053c:	defff904 	addi	sp,sp,-28
   20540:	dfc00615 	stw	ra,24(sp)
   20544:	df000515 	stw	fp,20(sp)
   20548:	df000504 	addi	fp,sp,20
   2054c:	e13ffc15 	stw	r4,-16(fp)
   20550:	e17ffd15 	stw	r5,-12(fp)
   20554:	e1bffe15 	stw	r6,-8(fp)
   20558:	e1ffff15 	stw	r7,-4(fp)
    bool bSuccess;
    fcntl(UartHandle, F_SETFL, O_ACCMODE | O_NONBLOCK);
   2055c:	e0bffc17 	ldw	r2,-16(fp)
   20560:	10800117 	ldw	r2,4(r2)
   20564:	019000c4 	movi	r6,16387
   20568:	01400104 	movi	r5,4
   2056c:	1009883a 	mov	r4,r2
   20570:	002fbac0 	call	2fbac <fcntl>
    bSuccess = CUart::Read(pBuffer, nBufferSize, prx_len);
   20574:	e1ffff17 	ldw	r7,-4(fp)
   20578:	e1bffe17 	ldw	r6,-8(fp)
   2057c:	e17ffd17 	ldw	r5,-12(fp)
   20580:	e13ffc17 	ldw	r4,-16(fp)
   20584:	00203dc0 	call	203dc <_ZN5CUart4ReadEPciPi>
   20588:	e0bffb05 	stb	r2,-20(fp)
    fcntl(UartHandle, F_SETFL, O_ACCMODE);
   2058c:	e0bffc17 	ldw	r2,-16(fp)
   20590:	10800117 	ldw	r2,4(r2)
   20594:	018000c4 	movi	r6,3
   20598:	01400104 	movi	r5,4
   2059c:	1009883a 	mov	r4,r2
   205a0:	002fbac0 	call	2fbac <fcntl>
    return bSuccess;
   205a4:	e0bffb03 	ldbu	r2,-20(fp)
}
   205a8:	e037883a 	mov	sp,fp
   205ac:	dfc00117 	ldw	ra,4(sp)
   205b0:	df000017 	ldw	fp,0(sp)
   205b4:	dec00204 	addi	sp,sp,8
   205b8:	f800283a 	ret

000205bc <_ZN5CUart15ReadWithTimeoutEPhtPtm>:


bool CUart::ReadWithTimeout(alt_u8 *pBuffer, alt_u16 nBufferSize, alt_u16 *prx_len, alt_u32 timeout){
   205bc:	defff504 	addi	sp,sp,-44
   205c0:	dfc00a15 	stw	ra,40(sp)
   205c4:	df000915 	stw	fp,36(sp)
   205c8:	df000904 	addi	fp,sp,36
   205cc:	e13ffc15 	stw	r4,-16(fp)
   205d0:	e17ffd15 	stw	r5,-12(fp)
   205d4:	3005883a 	mov	r2,r6
   205d8:	e1ffff15 	stw	r7,-4(fp)
   205dc:	e0bffe0d 	sth	r2,-8(fp)
    bool bSuccess = FALSE;
   205e0:	e03ff705 	stb	zero,-36(fp)
    if (UartHandle){
   205e4:	e0bffc17 	ldw	r2,-16(fp)
   205e8:	10800117 	ldw	r2,4(r2)
   205ec:	10002f26 	beq	r2,zero,206ac <_ZN5CUart15ReadWithTimeoutEPhtPtm+0xf0>
        int rx_total_cnt = 0, rx_cnt;
   205f0:	e03ff815 	stw	zero,-32(fp)
        alt_u32 time_start;
        bool bTimeout = FALSE;
   205f4:	e03ff905 	stb	zero,-28(fp)
 * alt_nticks() returns the elapsed number of system clock ticks since reset.
 */

static ALT_INLINE alt_u32 ALT_ALWAYS_INLINE alt_nticks (void)
{
  return _alt_nticks;
   205f8:	d0a72617 	ldw	r2,-25448(gp)
        time_start = alt_nticks();
   205fc:	e0bffa15 	stw	r2,-24(fp)
        while(!bSuccess && !bTimeout){
   20600:	e0bff703 	ldbu	r2,-36(fp)
   20604:	1000251e 	bne	r2,zero,2069c <_ZN5CUart15ReadWithTimeoutEPhtPtm+0xe0>
   20608:	e0bff903 	ldbu	r2,-28(fp)
   2060c:	1000231e 	bne	r2,zero,2069c <_ZN5CUart15ReadWithTimeoutEPhtPtm+0xe0>
        	NoneBlockingRead((char *)pBuffer+rx_total_cnt, nBufferSize-rx_total_cnt, &rx_cnt);
   20610:	e0bff817 	ldw	r2,-32(fp)
   20614:	e0fffd17 	ldw	r3,-12(fp)
   20618:	1889883a 	add	r4,r3,r2
   2061c:	e0fffe0b 	ldhu	r3,-8(fp)
   20620:	e0bff817 	ldw	r2,-32(fp)
   20624:	1885c83a 	sub	r2,r3,r2
   20628:	e0fffb04 	addi	r3,fp,-20
   2062c:	180f883a 	mov	r7,r3
   20630:	100d883a 	mov	r6,r2
   20634:	200b883a 	mov	r5,r4
   20638:	e13ffc17 	ldw	r4,-16(fp)
   2063c:	002053c0 	call	2053c <_ZN5CUart16NoneBlockingReadEPciPi>
            //rx_cnt = read(pUart, pBuffer+rx_total_cnt, nBufferSize-rx_total_cnt);
            rx_total_cnt += rx_cnt;
   20640:	e0bffb17 	ldw	r2,-20(fp)
   20644:	e0fff817 	ldw	r3,-32(fp)
   20648:	1885883a 	add	r2,r3,r2
   2064c:	e0bff815 	stw	r2,-32(fp)
            if (rx_total_cnt == nBufferSize)
   20650:	e0fffe0b 	ldhu	r3,-8(fp)
   20654:	e0bff817 	ldw	r2,-32(fp)
   20658:	1880031e 	bne	r3,r2,20668 <_ZN5CUart15ReadWithTimeoutEPhtPtm+0xac>
                bSuccess = TRUE;
   2065c:	00800044 	movi	r2,1
   20660:	e0bff705 	stb	r2,-36(fp)
   20664:	003fe606 	br	20600 <_gp+0xfffe3570>
   20668:	d0e72617 	ldw	r3,-25448(gp)
            else if ((alt_nticks() - time_start) > timeout)
   2066c:	e0bffa17 	ldw	r2,-24(fp)
   20670:	1885c83a 	sub	r2,r3,r2
   20674:	e0c00217 	ldw	r3,8(fp)
   20678:	1885803a 	cmpltu	r2,r3,r2
   2067c:	10803fcc 	andi	r2,r2,255
   20680:	10000326 	beq	r2,zero,20690 <_ZN5CUart15ReadWithTimeoutEPhtPtm+0xd4>
                bTimeout = TRUE;
   20684:	00800044 	movi	r2,1
   20688:	e0bff905 	stb	r2,-28(fp)
   2068c:	003fdc06 	br	20600 <_gp+0xfffe3570>
            else
                usleep(1);
   20690:	01000044 	movi	r4,1
   20694:	00309280 	call	30928 <usleep>
    if (UartHandle){
        int rx_total_cnt = 0, rx_cnt;
        alt_u32 time_start;
        bool bTimeout = FALSE;
        time_start = alt_nticks();
        while(!bSuccess && !bTimeout){
   20698:	003fd906 	br	20600 <_gp+0xfffe3570>
            else if ((alt_nticks() - time_start) > timeout)
                bTimeout = TRUE;
            else
                usleep(1);
        }
        *prx_len = rx_total_cnt;
   2069c:	e0bff817 	ldw	r2,-32(fp)
   206a0:	1007883a 	mov	r3,r2
   206a4:	e0bfff17 	ldw	r2,-4(fp)
   206a8:	10c0000d 	sth	r3,0(r2)
    }
    return bSuccess;
   206ac:	e0bff703 	ldbu	r2,-36(fp)
}
   206b0:	e037883a 	mov	sp,fp
   206b4:	dfc00117 	ldw	ra,4(sp)
   206b8:	df000017 	ldw	fp,0(sp)
   206bc:	dec00204 	addi	sp,sp,8
   206c0:	f800283a 	ret

000206c4 <_Z11CommandReadR5CUartPciPi>:
#include "terasic_includes.h"
#include "CUart.h"



bool CommandRead(CUart   &Uart, char *pBuffer, int nBufferSize, int *prx_lenmand){
   206c4:	defff404 	addi	sp,sp,-48
   206c8:	dfc00b15 	stw	ra,44(sp)
   206cc:	df000a15 	stw	fp,40(sp)
   206d0:	dc000915 	stw	r16,36(sp)
   206d4:	df000a04 	addi	fp,sp,40
   206d8:	e13ffb15 	stw	r4,-20(fp)
   206dc:	e17ffc15 	stw	r5,-16(fp)
   206e0:	e1bffd15 	stw	r6,-12(fp)
   206e4:	e1fffe15 	stw	r7,-8(fp)
	int RxLen;
	char Data;
	bool bDone = false;
   206e8:	e03ff605 	stb	zero,-40(fp)
	int Len = 0;
   206ec:	e03ff715 	stw	zero,-36(fp)
	alt_u32 timeout;

	if (!Uart.Read((char *)&Data, sizeof(Data), &RxLen) || RxLen == 0)
   206f0:	00c00044 	movi	r3,1
   206f4:	e13ff904 	addi	r4,fp,-28
   206f8:	e0bffa04 	addi	r2,fp,-24
   206fc:	200f883a 	mov	r7,r4
   20700:	180d883a 	mov	r6,r3
   20704:	100b883a 	mov	r5,r2
   20708:	e13ffb17 	ldw	r4,-20(fp)
   2070c:	00203dc0 	call	203dc <_ZN5CUart4ReadEPciPi>
   20710:	1080005c 	xori	r2,r2,1
   20714:	10803fcc 	andi	r2,r2,255
   20718:	1000021e 	bne	r2,zero,20724 <_Z11CommandReadR5CUartPciPi+0x60>
   2071c:	e0bff917 	ldw	r2,-28(fp)
   20720:	1000021e 	bne	r2,zero,2072c <_Z11CommandReadR5CUartPciPi+0x68>
   20724:	00800044 	movi	r2,1
   20728:	00000106 	br	20730 <_Z11CommandReadR5CUartPciPi+0x6c>
   2072c:	0005883a 	mov	r2,zero
   20730:	10803fcc 	andi	r2,r2,255
   20734:	10000226 	beq	r2,zero,20740 <_Z11CommandReadR5CUartPciPi+0x7c>
			return false;
   20738:	0005883a 	mov	r2,zero
   2073c:	00004506 	br	20854 <_Z11CommandReadR5CUartPciPi+0x190>

	*(pBuffer + 0) = Data;
   20740:	e0fffa03 	ldbu	r3,-24(fp)
   20744:	e0bffc17 	ldw	r2,-16(fp)
   20748:	10c00005 	stb	r3,0(r2)
   2074c:	d4272617 	ldw	r16,-25448(gp)
 * Obtain the system clock rate in ticks/s. 
 */

static ALT_INLINE alt_u32 ALT_ALWAYS_INLINE alt_ticks_per_second (void)
{
  return _alt_tick_rate;
   20750:	d0a72517 	ldw	r2,-25452(gp)

	// read until find '\r'
	timeout = alt_nticks() + alt_ticks_per_second()/1000;
   20754:	0140fa04 	movi	r5,1000
   20758:	1009883a 	mov	r4,r2
   2075c:	00229780 	call	22978 <__udivsi3>
   20760:	8085883a 	add	r2,r16,r2
   20764:	e0bff815 	stw	r2,-32(fp)
	Len = 1;
   20768:	00800044 	movi	r2,1
   2076c:	e0bff715 	stw	r2,-36(fp)
	while(!bDone){
   20770:	e0bff603 	ldbu	r2,-40(fp)
   20774:	1000331e 	bne	r2,zero,20844 <_Z11CommandReadR5CUartPciPi+0x180>
		if (Uart.Read((char *)&Data, sizeof(Data), &RxLen) && RxLen == sizeof(Data)){
   20778:	00c00044 	movi	r3,1
   2077c:	e13ff904 	addi	r4,fp,-28
   20780:	e0bffa04 	addi	r2,fp,-24
   20784:	200f883a 	mov	r7,r4
   20788:	180d883a 	mov	r6,r3
   2078c:	100b883a 	mov	r5,r2
   20790:	e13ffb17 	ldw	r4,-20(fp)
   20794:	00203dc0 	call	203dc <_ZN5CUart4ReadEPciPi>
   20798:	10803fcc 	andi	r2,r2,255
   2079c:	10000526 	beq	r2,zero,207b4 <_Z11CommandReadR5CUartPciPi+0xf0>
   207a0:	e0bff917 	ldw	r2,-28(fp)
   207a4:	10800058 	cmpnei	r2,r2,1
   207a8:	1000021e 	bne	r2,zero,207b4 <_Z11CommandReadR5CUartPciPi+0xf0>
   207ac:	00800044 	movi	r2,1
   207b0:	00000106 	br	207b8 <_Z11CommandReadR5CUartPciPi+0xf4>
   207b4:	0005883a 	mov	r2,zero
   207b8:	10803fcc 	andi	r2,r2,255
   207bc:	10001126 	beq	r2,zero,20804 <_Z11CommandReadR5CUartPciPi+0x140>
			*(pBuffer + Len) = Data;
   207c0:	e0bff717 	ldw	r2,-36(fp)
   207c4:	e0fffc17 	ldw	r3,-16(fp)
   207c8:	1885883a 	add	r2,r3,r2
   207cc:	e0fffa03 	ldbu	r3,-24(fp)
   207d0:	10c00005 	stb	r3,0(r2)
			Len++;
   207d4:	e0bff717 	ldw	r2,-36(fp)
   207d8:	10800044 	addi	r2,r2,1
   207dc:	e0bff715 	stw	r2,-36(fp)
			if (Data == '\n')
   207e0:	e0bffa03 	ldbu	r2,-24(fp)
   207e4:	10803fcc 	andi	r2,r2,255
   207e8:	1080201c 	xori	r2,r2,128
   207ec:	10bfe004 	addi	r2,r2,-128
   207f0:	10800298 	cmpnei	r2,r2,10
   207f4:	1000101e 	bne	r2,zero,20838 <_Z11CommandReadR5CUartPciPi+0x174>
				bDone = true;
   207f8:	00800044 	movi	r2,1
   207fc:	e0bff605 	stb	r2,-40(fp)
   20800:	00000d06 	br	20838 <_Z11CommandReadR5CUartPciPi+0x174>
		}else if (Len >= nBufferSize){
   20804:	e0fff717 	ldw	r3,-36(fp)
   20808:	e0bffd17 	ldw	r2,-12(fp)
   2080c:	18800316 	blt	r3,r2,2081c <_Z11CommandReadR5CUartPciPi+0x158>
			// buffer full
			bDone = true;
   20810:	00800044 	movi	r2,1
   20814:	e0bff605 	stb	r2,-40(fp)
   20818:	00000706 	br	20838 <_Z11CommandReadR5CUartPciPi+0x174>
 * alt_nticks() returns the elapsed number of system clock ticks since reset.
 */

static ALT_INLINE alt_u32 ALT_ALWAYS_INLINE alt_nticks (void)
{
  return _alt_nticks;
   2081c:	d0a72617 	ldw	r2,-25448(gp)
		}else if (alt_nticks() > timeout){
   20820:	e0fff817 	ldw	r3,-32(fp)
   20824:	1885803a 	cmpltu	r2,r3,r2
   20828:	10803fcc 	andi	r2,r2,255
   2082c:	10000226 	beq	r2,zero,20838 <_Z11CommandReadR5CUartPciPi+0x174>
			// timeout
			bDone = true;
   20830:	00800044 	movi	r2,1
   20834:	e0bff605 	stb	r2,-40(fp)
		}else{
		}
		usleep(10);
   20838:	01000284 	movi	r4,10
   2083c:	00309280 	call	30928 <usleep>
	*(pBuffer + 0) = Data;

	// read until find '\r'
	timeout = alt_nticks() + alt_ticks_per_second()/1000;
	Len = 1;
	while(!bDone){
   20840:	003fcb06 	br	20770 <_gp+0xfffe36e0>
		}else{
		}
		usleep(10);

	}
	*prx_lenmand = Len;
   20844:	e0bffe17 	ldw	r2,-8(fp)
   20848:	e0fff717 	ldw	r3,-36(fp)
   2084c:	10c00015 	stw	r3,0(r2)
	return true;
   20850:	00800044 	movi	r2,1
}
   20854:	e6ffff04 	addi	sp,fp,-4
   20858:	dfc00217 	ldw	ra,8(sp)
   2085c:	df000117 	ldw	fp,4(sp)
   20860:	dc000017 	ldw	r16,0(sp)
   20864:	dec00304 	addi	sp,sp,12
   20868:	f800283a 	ret

0002086c <main>:


int main()
{
   2086c:	deffdd04 	addi	sp,sp,-140
   20870:	dfc02215 	stw	ra,136(sp)
   20874:	df002115 	stw	fp,132(sp)
   20878:	ddc02015 	stw	r23,128(sp)
   2087c:	dd801f15 	stw	r22,124(sp)
   20880:	dd401e15 	stw	r21,120(sp)
   20884:	dd001d15 	stw	r20,116(sp)
   20888:	dcc01c15 	stw	r19,112(sp)
   2088c:	dc801b15 	stw	r18,108(sp)
   20890:	dc401a15 	stw	r17,104(sp)
   20894:	dc001915 	stw	r16,100(sp)
   20898:	df002104 	addi	fp,sp,132
   2089c:	008000b4 	movhi	r2,2
   208a0:	1084a304 	addi	r2,r2,4748
   208a4:	e0bff015 	stw	r2,-64(fp)
   208a8:	008000f4 	movhi	r2,3
   208ac:	108bc604 	addi	r2,r2,12056
   208b0:	e0bff115 	stw	r2,-60(fp)
   208b4:	e0bff204 	addi	r2,fp,-56
   208b8:	e0ffdf04 	addi	r3,fp,-132
   208bc:	10c00015 	stw	r3,0(r2)
   208c0:	00c000b4 	movhi	r3,2
   208c4:	18c2aa04 	addi	r3,r3,2728
   208c8:	10c00115 	stw	r3,4(r2)
   208cc:	16c00215 	stw	sp,8(r2)
   208d0:	e0bfea04 	addi	r2,fp,-88
   208d4:	1009883a 	mov	r4,r2
   208d8:	0022c3c0 	call	22c3c <_Unwind_SjLj_Register>
  CUart Uart;
   208dc:	00bfffc4 	movi	r2,-1
   208e0:	e0bfeb15 	stw	r2,-84(fp)
   208e4:	e13fdf04 	addi	r4,fp,-132
   208e8:	00202900 	call	20290 <_ZN5CUartC1Ev>
  Uart.Open(HC_05_UART_NAME);
   208ec:	014000f4 	movhi	r5,3
   208f0:	00800044 	movi	r2,1
   208f4:	e0bfeb15 	stw	r2,-84(fp)
   208f8:	294bdb04 	addi	r5,r5,12140
   208fc:	e13fdf04 	addi	r4,fp,-132
   20900:	002034c0 	call	2034c <_ZN5CUart4OpenEPc>
  int nReadLen;
  int Command, Param;
  char szData[30];
  printf("Press KEY1 to Config HC-05\r\n");
   20904:	010000f4 	movhi	r4,3
   20908:	210bdf04 	addi	r4,r4,12156
   2090c:	00239f40 	call	239f4 <puts>

  while(1)
  {
	 if(!IORD(PIO_KEY_BASE,0))
   20910:	00800134 	movhi	r2,4
   20914:	10841004 	addi	r2,r2,4160
   20918:	10800037 	ldwio	r2,0(r2)
   2091c:	1005003a 	cmpeq	r2,r2,zero
   20920:	10803fcc 	andi	r2,r2,255
   20924:	103ffa26 	beq	r2,zero,20910 <_gp+0xfffe3880>
	 {
       Uart.WriteString("AT\r\n");
   20928:	014000f4 	movhi	r5,3
   2092c:	00800044 	movi	r2,1
   20930:	e0bfeb15 	stw	r2,-84(fp)
   20934:	294be604 	addi	r5,r5,12184
   20938:	e13fdf04 	addi	r4,fp,-132
   2093c:	00204f80 	call	204f8 <_ZN5CUart11WriteStringEPc>
       if(CommandRead(Uart, szData, sizeof(szData), &nReadLen))
   20940:	00c00784 	movi	r3,30
   20944:	e13fe104 	addi	r4,fp,-124
   20948:	e0bfe204 	addi	r2,fp,-120
   2094c:	200f883a 	mov	r7,r4
   20950:	180d883a 	mov	r6,r3
   20954:	100b883a 	mov	r5,r2
   20958:	e13fdf04 	addi	r4,fp,-132
   2095c:	00206c40 	call	206c4 <_Z11CommandReadR5CUartPciPi>
   20960:	10803fcc 	andi	r2,r2,255
   20964:	10000c26 	beq	r2,zero,20998 <main+0x12c>
       {
	      szData[nReadLen] = 0;
   20968:	e0bfe117 	ldw	r2,-124(fp)
   2096c:	e0ffe204 	addi	r3,fp,-120
   20970:	1885883a 	add	r2,r3,r2
   20974:	10000005 	stb	zero,0(r2)
	      printf("AT Command \n");
   20978:	010000f4 	movhi	r4,3
   2097c:	210be804 	addi	r4,r4,12192
   20980:	00239f40 	call	239f4 <puts>
	      printf("HC05 Response:%s\r\n",szData);
   20984:	e0bfe204 	addi	r2,fp,-120
   20988:	100b883a 	mov	r5,r2
   2098c:	010000f4 	movhi	r4,3
   20990:	210beb04 	addi	r4,r4,12204
   20994:	00238f80 	call	238f8 <printf>
       }
       usleep(1000000);
   20998:	010003f4 	movhi	r4,15
   2099c:	00800044 	movi	r2,1
   209a0:	e0bfeb15 	stw	r2,-84(fp)
   209a4:	21109004 	addi	r4,r4,16960
   209a8:	00309280 	call	30928 <usleep>

       Uart.WriteString("AT+ORGL\r\n");
   209ac:	014000f4 	movhi	r5,3
   209b0:	294bf004 	addi	r5,r5,12224
   209b4:	e13fdf04 	addi	r4,fp,-132
   209b8:	00204f80 	call	204f8 <_ZN5CUart11WriteStringEPc>
       if(CommandRead(Uart, szData, sizeof(szData), &nReadLen))
   209bc:	00c00784 	movi	r3,30
   209c0:	e13fe104 	addi	r4,fp,-124
   209c4:	e0bfe204 	addi	r2,fp,-120
   209c8:	200f883a 	mov	r7,r4
   209cc:	180d883a 	mov	r6,r3
   209d0:	100b883a 	mov	r5,r2
   209d4:	e13fdf04 	addi	r4,fp,-132
   209d8:	00206c40 	call	206c4 <_Z11CommandReadR5CUartPciPi>
   209dc:	10803fcc 	andi	r2,r2,255
   209e0:	10000c26 	beq	r2,zero,20a14 <main+0x1a8>
       {
	      szData[nReadLen] = 0;
   209e4:	e0bfe117 	ldw	r2,-124(fp)
   209e8:	e0ffe204 	addi	r3,fp,-120
   209ec:	1885883a 	add	r2,r3,r2
   209f0:	10000005 	stb	zero,0(r2)
	      printf("Set ORGL \n");
   209f4:	010000f4 	movhi	r4,3
   209f8:	210bf304 	addi	r4,r4,12236
   209fc:	00239f40 	call	239f4 <puts>
	      printf("HC05 Response:%s\r\n",szData);
   20a00:	e0bfe204 	addi	r2,fp,-120
   20a04:	100b883a 	mov	r5,r2
   20a08:	010000f4 	movhi	r4,3
   20a0c:	210beb04 	addi	r4,r4,12204
   20a10:	00238f80 	call	238f8 <printf>
       }
       usleep(1000000);
   20a14:	010003f4 	movhi	r4,15
   20a18:	00800044 	movi	r2,1
   20a1c:	e0bfeb15 	stw	r2,-84(fp)
   20a20:	21109004 	addi	r4,r4,16960
   20a24:	00309280 	call	30928 <usleep>

       Uart.WriteString("AT+UART=115200,0,0\r\n");
   20a28:	014000f4 	movhi	r5,3
   20a2c:	294bf604 	addi	r5,r5,12248
   20a30:	e13fdf04 	addi	r4,fp,-132
   20a34:	00204f80 	call	204f8 <_ZN5CUart11WriteStringEPc>

       if(CommandRead(Uart, szData, sizeof(szData), &nReadLen))
   20a38:	00c00784 	movi	r3,30
   20a3c:	e13fe104 	addi	r4,fp,-124
   20a40:	e0bfe204 	addi	r2,fp,-120
   20a44:	200f883a 	mov	r7,r4
   20a48:	180d883a 	mov	r6,r3
   20a4c:	100b883a 	mov	r5,r2
   20a50:	e13fdf04 	addi	r4,fp,-132
   20a54:	00206c40 	call	206c4 <_Z11CommandReadR5CUartPciPi>
   20a58:	10803fcc 	andi	r2,r2,255
   20a5c:	10000c26 	beq	r2,zero,20a90 <main+0x224>
       {
	      szData[nReadLen] = 0;
   20a60:	e0bfe117 	ldw	r2,-124(fp)
   20a64:	e0ffe204 	addi	r3,fp,-120
   20a68:	1885883a 	add	r2,r3,r2
   20a6c:	10000005 	stb	zero,0(r2)
	      printf("Set Baut Rate \n");
   20a70:	010000f4 	movhi	r4,3
   20a74:	210bfc04 	addi	r4,r4,12272
   20a78:	00239f40 	call	239f4 <puts>
	      printf("HC05 Response:%s\r\n",szData);
   20a7c:	e0bfe204 	addi	r2,fp,-120
   20a80:	100b883a 	mov	r5,r2
   20a84:	010000f4 	movhi	r4,3
   20a88:	210beb04 	addi	r4,r4,12204
   20a8c:	00238f80 	call	238f8 <printf>
       }
       usleep(1000000);
   20a90:	010003f4 	movhi	r4,15
   20a94:	00800044 	movi	r2,1
   20a98:	e0bfeb15 	stw	r2,-84(fp)
   20a9c:	21109004 	addi	r4,r4,16960
   20aa0:	00309280 	call	30928 <usleep>
  int nReadLen;
  int Command, Param;
  char szData[30];
  printf("Press KEY1 to Config HC-05\r\n");

  while(1)
   20aa4:	003f9a06 	br	20910 <_gp+0xfffe3880>
   20aa8:	e7002104 	addi	fp,fp,132
   20aac:	e0bfec17 	ldw	r2,-80(fp)
   20ab0:	e0bff715 	stw	r2,-36(fp)
}


int main()
{
  CUart Uart;
   20ab4:	e03feb15 	stw	zero,-84(fp)
   20ab8:	e13fdf04 	addi	r4,fp,-132
   20abc:	00202cc0 	call	202cc <_ZN5CUartD1Ev>
   20ac0:	e0fff717 	ldw	r3,-36(fp)
   20ac4:	00bfffc4 	movi	r2,-1
   20ac8:	e0bfeb15 	stw	r2,-84(fp)
   20acc:	1809883a 	mov	r4,r3
   20ad0:	0022e380 	call	22e38 <_Unwind_SjLj_Resume>

00020ad4 <_ZdlPv>:
   20ad4:	0022f801 	jmpi	22f80 <free>

00020ad8 <_ZL21size_of_encoded_valueh>:
   20ad8:	deffff04 	addi	sp,sp,-4
   20adc:	dfc00015 	stw	ra,0(sp)
   20ae0:	20c03fcc 	andi	r3,r4,255
   20ae4:	00803fc4 	movi	r2,255
   20ae8:	18802026 	beq	r3,r2,20b6c <_ZL21size_of_encoded_valueh+0x94>
   20aec:	210001cc 	andi	r4,r4,7
   20af0:	00800144 	movi	r2,5
   20af4:	11001c36 	bltu	r2,r4,20b68 <_ZL21size_of_encoded_valueh+0x90>
   20af8:	200890ba 	slli	r4,r4,2
   20afc:	008000b4 	movhi	r2,2
   20b00:	1082c404 	addi	r2,r2,2832
   20b04:	2089883a 	add	r4,r4,r2
   20b08:	20800017 	ldw	r2,0(r4)
   20b0c:	1000683a 	jmp	r2
   20b10:	00020b28 	cmpgeui	zero,zero,2092
   20b14:	00020b68 	cmpgeui	zero,zero,2093
   20b18:	00020b38 	rdprs	zero,zero,2092
   20b1c:	00020b28 	cmpgeui	zero,zero,2092
   20b20:	00020b58 	cmpnei	zero,zero,2093
   20b24:	00020b48 	cmpgei	zero,zero,2093
   20b28:	00800104 	movi	r2,4
   20b2c:	dfc00017 	ldw	ra,0(sp)
   20b30:	dec00104 	addi	sp,sp,4
   20b34:	f800283a 	ret
   20b38:	00800084 	movi	r2,2
   20b3c:	dfc00017 	ldw	ra,0(sp)
   20b40:	dec00104 	addi	sp,sp,4
   20b44:	f800283a 	ret
   20b48:	00800044 	movi	r2,1
   20b4c:	dfc00017 	ldw	ra,0(sp)
   20b50:	dec00104 	addi	sp,sp,4
   20b54:	f800283a 	ret
   20b58:	00800204 	movi	r2,8
   20b5c:	dfc00017 	ldw	ra,0(sp)
   20b60:	dec00104 	addi	sp,sp,4
   20b64:	f800283a 	ret
   20b68:	0022f540 	call	22f54 <abort>
   20b6c:	0005883a 	mov	r2,zero
   20b70:	dfc00017 	ldw	ra,0(sp)
   20b74:	dec00104 	addi	sp,sp,4
   20b78:	f800283a 	ret

00020b7c <_ZL28read_encoded_value_with_basehjPKhPj>:
   20b7c:	deffff04 	addi	sp,sp,-4
   20b80:	dfc00015 	stw	ra,0(sp)
   20b84:	20c03fcc 	andi	r3,r4,255
   20b88:	00801404 	movi	r2,80
   20b8c:	18807326 	beq	r3,r2,20d5c <_ZL28read_encoded_value_with_basehjPKhPj+0x1e0>
   20b90:	20c003cc 	andi	r3,r4,15
   20b94:	00800304 	movi	r2,12
   20b98:	10c06f36 	bltu	r2,r3,20d58 <_ZL28read_encoded_value_with_basehjPKhPj+0x1dc>
   20b9c:	180690ba 	slli	r3,r3,2
   20ba0:	020000b4 	movhi	r8,2
   20ba4:	4202ed04 	addi	r8,r8,2996
   20ba8:	1a07883a 	add	r3,r3,r8
   20bac:	18800017 	ldw	r2,0(r3)
   20bb0:	1000683a 	jmp	r2
   20bb4:	00020be8 	cmpgeui	zero,zero,2095
   20bb8:	00020d04 	movi	zero,2100
   20bbc:	00020d40 	call	20d4 <__reset-0x1df2c>
   20bc0:	00020be8 	cmpgeui	zero,zero,2095
   20bc4:	00020c4c 	andi	zero,zero,2097
   20bc8:	00020ca0 	cmpeqi	zero,zero,2098
   20bcc:	00020d58 	cmpnei	zero,zero,2101
   20bd0:	00020d58 	cmpnei	zero,zero,2101
   20bd4:	00020d58 	cmpnei	zero,zero,2101
   20bd8:	00020cac 	andhi	zero,zero,2098
   20bdc:	00020c7c 	xorhi	zero,zero,2097
   20be0:	00020be8 	cmpgeui	zero,zero,2095
   20be4:	00020c4c 	andi	zero,zero,2097
   20be8:	30800043 	ldbu	r2,1(r6)
   20bec:	30c00083 	ldbu	r3,2(r6)
   20bf0:	324000c3 	ldbu	r9,3(r6)
   20bf4:	32000003 	ldbu	r8,0(r6)
   20bf8:	1004923a 	slli	r2,r2,8
   20bfc:	1806943a 	slli	r3,r3,16
   20c00:	4812963a 	slli	r9,r9,24
   20c04:	1204b03a 	or	r2,r2,r8
   20c08:	1884b03a 	or	r2,r3,r2
   20c0c:	4886b03a 	or	r3,r9,r2
   20c10:	30800104 	addi	r2,r6,4
   20c14:	18000926 	beq	r3,zero,20c3c <_ZL28read_encoded_value_with_basehjPKhPj+0xc0>
   20c18:	22001c0c 	andi	r8,r4,112
   20c1c:	02400404 	movi	r9,16
   20c20:	42405726 	beq	r8,r9,20d80 <_ZL28read_encoded_value_with_basehjPKhPj+0x204>
   20c24:	21003fcc 	andi	r4,r4,255
   20c28:	2100201c 	xori	r4,r4,128
   20c2c:	213fe004 	addi	r4,r4,-128
   20c30:	1947883a 	add	r3,r3,r5
   20c34:	2000010e 	bge	r4,zero,20c3c <_ZL28read_encoded_value_with_basehjPKhPj+0xc0>
   20c38:	18c00017 	ldw	r3,0(r3)
   20c3c:	38c00015 	stw	r3,0(r7)
   20c40:	dfc00017 	ldw	ra,0(sp)
   20c44:	dec00104 	addi	sp,sp,4
   20c48:	f800283a 	ret
   20c4c:	30800043 	ldbu	r2,1(r6)
   20c50:	30c00083 	ldbu	r3,2(r6)
   20c54:	324000c3 	ldbu	r9,3(r6)
   20c58:	32000003 	ldbu	r8,0(r6)
   20c5c:	1004923a 	slli	r2,r2,8
   20c60:	1806943a 	slli	r3,r3,16
   20c64:	4812963a 	slli	r9,r9,24
   20c68:	1204b03a 	or	r2,r2,r8
   20c6c:	1884b03a 	or	r2,r3,r2
   20c70:	4886b03a 	or	r3,r9,r2
   20c74:	30800204 	addi	r2,r6,8
   20c78:	003fe606 	br	20c14 <_gp+0xfffe3b84>
   20c7c:	30c00043 	ldbu	r3,1(r6)
   20c80:	32000003 	ldbu	r8,0(r6)
   20c84:	30800084 	addi	r2,r6,2
   20c88:	1806923a 	slli	r3,r3,8
   20c8c:	1a06b03a 	or	r3,r3,r8
   20c90:	18ffffcc 	andi	r3,r3,65535
   20c94:	18e0001c 	xori	r3,r3,32768
   20c98:	18e00004 	addi	r3,r3,-32768
   20c9c:	003fdd06 	br	20c14 <_gp+0xfffe3b84>
   20ca0:	30c00003 	ldbu	r3,0(r6)
   20ca4:	30800044 	addi	r2,r6,1
   20ca8:	003fda06 	br	20c14 <_gp+0xfffe3b84>
   20cac:	3017883a 	mov	r11,r6
   20cb0:	0007883a 	mov	r3,zero
   20cb4:	0013883a 	mov	r9,zero
   20cb8:	5a800003 	ldbu	r10,0(r11)
   20cbc:	58800044 	addi	r2,r11,1
   20cc0:	1017883a 	mov	r11,r2
   20cc4:	52001fcc 	andi	r8,r10,127
   20cc8:	4250983a 	sll	r8,r8,r9
   20ccc:	53003fcc 	andi	r12,r10,255
   20cd0:	6300201c 	xori	r12,r12,128
   20cd4:	633fe004 	addi	r12,r12,-128
   20cd8:	1a06b03a 	or	r3,r3,r8
   20cdc:	4a4001c4 	addi	r9,r9,7
   20ce0:	603ff516 	blt	r12,zero,20cb8 <_gp+0xfffe3c28>
   20ce4:	020007c4 	movi	r8,31
   20ce8:	427fca36 	bltu	r8,r9,20c14 <_gp+0xfffe3b84>
   20cec:	5280100c 	andi	r10,r10,64
   20cf0:	503fc826 	beq	r10,zero,20c14 <_gp+0xfffe3b84>
   20cf4:	023fffc4 	movi	r8,-1
   20cf8:	4252983a 	sll	r9,r8,r9
   20cfc:	1a46b03a 	or	r3,r3,r9
   20d00:	003fc506 	br	20c18 <_gp+0xfffe3b88>
   20d04:	3017883a 	mov	r11,r6
   20d08:	0007883a 	mov	r3,zero
   20d0c:	0015883a 	mov	r10,zero
   20d10:	5a000003 	ldbu	r8,0(r11)
   20d14:	58800044 	addi	r2,r11,1
   20d18:	1017883a 	mov	r11,r2
   20d1c:	42401fcc 	andi	r9,r8,127
   20d20:	4a92983a 	sll	r9,r9,r10
   20d24:	42003fcc 	andi	r8,r8,255
   20d28:	4200201c 	xori	r8,r8,128
   20d2c:	423fe004 	addi	r8,r8,-128
   20d30:	1a46b03a 	or	r3,r3,r9
   20d34:	528001c4 	addi	r10,r10,7
   20d38:	403ff516 	blt	r8,zero,20d10 <_gp+0xfffe3c80>
   20d3c:	003fb506 	br	20c14 <_gp+0xfffe3b84>
   20d40:	30c00043 	ldbu	r3,1(r6)
   20d44:	32000003 	ldbu	r8,0(r6)
   20d48:	30800084 	addi	r2,r6,2
   20d4c:	1806923a 	slli	r3,r3,8
   20d50:	1a06b03a 	or	r3,r3,r8
   20d54:	003faf06 	br	20c14 <_gp+0xfffe3b84>
   20d58:	0022f540 	call	22f54 <abort>
   20d5c:	308000c4 	addi	r2,r6,3
   20d60:	00ffff04 	movi	r3,-4
   20d64:	10c4703a 	and	r2,r2,r3
   20d68:	10c00017 	ldw	r3,0(r2)
   20d6c:	10800104 	addi	r2,r2,4
   20d70:	38c00015 	stw	r3,0(r7)
   20d74:	dfc00017 	ldw	ra,0(sp)
   20d78:	dec00104 	addi	sp,sp,4
   20d7c:	f800283a 	ret
   20d80:	300b883a 	mov	r5,r6
   20d84:	003fa706 	br	20c24 <_gp+0xfffe3b94>

00020d88 <_ZL15get_ttype_entryP16lsda_header_infom>:
   20d88:	defffc04 	addi	sp,sp,-16
   20d8c:	dfc00315 	stw	ra,12(sp)
   20d90:	dc400215 	stw	r17,8(sp)
   20d94:	dc000115 	stw	r16,4(sp)
   20d98:	2021883a 	mov	r16,r4
   20d9c:	21000503 	ldbu	r4,20(r4)
   20da0:	2823883a 	mov	r17,r5
   20da4:	0020ad80 	call	20ad8 <_ZL21size_of_encoded_valueh>
   20da8:	1445383a 	mul	r2,r2,r17
   20dac:	81800317 	ldw	r6,12(r16)
   20db0:	81400217 	ldw	r5,8(r16)
   20db4:	81000503 	ldbu	r4,20(r16)
   20db8:	d80f883a 	mov	r7,sp
   20dbc:	308dc83a 	sub	r6,r6,r2
   20dc0:	0020b7c0 	call	20b7c <_ZL28read_encoded_value_with_basehjPKhPj>
   20dc4:	d8800017 	ldw	r2,0(sp)
   20dc8:	dfc00317 	ldw	ra,12(sp)
   20dcc:	dc400217 	ldw	r17,8(sp)
   20dd0:	dc000117 	ldw	r16,4(sp)
   20dd4:	dec00404 	addi	sp,sp,16
   20dd8:	f800283a 	ret

00020ddc <_ZL21base_of_encoded_valuehP15_Unwind_Context>:
   20ddc:	deffff04 	addi	sp,sp,-4
   20de0:	dfc00015 	stw	ra,0(sp)
   20de4:	20c03fcc 	andi	r3,r4,255
   20de8:	00803fc4 	movi	r2,255
   20dec:	18800e26 	beq	r3,r2,20e28 <_ZL21base_of_encoded_valuehP15_Unwind_Context+0x4c>
   20df0:	20801c0c 	andi	r2,r4,112
   20df4:	00c00804 	movi	r3,32
   20df8:	10c01726 	beq	r2,r3,20e58 <_ZL21base_of_encoded_valuehP15_Unwind_Context+0x7c>
   20dfc:	18800e2e 	bgeu	r3,r2,20e38 <_ZL21base_of_encoded_valuehP15_Unwind_Context+0x5c>
   20e00:	00c01004 	movi	r3,64
   20e04:	10c01026 	beq	r2,r3,20e48 <_ZL21base_of_encoded_valuehP15_Unwind_Context+0x6c>
   20e08:	00c01404 	movi	r3,80
   20e0c:	10c00626 	beq	r2,r3,20e28 <_ZL21base_of_encoded_valuehP15_Unwind_Context+0x4c>
   20e10:	00c00c04 	movi	r3,48
   20e14:	10c00b1e 	bne	r2,r3,20e44 <_ZL21base_of_encoded_valuehP15_Unwind_Context+0x68>
   20e18:	2809883a 	mov	r4,r5
   20e1c:	dfc00017 	ldw	ra,0(sp)
   20e20:	dec00104 	addi	sp,sp,4
   20e24:	0022d141 	jmpi	22d14 <_Unwind_GetDataRelBase>
   20e28:	0005883a 	mov	r2,zero
   20e2c:	dfc00017 	ldw	ra,0(sp)
   20e30:	dec00104 	addi	sp,sp,4
   20e34:	f800283a 	ret
   20e38:	103ffb26 	beq	r2,zero,20e28 <_gp+0xfffe3d98>
   20e3c:	00c00404 	movi	r3,16
   20e40:	10fff926 	beq	r2,r3,20e28 <_gp+0xfffe3d98>
   20e44:	0022f540 	call	22f54 <abort>
   20e48:	2809883a 	mov	r4,r5
   20e4c:	dfc00017 	ldw	ra,0(sp)
   20e50:	dec00104 	addi	sp,sp,4
   20e54:	0022d041 	jmpi	22d04 <_Unwind_GetRegionStart>
   20e58:	2809883a 	mov	r4,r5
   20e5c:	dfc00017 	ldw	ra,0(sp)
   20e60:	dec00104 	addi	sp,sp,4
   20e64:	0022d1c1 	jmpi	22d1c <_Unwind_GetTextRelBase>

00020e68 <_ZL17parse_lsda_headerP15_Unwind_ContextPKhP16lsda_header_info>:
   20e68:	defffb04 	addi	sp,sp,-20
   20e6c:	dcc00315 	stw	r19,12(sp)
   20e70:	dc400115 	stw	r17,4(sp)
   20e74:	dc000015 	stw	r16,0(sp)
   20e78:	dfc00415 	stw	ra,16(sp)
   20e7c:	dc800215 	stw	r18,8(sp)
   20e80:	2027883a 	mov	r19,r4
   20e84:	2821883a 	mov	r16,r5
   20e88:	3023883a 	mov	r17,r6
   20e8c:	20003f26 	beq	r4,zero,20f8c <_ZL17parse_lsda_headerP15_Unwind_ContextPKhP16lsda_header_info+0x124>
   20e90:	0022d040 	call	22d04 <_Unwind_GetRegionStart>
   20e94:	88800015 	stw	r2,0(r17)
   20e98:	84800003 	ldbu	r18,0(r16)
   20e9c:	00c03fc4 	movi	r3,255
   20ea0:	84000044 	addi	r16,r16,1
   20ea4:	90c03726 	beq	r18,r3,20f84 <_ZL17parse_lsda_headerP15_Unwind_ContextPKhP16lsda_header_info+0x11c>
   20ea8:	980b883a 	mov	r5,r19
   20eac:	9009883a 	mov	r4,r18
   20eb0:	0020ddc0 	call	20ddc <_ZL21base_of_encoded_valuehP15_Unwind_Context>
   20eb4:	800d883a 	mov	r6,r16
   20eb8:	89c00104 	addi	r7,r17,4
   20ebc:	100b883a 	mov	r5,r2
   20ec0:	9009883a 	mov	r4,r18
   20ec4:	0020b7c0 	call	20b7c <_ZL28read_encoded_value_with_basehjPKhPj>
   20ec8:	1021883a 	mov	r16,r2
   20ecc:	80c00003 	ldbu	r3,0(r16)
   20ed0:	01003fc4 	movi	r4,255
   20ed4:	80800044 	addi	r2,r16,1
   20ed8:	88c00505 	stb	r3,20(r17)
   20edc:	18c03fcc 	andi	r3,r3,255
   20ee0:	19002c26 	beq	r3,r4,20f94 <_ZL17parse_lsda_headerP15_Unwind_ContextPKhP16lsda_header_info+0x12c>
   20ee4:	100f883a 	mov	r7,r2
   20ee8:	000d883a 	mov	r6,zero
   20eec:	000b883a 	mov	r5,zero
   20ef0:	38c00003 	ldbu	r3,0(r7)
   20ef4:	10800044 	addi	r2,r2,1
   20ef8:	100f883a 	mov	r7,r2
   20efc:	19001fcc 	andi	r4,r3,127
   20f00:	2148983a 	sll	r4,r4,r5
   20f04:	18c03fcc 	andi	r3,r3,255
   20f08:	18c0201c 	xori	r3,r3,128
   20f0c:	18ffe004 	addi	r3,r3,-128
   20f10:	310cb03a 	or	r6,r6,r4
   20f14:	294001c4 	addi	r5,r5,7
   20f18:	183ff516 	blt	r3,zero,20ef0 <_gp+0xfffe3e60>
   20f1c:	118d883a 	add	r6,r2,r6
   20f20:	89800315 	stw	r6,12(r17)
   20f24:	10c00003 	ldbu	r3,0(r2)
   20f28:	000d883a 	mov	r6,zero
   20f2c:	10800044 	addi	r2,r2,1
   20f30:	88c00545 	stb	r3,21(r17)
   20f34:	000b883a 	mov	r5,zero
   20f38:	10c00003 	ldbu	r3,0(r2)
   20f3c:	10800044 	addi	r2,r2,1
   20f40:	19001fcc 	andi	r4,r3,127
   20f44:	2148983a 	sll	r4,r4,r5
   20f48:	18c03fcc 	andi	r3,r3,255
   20f4c:	18c0201c 	xori	r3,r3,128
   20f50:	18ffe004 	addi	r3,r3,-128
   20f54:	310cb03a 	or	r6,r6,r4
   20f58:	294001c4 	addi	r5,r5,7
   20f5c:	183ff616 	blt	r3,zero,20f38 <_gp+0xfffe3ea8>
   20f60:	118d883a 	add	r6,r2,r6
   20f64:	89800415 	stw	r6,16(r17)
   20f68:	dfc00417 	ldw	ra,16(sp)
   20f6c:	dcc00317 	ldw	r19,12(sp)
   20f70:	dc800217 	ldw	r18,8(sp)
   20f74:	dc400117 	ldw	r17,4(sp)
   20f78:	dc000017 	ldw	r16,0(sp)
   20f7c:	dec00504 	addi	sp,sp,20
   20f80:	f800283a 	ret
   20f84:	88800115 	stw	r2,4(r17)
   20f88:	003fd006 	br	20ecc <_gp+0xfffe3e3c>
   20f8c:	0005883a 	mov	r2,zero
   20f90:	003fc006 	br	20e94 <_gp+0xfffe3e04>
   20f94:	88000315 	stw	zero,12(r17)
   20f98:	003fe206 	br	20f24 <_gp+0xfffe3e94>

00020f9c <_ZL16get_adjusted_ptrPKSt9type_infoS1_PPv.constprop.3>:
   20f9c:	28800017 	ldw	r2,0(r5)
   20fa0:	30c00017 	ldw	r3,0(r6)
   20fa4:	defffb04 	addi	sp,sp,-20
   20fa8:	10800217 	ldw	r2,8(r2)
   20fac:	dc400315 	stw	r17,12(sp)
   20fb0:	dc000215 	stw	r16,8(sp)
   20fb4:	d9400115 	stw	r5,4(sp)
   20fb8:	dfc00415 	stw	ra,16(sp)
   20fbc:	2021883a 	mov	r16,r4
   20fc0:	d8c00015 	stw	r3,0(sp)
   20fc4:	2809883a 	mov	r4,r5
   20fc8:	3023883a 	mov	r17,r6
   20fcc:	103ee83a 	callr	r2
   20fd0:	10803fcc 	andi	r2,r2,255
   20fd4:	d9400117 	ldw	r5,4(sp)
   20fd8:	10000326 	beq	r2,zero,20fe8 <_ZL16get_adjusted_ptrPKSt9type_infoS1_PPv.constprop.3+0x4c>
   20fdc:	d8800017 	ldw	r2,0(sp)
   20fe0:	10800017 	ldw	r2,0(r2)
   20fe4:	d8800015 	stw	r2,0(sp)
   20fe8:	80800017 	ldw	r2,0(r16)
   20fec:	01c00044 	movi	r7,1
   20ff0:	d80d883a 	mov	r6,sp
   20ff4:	10800417 	ldw	r2,16(r2)
   20ff8:	8009883a 	mov	r4,r16
   20ffc:	103ee83a 	callr	r2
   21000:	10c03fcc 	andi	r3,r2,255
   21004:	18000226 	beq	r3,zero,21010 <_ZL16get_adjusted_ptrPKSt9type_infoS1_PPv.constprop.3+0x74>
   21008:	d8c00017 	ldw	r3,0(sp)
   2100c:	88c00015 	stw	r3,0(r17)
   21010:	dfc00417 	ldw	ra,16(sp)
   21014:	dc400317 	ldw	r17,12(sp)
   21018:	dc000217 	ldw	r16,8(sp)
   2101c:	dec00504 	addi	sp,sp,20
   21020:	f800283a 	ret

00021024 <_ZL28check_compact_exception_specPKSt9type_infoPvPKhij>:
   21024:	defff604 	addi	sp,sp,-40
   21028:	dc000415 	stw	r16,16(sp)
   2102c:	3821d23a 	srai	r16,r7,8
   21030:	dc800615 	stw	r18,24(sp)
   21034:	dc400515 	stw	r17,20(sp)
   21038:	dfc00915 	stw	ra,36(sp)
   2103c:	dd000815 	stw	r20,32(sp)
   21040:	dcc00715 	stw	r19,28(sp)
   21044:	d9400215 	stw	r5,8(sp)
   21048:	3825883a 	mov	r18,r7
   2104c:	2023883a 	mov	r17,r4
   21050:	8000010e 	bge	r16,zero,21058 <_ZL28check_compact_exception_specPKSt9type_infoPvPKhij+0x34>
   21054:	0421c83a 	sub	r16,zero,r16
   21058:	000b883a 	mov	r5,zero
   2105c:	01000144 	movi	r4,5
   21060:	d9800315 	stw	r6,12(sp)
   21064:	0020ddc0 	call	20ddc <_ZL21base_of_encoded_valuehP15_Unwind_Context>
   21068:	d9800317 	ldw	r6,12(sp)
   2106c:	d9c00104 	addi	r7,sp,4
   21070:	100b883a 	mov	r5,r2
   21074:	01000144 	movi	r4,5
   21078:	0020b7c0 	call	20b7c <_ZL28read_encoded_value_with_basehjPKhPj>
   2107c:	11fffe64 	muli	r7,r2,-7
   21080:	0007883a 	mov	r3,zero
   21084:	11400003 	ldbu	r5,0(r2)
   21088:	110001e4 	muli	r4,r2,7
   2108c:	10800044 	addi	r2,r2,1
   21090:	29801fcc 	andi	r6,r5,127
   21094:	21c9883a 	add	r4,r4,r7
   21098:	3108983a 	sll	r4,r6,r4
   2109c:	29403fcc 	andi	r5,r5,255
   210a0:	2940201c 	xori	r5,r5,128
   210a4:	297fe004 	addi	r5,r5,-128
   210a8:	1906b03a 	or	r3,r3,r4
   210ac:	283ff516 	blt	r5,zero,21084 <_gp+0xfffe3ff4>
   210b0:	10c5883a 	add	r2,r2,r3
   210b4:	11fffe64 	muli	r7,r2,-7
   210b8:	0009883a 	mov	r4,zero
   210bc:	11400003 	ldbu	r5,0(r2)
   210c0:	10c001e4 	muli	r3,r2,7
   210c4:	10800044 	addi	r2,r2,1
   210c8:	29801fcc 	andi	r6,r5,127
   210cc:	19c7883a 	add	r3,r3,r7
   210d0:	30c6983a 	sll	r3,r6,r3
   210d4:	29403fcc 	andi	r5,r5,255
   210d8:	2940201c 	xori	r5,r5,128
   210dc:	297fe004 	addi	r5,r5,-128
   210e0:	20c8b03a 	or	r4,r4,r3
   210e4:	283ff516 	blt	r5,zero,210bc <_gp+0xfffe402c>
   210e8:	80c03fcc 	andi	r3,r16,255
   210ec:	18ffffc4 	addi	r3,r3,-1
   210f0:	10c7883a 	add	r3,r2,r3
   210f4:	210000c4 	addi	r4,r4,3
   210f8:	197ffe64 	muli	r5,r3,-7
   210fc:	2085883a 	add	r2,r4,r2
   21100:	04ffff04 	movi	r19,-4
   21104:	14e6703a 	and	r19,r2,r19
   21108:	0021883a 	mov	r16,zero
   2110c:	18800003 	ldbu	r2,0(r3)
   21110:	190001e4 	muli	r4,r3,7
   21114:	1d000044 	addi	r20,r3,1
   21118:	10c01fcc 	andi	r3,r2,127
   2111c:	2149883a 	add	r4,r4,r5
   21120:	1908983a 	sll	r4,r3,r4
   21124:	10803fcc 	andi	r2,r2,255
   21128:	1080201c 	xori	r2,r2,128
   2112c:	10bfe004 	addi	r2,r2,-128
   21130:	a007883a 	mov	r3,r20
   21134:	8120b03a 	or	r16,r16,r4
   21138:	103ff416 	blt	r2,zero,2110c <_gp+0xfffe407c>
   2113c:	94803fcc 	andi	r18,r18,255
   21140:	80001f26 	beq	r16,zero,211c0 <_ZL28check_compact_exception_specPKSt9type_infoPvPKhij+0x19c>
   21144:	9009883a 	mov	r4,r18
   21148:	0020ad80 	call	20ad8 <_ZL21size_of_encoded_valueh>
   2114c:	81bfffc4 	addi	r6,r16,-1
   21150:	308d383a 	mul	r6,r6,r2
   21154:	d9400a17 	ldw	r5,40(sp)
   21158:	d80f883a 	mov	r7,sp
   2115c:	9009883a 	mov	r4,r18
   21160:	34cd883a 	add	r6,r6,r19
   21164:	0020b7c0 	call	20b7c <_ZL28read_encoded_value_with_basehjPKhPj>
   21168:	d9000017 	ldw	r4,0(sp)
   2116c:	d9800204 	addi	r6,sp,8
   21170:	880b883a 	mov	r5,r17
   21174:	0020f9c0 	call	20f9c <_ZL16get_adjusted_ptrPKSt9type_infoS1_PPv.constprop.3>
   21178:	10c03fcc 	andi	r3,r2,255
   2117c:	1800111e 	bne	r3,zero,211c4 <_ZL28check_compact_exception_specPKSt9type_infoPvPKhij+0x1a0>
   21180:	a17ffe64 	muli	r5,r20,-7
   21184:	a007883a 	mov	r3,r20
   21188:	0021883a 	mov	r16,zero
   2118c:	19000003 	ldbu	r4,0(r3)
   21190:	18c001e4 	muli	r3,r3,7
   21194:	a5000044 	addi	r20,r20,1
   21198:	20801fcc 	andi	r2,r4,127
   2119c:	1947883a 	add	r3,r3,r5
   211a0:	10c4983a 	sll	r2,r2,r3
   211a4:	21003fcc 	andi	r4,r4,255
   211a8:	2100201c 	xori	r4,r4,128
   211ac:	213fe004 	addi	r4,r4,-128
   211b0:	a007883a 	mov	r3,r20
   211b4:	80a0b03a 	or	r16,r16,r2
   211b8:	203ff416 	blt	r4,zero,2118c <_gp+0xfffe40fc>
   211bc:	003fe006 	br	21140 <_gp+0xfffe40b0>
   211c0:	0005883a 	mov	r2,zero
   211c4:	dfc00917 	ldw	ra,36(sp)
   211c8:	dd000817 	ldw	r20,32(sp)
   211cc:	dcc00717 	ldw	r19,28(sp)
   211d0:	dc800617 	ldw	r18,24(sp)
   211d4:	dc400517 	ldw	r17,20(sp)
   211d8:	dc000417 	ldw	r16,16(sp)
   211dc:	dec00a04 	addi	sp,sp,40
   211e0:	f800283a 	ret

000211e4 <_ZL20check_exception_specP16lsda_header_infoPKSt9type_infoPvl>:
   211e4:	defffb04 	addi	sp,sp,-20
   211e8:	dc000115 	stw	r16,4(sp)
   211ec:	24000317 	ldw	r16,12(r4)
   211f0:	01ce303a 	nor	r7,zero,r7
   211f4:	dc800315 	stw	r18,12(sp)
   211f8:	dc400215 	stw	r17,8(sp)
   211fc:	dfc00415 	stw	ra,16(sp)
   21200:	2023883a 	mov	r17,r4
   21204:	2825883a 	mov	r18,r5
   21208:	d9800015 	stw	r6,0(sp)
   2120c:	81e1883a 	add	r16,r16,r7
   21210:	800d883a 	mov	r6,r16
   21214:	000b883a 	mov	r5,zero
   21218:	0009883a 	mov	r4,zero
   2121c:	30800003 	ldbu	r2,0(r6)
   21220:	84000044 	addi	r16,r16,1
   21224:	800d883a 	mov	r6,r16
   21228:	10c01fcc 	andi	r3,r2,127
   2122c:	1906983a 	sll	r3,r3,r4
   21230:	10803fcc 	andi	r2,r2,255
   21234:	1080201c 	xori	r2,r2,128
   21238:	10bfe004 	addi	r2,r2,-128
   2123c:	28cab03a 	or	r5,r5,r3
   21240:	210001c4 	addi	r4,r4,7
   21244:	103ff516 	blt	r2,zero,2121c <_gp+0xfffe418c>
   21248:	28000e26 	beq	r5,zero,21284 <_ZL20check_exception_specP16lsda_header_infoPKSt9type_infoPvl+0xa0>
   2124c:	8809883a 	mov	r4,r17
   21250:	0020d880 	call	20d88 <_ZL15get_ttype_entryP16lsda_header_infom>
   21254:	d80d883a 	mov	r6,sp
   21258:	900b883a 	mov	r5,r18
   2125c:	1009883a 	mov	r4,r2
   21260:	0020f9c0 	call	20f9c <_ZL16get_adjusted_ptrPKSt9type_infoS1_PPv.constprop.3>
   21264:	10c03fcc 	andi	r3,r2,255
   21268:	183fe926 	beq	r3,zero,21210 <_gp+0xfffe4180>
   2126c:	dfc00417 	ldw	ra,16(sp)
   21270:	dc800317 	ldw	r18,12(sp)
   21274:	dc400217 	ldw	r17,8(sp)
   21278:	dc000117 	ldw	r16,4(sp)
   2127c:	dec00504 	addi	sp,sp,20
   21280:	f800283a 	ret
   21284:	0005883a 	mov	r2,zero
   21288:	003ff806 	br	2126c <_gp+0xfffe41dc>

0002128c <__gxx_personality_sj0>:
   2128c:	008000b4 	movhi	r2,2
   21290:	deffdd04 	addi	sp,sp,-140
   21294:	1084a304 	addi	r2,r2,4748
   21298:	d8800e15 	stw	r2,56(sp)
   2129c:	008000f4 	movhi	r2,3
   212a0:	108bc804 	addi	r2,r2,12064
   212a4:	d8800f15 	stw	r2,60(sp)
   212a8:	008000b4 	movhi	r2,2
   212ac:	10861904 	addi	r2,r2,6244
   212b0:	d9001515 	stw	r4,84(sp)
   212b4:	d9000804 	addi	r4,sp,32
   212b8:	d8801115 	stw	r2,68(sp)
   212bc:	dfc02215 	stw	ra,136(sp)
   212c0:	df002115 	stw	fp,132(sp)
   212c4:	dec01015 	stw	sp,64(sp)
   212c8:	dec01215 	stw	sp,72(sp)
   212cc:	d9401915 	stw	r5,100(sp)
   212d0:	d9801615 	stw	r6,88(sp)
   212d4:	d9c01715 	stw	r7,92(sp)
   212d8:	0022c3c0 	call	22c3c <_Unwind_SjLj_Register>
   212dc:	d8c01517 	ldw	r3,84(sp)
   212e0:	d8000715 	stw	zero,28(sp)
   212e4:	d8000615 	stw	zero,24(sp)
   212e8:	00800044 	movi	r2,1
   212ec:	18800926 	beq	r3,r2,21314 <__gxx_personality_sj0+0x88>
   212f0:	01c000c4 	movi	r7,3
   212f4:	d9c01515 	stw	r7,84(sp)
   212f8:	d9000804 	addi	r4,sp,32
   212fc:	0022c540 	call	22c54 <_Unwind_SjLj_Unregister>
   21300:	d8801517 	ldw	r2,84(sp)
   21304:	dfc02217 	ldw	ra,136(sp)
   21308:	df002117 	ldw	fp,132(sp)
   2130c:	dec02304 	addi	sp,sp,140
   21310:	f800283a 	ret
   21314:	d9001617 	ldw	r4,88(sp)
   21318:	00af3574 	movhi	r2,48341
   2131c:	d9c01717 	ldw	r7,92(sp)
   21320:	10b54004 	addi	r2,r2,-11008
   21324:	00ee2cb4 	movhi	r3,47282
   21328:	2085883a 	add	r2,r4,r2
   2132c:	18eaaf04 	addi	r3,r3,-21828
   21330:	d8801b15 	stw	r2,108(sp)
   21334:	38c7883a 	add	r3,r7,r3
   21338:	1105803a 	cmpltu	r2,r2,r4
   2133c:	10c7883a 	add	r3,r2,r3
   21340:	d8c01c15 	stw	r3,112(sp)
   21344:	d8c01917 	ldw	r3,100(sp)
   21348:	00800184 	movi	r2,6
   2134c:	18805426 	beq	r3,r2,214a0 <__gxx_personality_sj0+0x214>
   21350:	d9002417 	ldw	r4,144(sp)
   21354:	00bfffc4 	movi	r2,-1
   21358:	d8800915 	stw	r2,36(sp)
   2135c:	0022cf80 	call	22cf8 <_Unwind_GetLanguageSpecificData>
   21360:	d8801a15 	stw	r2,104(sp)
   21364:	1000c926 	beq	r2,zero,2168c <__gxx_personality_sj0+0x400>
   21368:	d9002417 	ldw	r4,144(sp)
   2136c:	d80d883a 	mov	r6,sp
   21370:	100b883a 	mov	r5,r2
   21374:	0020e680 	call	20e68 <_ZL17parse_lsda_headerP15_Unwind_ContextPKhP16lsda_header_info>
   21378:	d9402417 	ldw	r5,144(sp)
   2137c:	d9000503 	ldbu	r4,20(sp)
   21380:	d8801515 	stw	r2,84(sp)
   21384:	0020ddc0 	call	20ddc <_ZL21base_of_encoded_valuehP15_Unwind_Context>
   21388:	d9002417 	ldw	r4,144(sp)
   2138c:	d9400604 	addi	r5,sp,24
   21390:	d8800215 	stw	r2,8(sp)
   21394:	0022cc80 	call	22cc8 <_Unwind_GetIPInfo>
   21398:	d8c00617 	ldw	r3,24(sp)
   2139c:	18006126 	beq	r3,zero,21524 <__gxx_personality_sj0+0x298>
   213a0:	1000ba16 	blt	r2,zero,2168c <__gxx_personality_sj0+0x400>
   213a4:	10002f1e 	bne	r2,zero,21464 <__gxx_personality_sj0+0x1d8>
   213a8:	d8001515 	stw	zero,84(sp)
   213ac:	d8001f15 	stw	zero,124(sp)
   213b0:	d8001815 	stw	zero,96(sp)
   213b4:	00c00044 	movi	r3,1
   213b8:	d9001917 	ldw	r4,100(sp)
   213bc:	2080004c 	andi	r2,r4,1
   213c0:	1000b51e 	bne	r2,zero,21698 <__gxx_personality_sj0+0x40c>
   213c4:	d9001917 	ldw	r4,100(sp)
   213c8:	2080020c 	andi	r2,r4,8
   213cc:	1000b71e 	bne	r2,zero,216ac <__gxx_personality_sj0+0x420>
   213d0:	d9c01c17 	ldw	r7,112(sp)
   213d4:	3800b826 	beq	r7,zero,216b8 <__gxx_personality_sj0+0x42c>
   213d8:	00800044 	movi	r2,1
   213dc:	1880b526 	beq	r3,r2,216b4 <__gxx_personality_sj0+0x428>
   213e0:	d9c01517 	ldw	r7,84(sp)
   213e4:	3800f516 	blt	r7,zero,217bc <__gxx_personality_sj0+0x530>
   213e8:	d9002417 	ldw	r4,144(sp)
   213ec:	d9802317 	ldw	r6,140(sp)
   213f0:	00bfffc4 	movi	r2,-1
   213f4:	000b883a 	mov	r5,zero
   213f8:	d8800915 	stw	r2,36(sp)
   213fc:	0022c9c0 	call	22c9c <_Unwind_SetGR>
   21400:	d9801517 	ldw	r6,84(sp)
   21404:	d9002417 	ldw	r4,144(sp)
   21408:	01400044 	movi	r5,1
   2140c:	0022c9c0 	call	22c9c <_Unwind_SetGR>
   21410:	d9002417 	ldw	r4,144(sp)
   21414:	d9401f17 	ldw	r5,124(sp)
   21418:	0022ce80 	call	22ce8 <_Unwind_SetIP>
   2141c:	010001c4 	movi	r4,7
   21420:	d9001515 	stw	r4,84(sp)
   21424:	003fb406 	br	212f8 <_gp+0xfffe4268>
   21428:	000f883a 	mov	r7,zero
   2142c:	000d883a 	mov	r6,zero
   21430:	19000003 	ldbu	r4,0(r3)
   21434:	18c00044 	addi	r3,r3,1
   21438:	d8c01515 	stw	r3,84(sp)
   2143c:	21401fcc 	andi	r5,r4,127
   21440:	298a983a 	sll	r5,r5,r6
   21444:	21003fcc 	andi	r4,r4,255
   21448:	2100201c 	xori	r4,r4,128
   2144c:	213fe004 	addi	r4,r4,-128
   21450:	394eb03a 	or	r7,r7,r5
   21454:	318001c4 	addi	r6,r6,7
   21458:	203ff516 	blt	r4,zero,21430 <_gp+0xfffe43a0>
   2145c:	10bfffc4 	addi	r2,r2,-1
   21460:	10003226 	beq	r2,zero,2152c <__gxx_personality_sj0+0x2a0>
   21464:	d9c01517 	ldw	r7,84(sp)
   21468:	0011883a 	mov	r8,zero
   2146c:	000d883a 	mov	r6,zero
   21470:	39000003 	ldbu	r4,0(r7)
   21474:	38c00044 	addi	r3,r7,1
   21478:	180f883a 	mov	r7,r3
   2147c:	21401fcc 	andi	r5,r4,127
   21480:	298a983a 	sll	r5,r5,r6
   21484:	21003fcc 	andi	r4,r4,255
   21488:	2100201c 	xori	r4,r4,128
   2148c:	213fe004 	addi	r4,r4,-128
   21490:	4150b03a 	or	r8,r8,r5
   21494:	318001c4 	addi	r6,r6,7
   21498:	203ff516 	blt	r4,zero,21470 <_gp+0xfffe43e0>
   2149c:	003fe206 	br	21428 <_gp+0xfffe4398>
   214a0:	d9001c17 	ldw	r4,112(sp)
   214a4:	203faa1e 	bne	r4,zero,21350 <_gp+0xfffe42c0>
   214a8:	d9c01517 	ldw	r7,84(sp)
   214ac:	d8801b17 	ldw	r2,108(sp)
   214b0:	38bfa736 	bltu	r7,r2,21350 <_gp+0xfffe42c0>
   214b4:	d8c02317 	ldw	r3,140(sp)
   214b8:	18fffe17 	ldw	r3,-8(r3)
   214bc:	d8c01f15 	stw	r3,124(sp)
   214c0:	18008226 	beq	r3,zero,216cc <__gxx_personality_sj0+0x440>
   214c4:	d9002317 	ldw	r4,140(sp)
   214c8:	d9c02317 	ldw	r7,140(sp)
   214cc:	213ffb17 	ldw	r4,-20(r4)
   214d0:	39fffd17 	ldw	r7,-12(r7)
   214d4:	d9001515 	stw	r4,84(sp)
   214d8:	d9c01a15 	stw	r7,104(sp)
   214dc:	d8801517 	ldw	r2,84(sp)
   214e0:	103fc10e 	bge	r2,zero,213e8 <_gp+0xfffe4358>
   214e4:	d9002417 	ldw	r4,144(sp)
   214e8:	d9401a17 	ldw	r5,104(sp)
   214ec:	d80d883a 	mov	r6,sp
   214f0:	00bfffc4 	movi	r2,-1
   214f4:	d8800915 	stw	r2,36(sp)
   214f8:	0020e680 	call	20e68 <_ZL17parse_lsda_headerP15_Unwind_ContextPKhP16lsda_header_info>
   214fc:	d9402417 	ldw	r5,144(sp)
   21500:	d9000503 	ldbu	r4,20(sp)
   21504:	0020ddc0 	call	20ddc <_ZL21base_of_encoded_valuehP15_Unwind_Context>
   21508:	d9000503 	ldbu	r4,20(sp)
   2150c:	d9402417 	ldw	r5,144(sp)
   21510:	d8800215 	stw	r2,8(sp)
   21514:	0020ddc0 	call	20ddc <_ZL21base_of_encoded_valuehP15_Unwind_Context>
   21518:	d8c02317 	ldw	r3,140(sp)
   2151c:	18bffe15 	stw	r2,-8(r3)
   21520:	003fb106 	br	213e8 <_gp+0xfffe4358>
   21524:	10bfffc4 	addi	r2,r2,-1
   21528:	003f9d06 	br	213a0 <_gp+0xfffe4310>
   2152c:	42000044 	addi	r8,r8,1
   21530:	da001f15 	stw	r8,124(sp)
   21534:	38005326 	beq	r7,zero,21684 <__gxx_personality_sj0+0x3f8>
   21538:	d8800417 	ldw	r2,16(sp)
   2153c:	39ffffc4 	addi	r7,r7,-1
   21540:	11c5883a 	add	r2,r2,r7
   21544:	d8801815 	stw	r2,96(sp)
   21548:	40005026 	beq	r8,zero,2168c <__gxx_personality_sj0+0x400>
   2154c:	10007426 	beq	r2,zero,21720 <__gxx_personality_sj0+0x494>
   21550:	d8801917 	ldw	r2,100(sp)
   21554:	1080020c 	andi	r2,r2,8
   21558:	d8802015 	stw	r2,128(sp)
   2155c:	1000a21e 	bne	r2,zero,217e8 <__gxx_personality_sj0+0x55c>
   21560:	d8c01c17 	ldw	r3,112(sp)
   21564:	1800b026 	beq	r3,zero,21828 <__gxx_personality_sj0+0x59c>
   21568:	01c000f4 	movhi	r7,3
   2156c:	39d42c04 	addi	r7,r7,20656
   21570:	d9c01e15 	stw	r7,120(sp)
   21574:	d8001d05 	stb	zero,116(sp)
   21578:	d8c01817 	ldw	r3,96(sp)
   2157c:	d8001515 	stw	zero,84(sp)
   21580:	0009883a 	mov	r4,zero
   21584:	19400003 	ldbu	r5,0(r3)
   21588:	18800044 	addi	r2,r3,1
   2158c:	d9c01517 	ldw	r7,84(sp)
   21590:	28c01fcc 	andi	r3,r5,127
   21594:	1906983a 	sll	r3,r3,r4
   21598:	29803fcc 	andi	r6,r5,255
   2159c:	3180201c 	xori	r6,r6,128
   215a0:	38ceb03a 	or	r7,r7,r3
   215a4:	d8801715 	stw	r2,92(sp)
   215a8:	31bfe004 	addi	r6,r6,-128
   215ac:	d9c01515 	stw	r7,84(sp)
   215b0:	210001c4 	addi	r4,r4,7
   215b4:	1007883a 	mov	r3,r2
   215b8:	303ff216 	blt	r6,zero,21584 <_gp+0xfffe44f4>
   215bc:	00c007c4 	movi	r3,31
   215c0:	19000836 	bltu	r3,r4,215e4 <__gxx_personality_sj0+0x358>
   215c4:	2940100c 	andi	r5,r5,64
   215c8:	28000626 	beq	r5,zero,215e4 <__gxx_personality_sj0+0x358>
   215cc:	01c00044 	movi	r7,1
   215d0:	3908983a 	sll	r4,r7,r4
   215d4:	d8c01517 	ldw	r3,84(sp)
   215d8:	0109c83a 	sub	r4,zero,r4
   215dc:	1906b03a 	or	r3,r3,r4
   215e0:	d8c01515 	stw	r3,84(sp)
   215e4:	d8001615 	stw	zero,88(sp)
   215e8:	0009883a 	mov	r4,zero
   215ec:	11400003 	ldbu	r5,0(r2)
   215f0:	d9c01617 	ldw	r7,88(sp)
   215f4:	10800044 	addi	r2,r2,1
   215f8:	28c01fcc 	andi	r3,r5,127
   215fc:	1906983a 	sll	r3,r3,r4
   21600:	29803fcc 	andi	r6,r5,255
   21604:	3180201c 	xori	r6,r6,128
   21608:	38ceb03a 	or	r7,r7,r3
   2160c:	31bfe004 	addi	r6,r6,-128
   21610:	d9c01615 	stw	r7,88(sp)
   21614:	210001c4 	addi	r4,r4,7
   21618:	303ff416 	blt	r6,zero,215ec <_gp+0xfffe455c>
   2161c:	008007c4 	movi	r2,31
   21620:	11000736 	bltu	r2,r4,21640 <__gxx_personality_sj0+0x3b4>
   21624:	2940100c 	andi	r5,r5,64
   21628:	28000526 	beq	r5,zero,21640 <__gxx_personality_sj0+0x3b4>
   2162c:	00c00044 	movi	r3,1
   21630:	1908983a 	sll	r4,r3,r4
   21634:	0109c83a 	sub	r4,zero,r4
   21638:	390eb03a 	or	r7,r7,r4
   2163c:	d9c01615 	stw	r7,88(sp)
   21640:	d9001517 	ldw	r4,84(sp)
   21644:	20003c26 	beq	r4,zero,21738 <__gxx_personality_sj0+0x4ac>
   21648:	01003e0e 	bge	zero,r4,21744 <__gxx_personality_sj0+0x4b8>
   2164c:	01ffffc4 	movi	r7,-1
   21650:	200b883a 	mov	r5,r4
   21654:	d809883a 	mov	r4,sp
   21658:	d9c00915 	stw	r7,36(sp)
   2165c:	0020d880 	call	20d88 <_ZL15get_ttype_entryP16lsda_header_infom>
   21660:	10005f26 	beq	r2,zero,217e0 <__gxx_personality_sj0+0x554>
   21664:	d8c01e17 	ldw	r3,120(sp)
   21668:	1800571e 	bne	r3,zero,217c8 <__gxx_personality_sj0+0x53c>
   2166c:	d9001617 	ldw	r4,88(sp)
   21670:	20002926 	beq	r4,zero,21718 <__gxx_personality_sj0+0x48c>
   21674:	d9c01717 	ldw	r7,92(sp)
   21678:	390f883a 	add	r7,r7,r4
   2167c:	d9c01815 	stw	r7,96(sp)
   21680:	003fbd06 	br	21578 <_gp+0xfffe44e8>
   21684:	d8c01f17 	ldw	r3,124(sp)
   21688:	1800251e 	bne	r3,zero,21720 <__gxx_personality_sj0+0x494>
   2168c:	01000204 	movi	r4,8
   21690:	d9001515 	stw	r4,84(sp)
   21694:	003f1806 	br	212f8 <_gp+0xfffe4268>
   21698:	d8801c17 	ldw	r2,112(sp)
   2169c:	10000d26 	beq	r2,zero,216d4 <__gxx_personality_sj0+0x448>
   216a0:	00800184 	movi	r2,6
   216a4:	d8801515 	stw	r2,84(sp)
   216a8:	003f1306 	br	212f8 <_gp+0xfffe4268>
   216ac:	00800044 	movi	r2,1
   216b0:	18bf4d1e 	bne	r3,r2,213e8 <_gp+0xfffe4358>
   216b4:	0021d0c0 	call	21d0c <_ZSt9terminatev>
   216b8:	d9001b17 	ldw	r4,108(sp)
   216bc:	00800044 	movi	r2,1
   216c0:	113f4536 	bltu	r2,r4,213d8 <_gp+0xfffe4348>
   216c4:	00800044 	movi	r2,1
   216c8:	18bf841e 	bne	r3,r2,214dc <_gp+0xfffe444c>
   216cc:	d9002317 	ldw	r4,140(sp)
   216d0:	00224c80 	call	224c8 <__cxa_call_terminate>
   216d4:	d8c01b17 	ldw	r3,108(sp)
   216d8:	00800044 	movi	r2,1
   216dc:	10fff036 	bltu	r2,r3,216a0 <_gp+0xfffe4610>
   216e0:	d9002317 	ldw	r4,140(sp)
   216e4:	d8801817 	ldw	r2,96(sp)
   216e8:	d9c01517 	ldw	r7,84(sp)
   216ec:	d8c01a17 	ldw	r3,104(sp)
   216f0:	20bffc15 	stw	r2,-16(r4)
   216f4:	d8800717 	ldw	r2,28(sp)
   216f8:	21fffb15 	stw	r7,-20(r4)
   216fc:	d9c01f17 	ldw	r7,124(sp)
   21700:	20bfff15 	stw	r2,-4(r4)
   21704:	00800184 	movi	r2,6
   21708:	20fffd15 	stw	r3,-12(r4)
   2170c:	21fffe15 	stw	r7,-8(r4)
   21710:	d8801515 	stw	r2,84(sp)
   21714:	003ef806 	br	212f8 <_gp+0xfffe4268>
   21718:	d8801d03 	ldbu	r2,116(sp)
   2171c:	103fdb26 	beq	r2,zero,2168c <_gp+0xfffe45fc>
   21720:	d8c01917 	ldw	r3,100(sp)
   21724:	1880004c 	andi	r2,r3,1
   21728:	103fd81e 	bne	r2,zero,2168c <_gp+0xfffe45fc>
   2172c:	d8001515 	stw	zero,84(sp)
   21730:	00c00084 	movi	r3,2
   21734:	003f2306 	br	213c4 <_gp+0xfffe4334>
   21738:	00c00044 	movi	r3,1
   2173c:	d8c01d05 	stb	r3,116(sp)
   21740:	003fca06 	br	2166c <_gp+0xfffe45dc>
   21744:	d9001e17 	ldw	r4,120(sp)
   21748:	20000426 	beq	r4,zero,2175c <__gxx_personality_sj0+0x4d0>
   2174c:	d9c02017 	ldw	r7,128(sp)
   21750:	3800021e 	bne	r7,zero,2175c <__gxx_personality_sj0+0x4d0>
   21754:	d8801c17 	ldw	r2,112(sp)
   21758:	10002726 	beq	r2,zero,217f8 <__gxx_personality_sj0+0x56c>
   2175c:	d8801517 	ldw	r2,84(sp)
   21760:	000d883a 	mov	r6,zero
   21764:	000b883a 	mov	r5,zero
   21768:	0088303a 	nor	r4,zero,r2
   2176c:	d8800317 	ldw	r2,12(sp)
   21770:	1109883a 	add	r4,r2,r4
   21774:	20800003 	ldbu	r2,0(r4)
   21778:	21000044 	addi	r4,r4,1
   2177c:	10c01fcc 	andi	r3,r2,127
   21780:	1946983a 	sll	r3,r3,r5
   21784:	10803fcc 	andi	r2,r2,255
   21788:	1080201c 	xori	r2,r2,128
   2178c:	10bfe004 	addi	r2,r2,-128
   21790:	30ccb03a 	or	r6,r6,r3
   21794:	294001c4 	addi	r5,r5,7
   21798:	103ff616 	blt	r2,zero,21774 <_gp+0xfffe46e4>
   2179c:	3005003a 	cmpeq	r2,r6,zero
   217a0:	10803fcc 	andi	r2,r2,255
   217a4:	103fb126 	beq	r2,zero,2166c <_gp+0xfffe45dc>
   217a8:	d9c01917 	ldw	r7,100(sp)
   217ac:	3880004c 	andi	r2,r7,1
   217b0:	103fb91e 	bne	r2,zero,21698 <_gp+0xfffe4608>
   217b4:	d8802017 	ldw	r2,128(sp)
   217b8:	10002d26 	beq	r2,zero,21870 <__gxx_personality_sj0+0x5e4>
   217bc:	00800044 	movi	r2,1
   217c0:	d8800915 	stw	r2,36(sp)
   217c4:	0021d340 	call	21d34 <_ZSt10unexpectedv>
   217c8:	d9800704 	addi	r6,sp,28
   217cc:	180b883a 	mov	r5,r3
   217d0:	1009883a 	mov	r4,r2
   217d4:	0020f9c0 	call	20f9c <_ZL16get_adjusted_ptrPKSt9type_infoS1_PPv.constprop.3>
   217d8:	10803fcc 	andi	r2,r2,255
   217dc:	103fa326 	beq	r2,zero,2166c <_gp+0xfffe45dc>
   217e0:	00c000c4 	movi	r3,3
   217e4:	003ef406 	br	213b8 <_gp+0xfffe4328>
   217e8:	010000f4 	movhi	r4,3
   217ec:	21142a04 	addi	r4,r4,20648
   217f0:	d9001e15 	stw	r4,120(sp)
   217f4:	003f5f06 	br	21574 <_gp+0xfffe44e4>
   217f8:	d9001b17 	ldw	r4,108(sp)
   217fc:	00c00044 	movi	r3,1
   21800:	193fd636 	bltu	r3,r4,2175c <_gp+0xfffe46cc>
   21804:	01ffffc4 	movi	r7,-1
   21808:	d9c00915 	stw	r7,36(sp)
   2180c:	d9800717 	ldw	r6,28(sp)
   21810:	d9c01517 	ldw	r7,84(sp)
   21814:	d9401e17 	ldw	r5,120(sp)
   21818:	d809883a 	mov	r4,sp
   2181c:	00211e40 	call	211e4 <_ZL20check_exception_specP16lsda_header_infoPKSt9type_infoPvl>
   21820:	1080005c 	xori	r2,r2,1
   21824:	003fde06 	br	217a0 <_gp+0xfffe4710>
   21828:	d9001b17 	ldw	r4,108(sp)
   2182c:	00800044 	movi	r2,1
   21830:	113f4d36 	bltu	r2,r4,21568 <_gp+0xfffe44d8>
   21834:	d9c02317 	ldw	r7,140(sp)
   21838:	38800017 	ldw	r2,0(r7)
   2183c:	1080004c 	andi	r2,r2,1
   21840:	1000061e 	bne	r2,zero,2185c <__gxx_personality_sj0+0x5d0>
   21844:	d8c02317 	ldw	r3,140(sp)
   21848:	18800504 	addi	r2,r3,20
   2184c:	d8800715 	stw	r2,28(sp)
   21850:	10bff017 	ldw	r2,-64(r2)
   21854:	d8801e15 	stw	r2,120(sp)
   21858:	003f4606 	br	21574 <_gp+0xfffe44e4>
   2185c:	38bff517 	ldw	r2,-44(r7)
   21860:	003ffa06 	br	2184c <_gp+0xfffe47bc>
   21864:	d9000a17 	ldw	r4,40(sp)
   21868:	0021ac40 	call	21ac4 <__cxa_begin_catch>
   2186c:	003f9106 	br	216b4 <_gp+0xfffe4624>
   21870:	d9c01c17 	ldw	r7,112(sp)
   21874:	383eda1e 	bne	r7,zero,213e0 <_gp+0xfffe4350>
   21878:	d8c01b17 	ldw	r3,108(sp)
   2187c:	00800044 	movi	r2,1
   21880:	10fed736 	bltu	r2,r3,213e0 <_gp+0xfffe4350>
   21884:	00c000c4 	movi	r3,3
   21888:	003f8e06 	br	216c4 <_gp+0xfffe4634>

0002188c <__cxa_call_unexpected>:
   2188c:	008000b4 	movhi	r2,2
   21890:	deffe604 	addi	sp,sp,-104
   21894:	1084a304 	addi	r2,r2,4748
   21898:	d8800d15 	stw	r2,52(sp)
   2189c:	008000f4 	movhi	r2,3
   218a0:	108bcc04 	addi	r2,r2,12080
   218a4:	d8800e15 	stw	r2,56(sp)
   218a8:	d8800104 	addi	r2,sp,4
   218ac:	d8800f15 	stw	r2,60(sp)
   218b0:	008000b4 	movhi	r2,2
   218b4:	10864604 	addi	r2,r2,6424
   218b8:	d9001415 	stw	r4,80(sp)
   218bc:	d9000704 	addi	r4,sp,28
   218c0:	dfc01915 	stw	ra,100(sp)
   218c4:	d8801015 	stw	r2,64(sp)
   218c8:	df001815 	stw	fp,96(sp)
   218cc:	dec01115 	stw	sp,68(sp)
   218d0:	0022c3c0 	call	22c3c <_Unwind_SjLj_Register>
   218d4:	d9001417 	ldw	r4,80(sp)
   218d8:	0021ac40 	call	21ac4 <__cxa_begin_catch>
   218dc:	d8c01417 	ldw	r3,80(sp)
   218e0:	18bffe17 	ldw	r2,-8(r3)
   218e4:	193ff717 	ldw	r4,-36(r3)
   218e8:	18fffd17 	ldw	r3,-12(r3)
   218ec:	d8800315 	stw	r2,12(sp)
   218f0:	d8c01615 	stw	r3,88(sp)
   218f4:	d8c01417 	ldw	r3,80(sp)
   218f8:	18fffb17 	ldw	r3,-20(r3)
   218fc:	d8c01515 	stw	r3,84(sp)
   21900:	d8c01417 	ldw	r3,80(sp)
   21904:	18fff817 	ldw	r3,-32(r3)
   21908:	d8c01415 	stw	r3,80(sp)
   2190c:	00c00044 	movi	r3,1
   21910:	d8c00815 	stw	r3,32(sp)
   21914:	0021d240 	call	21d24 <_ZN10__cxxabiv112__unexpectedEPFvvE>
   21918:	d8c00917 	ldw	r3,36(sp)
   2191c:	d8800817 	ldw	r2,32(sp)
   21920:	d8c01715 	stw	r3,92(sp)
   21924:	10000a26 	beq	r2,zero,21950 <__cxa_call_unexpected+0xc4>
   21928:	10bfffc4 	addi	r2,r2,-1
   2192c:	10000126 	beq	r2,zero,21934 <__cxa_call_unexpected+0xa8>
   21930:	003b68fa 	trap	3
   21934:	d8000815 	stw	zero,32(sp)
   21938:	0021b780 	call	21b78 <__cxa_end_catch>
   2193c:	0021b780 	call	21b78 <__cxa_end_catch>
   21940:	d9001717 	ldw	r4,92(sp)
   21944:	00bfffc4 	movi	r2,-1
   21948:	d8800815 	stw	r2,32(sp)
   2194c:	0022e380 	call	22e38 <_Unwind_SjLj_Resume>
   21950:	d9001717 	ldw	r4,92(sp)
   21954:	0021ac40 	call	21ac4 <__cxa_begin_catch>
   21958:	0021d940 	call	21d94 <__cxa_get_globals_fast>
   2195c:	10800017 	ldw	r2,0(r2)
   21960:	10c00b17 	ldw	r3,44(r2)
   21964:	18c0004c 	andi	r3,r3,1
   21968:	18001e26 	beq	r3,zero,219e4 <__cxa_call_unexpected+0x158>
   2196c:	10800017 	ldw	r2,0(r2)
   21970:	d8801715 	stw	r2,92(sp)
   21974:	d8801517 	ldw	r2,84(sp)
   21978:	00802b0e 	bge	zero,r2,21a28 <__cxa_call_unexpected+0x19c>
   2197c:	d8c01717 	ldw	r3,92(sp)
   21980:	d8800317 	ldw	r2,12(sp)
   21984:	d9c01517 	ldw	r7,84(sp)
   21988:	193ff017 	ldw	r4,-64(r3)
   2198c:	d9801617 	ldw	r6,88(sp)
   21990:	d8800015 	stw	r2,0(sp)
   21994:	180b883a 	mov	r5,r3
   21998:	00800084 	movi	r2,2
   2199c:	d8800815 	stw	r2,32(sp)
   219a0:	00210240 	call	21024 <_ZL28check_compact_exception_specPKSt9type_infoPvPKhij>
   219a4:	10803fcc 	andi	r2,r2,255
   219a8:	10001e1e 	bne	r2,zero,21a24 <__cxa_call_unexpected+0x198>
   219ac:	d8800317 	ldw	r2,12(sp)
   219b0:	d9c01517 	ldw	r7,84(sp)
   219b4:	d9801617 	ldw	r6,88(sp)
   219b8:	010000f4 	movhi	r4,3
   219bc:	d8800015 	stw	r2,0(sp)
   219c0:	210c2904 	addi	r4,r4,12452
   219c4:	00800084 	movi	r2,2
   219c8:	000b883a 	mov	r5,zero
   219cc:	d8800815 	stw	r2,32(sp)
   219d0:	00210240 	call	21024 <_ZL28check_compact_exception_specPKSt9type_infoPvPKhij>
   219d4:	10803fcc 	andi	r2,r2,255
   219d8:	1000051e 	bne	r2,zero,219f0 <__cxa_call_unexpected+0x164>
   219dc:	d9001417 	ldw	r4,80(sp)
   219e0:	0021c4c0 	call	21c4c <_ZN10__cxxabiv111__terminateEPFvvE>
   219e4:	10801004 	addi	r2,r2,64
   219e8:	d8801715 	stw	r2,92(sp)
   219ec:	003fe106 	br	21974 <_gp+0xfffe48e4>
   219f0:	01000104 	movi	r4,4
   219f4:	0021f0c0 	call	21f0c <__cxa_allocate_exception>
   219f8:	00c000f4 	movhi	r3,3
   219fc:	18cc4404 	addi	r3,r3,12560
   21a00:	018000b4 	movhi	r6,2
   21a04:	014000f4 	movhi	r5,3
   21a08:	10c00015 	stw	r3,0(r2)
   21a0c:	3188cf04 	addi	r6,r6,9020
   21a10:	00c00084 	movi	r3,2
   21a14:	294c2904 	addi	r5,r5,12452
   21a18:	1009883a 	mov	r4,r2
   21a1c:	d8c00815 	stw	r3,32(sp)
   21a20:	00223b40 	call	223b4 <__cxa_throw>
   21a24:	00224440 	call	22444 <__cxa_rethrow>
   21a28:	d9401617 	ldw	r5,88(sp)
   21a2c:	00800084 	movi	r2,2
   21a30:	d9800104 	addi	r6,sp,4
   21a34:	0009883a 	mov	r4,zero
   21a38:	d8800815 	stw	r2,32(sp)
   21a3c:	0020e680 	call	20e68 <_ZL17parse_lsda_headerP15_Unwind_ContextPKhP16lsda_header_info>
   21a40:	d9801717 	ldw	r6,92(sp)
   21a44:	d9c01517 	ldw	r7,84(sp)
   21a48:	d9000104 	addi	r4,sp,4
   21a4c:	317ff017 	ldw	r5,-64(r6)
   21a50:	00211e40 	call	211e4 <_ZL20check_exception_specP16lsda_header_infoPKSt9type_infoPvl>
   21a54:	10803fcc 	andi	r2,r2,255
   21a58:	1000171e 	bne	r2,zero,21ab8 <__cxa_call_unexpected+0x22c>
   21a5c:	d9c01517 	ldw	r7,84(sp)
   21a60:	014000f4 	movhi	r5,3
   21a64:	00800084 	movi	r2,2
   21a68:	294c2904 	addi	r5,r5,12452
   21a6c:	000d883a 	mov	r6,zero
   21a70:	d9000104 	addi	r4,sp,4
   21a74:	d8800815 	stw	r2,32(sp)
   21a78:	00211e40 	call	211e4 <_ZL20check_exception_specP16lsda_header_infoPKSt9type_infoPvl>
   21a7c:	10803fcc 	andi	r2,r2,255
   21a80:	103fd626 	beq	r2,zero,219dc <_gp+0xfffe494c>
   21a84:	01000104 	movi	r4,4
   21a88:	0021f0c0 	call	21f0c <__cxa_allocate_exception>
   21a8c:	00c000f4 	movhi	r3,3
   21a90:	18cc4404 	addi	r3,r3,12560
   21a94:	018000b4 	movhi	r6,2
   21a98:	014000f4 	movhi	r5,3
   21a9c:	10c00015 	stw	r3,0(r2)
   21aa0:	3188cf04 	addi	r6,r6,9020
   21aa4:	00c00084 	movi	r3,2
   21aa8:	294c2904 	addi	r5,r5,12452
   21aac:	1009883a 	mov	r4,r2
   21ab0:	d8c00815 	stw	r3,32(sp)
   21ab4:	00223b40 	call	223b4 <__cxa_throw>
   21ab8:	00224440 	call	22444 <__cxa_rethrow>

00021abc <__cxa_get_exception_ptr>:
   21abc:	20bfff17 	ldw	r2,-4(r4)
   21ac0:	f800283a 	ret

00021ac4 <__cxa_begin_catch>:
   21ac4:	defffe04 	addi	sp,sp,-8
   21ac8:	dc000015 	stw	r16,0(sp)
   21acc:	dfc00115 	stw	ra,4(sp)
   21ad0:	2021883a 	mov	r16,r4
   21ad4:	0021da00 	call	21da0 <__cxa_get_globals>
   21ad8:	81000017 	ldw	r4,0(r16)
   21adc:	80c00117 	ldw	r3,4(r16)
   21ae0:	01af3574 	movhi	r6,48341
   21ae4:	31b54004 	addi	r6,r6,-11008
   21ae8:	016e2cb4 	movhi	r5,47282
   21aec:	296aaf04 	addi	r5,r5,-21828
   21af0:	218d883a 	add	r6,r4,r6
   21af4:	3109803a 	cmpltu	r4,r6,r4
   21af8:	1947883a 	add	r3,r3,r5
   21afc:	20c7883a 	add	r3,r4,r3
   21b00:	817ff504 	addi	r5,r16,-44
   21b04:	11000017 	ldw	r4,0(r2)
   21b08:	18000726 	beq	r3,zero,21b28 <__cxa_begin_catch+0x64>
   21b0c:	2000191e 	bne	r4,zero,21b74 <__cxa_begin_catch+0xb0>
   21b10:	11400015 	stw	r5,0(r2)
   21b14:	0005883a 	mov	r2,zero
   21b18:	dfc00117 	ldw	ra,4(sp)
   21b1c:	dc000017 	ldw	r16,0(sp)
   21b20:	dec00204 	addi	sp,sp,8
   21b24:	f800283a 	ret
   21b28:	01c00044 	movi	r7,1
   21b2c:	39bff736 	bltu	r7,r6,21b0c <_gp+0xfffe4a7c>
   21b30:	80fffa17 	ldw	r3,-24(r16)
   21b34:	18000d16 	blt	r3,zero,21b6c <__cxa_begin_catch+0xa8>
   21b38:	18c00044 	addi	r3,r3,1
   21b3c:	11800117 	ldw	r6,4(r2)
   21b40:	80fffa15 	stw	r3,-24(r16)
   21b44:	30ffffc4 	addi	r3,r6,-1
   21b48:	10c00115 	stw	r3,4(r2)
   21b4c:	21400226 	beq	r4,r5,21b58 <__cxa_begin_catch+0x94>
   21b50:	813ff915 	stw	r4,-28(r16)
   21b54:	11400015 	stw	r5,0(r2)
   21b58:	80bfff17 	ldw	r2,-4(r16)
   21b5c:	dfc00117 	ldw	ra,4(sp)
   21b60:	dc000017 	ldw	r16,0(sp)
   21b64:	dec00204 	addi	sp,sp,8
   21b68:	f800283a 	ret
   21b6c:	38c7c83a 	sub	r3,r7,r3
   21b70:	003ff206 	br	21b3c <_gp+0xfffe4aac>
   21b74:	0021d0c0 	call	21d0c <_ZSt9terminatev>

00021b78 <__cxa_end_catch>:
   21b78:	deffff04 	addi	sp,sp,-4
   21b7c:	dfc00015 	stw	ra,0(sp)
   21b80:	0021d940 	call	21d94 <__cxa_get_globals_fast>
   21b84:	11000017 	ldw	r4,0(r2)
   21b88:	20001426 	beq	r4,zero,21bdc <__cxa_end_catch+0x64>
   21b8c:	21400b17 	ldw	r5,44(r4)
   21b90:	01ef3574 	movhi	r7,48341
   21b94:	39f54004 	addi	r7,r7,-11008
   21b98:	29cf883a 	add	r7,r5,r7
   21b9c:	20c00c17 	ldw	r3,48(r4)
   21ba0:	394d803a 	cmpltu	r6,r7,r5
   21ba4:	016e2cb4 	movhi	r5,47282
   21ba8:	296aaf04 	addi	r5,r5,-21828
   21bac:	1947883a 	add	r3,r3,r5
   21bb0:	30c7883a 	add	r3,r6,r3
   21bb4:	18000c1e 	bne	r3,zero,21be8 <__cxa_end_catch+0x70>
   21bb8:	00c00044 	movi	r3,1
   21bbc:	19c00a36 	bltu	r3,r7,21be8 <__cxa_end_catch+0x70>
   21bc0:	20c00517 	ldw	r3,20(r4)
   21bc4:	18000d16 	blt	r3,zero,21bfc <__cxa_end_catch+0x84>
   21bc8:	18ffffc4 	addi	r3,r3,-1
   21bcc:	18001026 	beq	r3,zero,21c10 <__cxa_end_catch+0x98>
   21bd0:	00bfffc4 	movi	r2,-1
   21bd4:	18801426 	beq	r3,r2,21c28 <__cxa_end_catch+0xb0>
   21bd8:	20c00515 	stw	r3,20(r4)
   21bdc:	dfc00017 	ldw	ra,0(sp)
   21be0:	dec00104 	addi	sp,sp,4
   21be4:	f800283a 	ret
   21be8:	21000b04 	addi	r4,r4,44
   21bec:	10000015 	stw	zero,0(r2)
   21bf0:	dfc00017 	ldw	ra,0(sp)
   21bf4:	dec00104 	addi	sp,sp,4
   21bf8:	0022ec81 	jmpi	22ec8 <_Unwind_DeleteException>
   21bfc:	18c00044 	addi	r3,r3,1
   21c00:	183ff51e 	bne	r3,zero,21bd8 <_gp+0xfffe4b48>
   21c04:	21400417 	ldw	r5,16(r4)
   21c08:	11400015 	stw	r5,0(r2)
   21c0c:	003ff206 	br	21bd8 <_gp+0xfffe4b48>
   21c10:	20c00417 	ldw	r3,16(r4)
   21c14:	21000b04 	addi	r4,r4,44
   21c18:	10c00015 	stw	r3,0(r2)
   21c1c:	dfc00017 	ldw	ra,0(sp)
   21c20:	dec00104 	addi	sp,sp,4
   21c24:	0022ec81 	jmpi	22ec8 <_Unwind_DeleteException>
   21c28:	0021d0c0 	call	21d0c <_ZSt9terminatev>

00021c2c <_ZSt18uncaught_exceptionv>:
   21c2c:	deffff04 	addi	sp,sp,-4
   21c30:	dfc00015 	stw	ra,0(sp)
   21c34:	0021da00 	call	21da0 <__cxa_get_globals>
   21c38:	10800117 	ldw	r2,4(r2)
   21c3c:	1004c03a 	cmpne	r2,r2,zero
   21c40:	dfc00017 	ldw	ra,0(sp)
   21c44:	dec00104 	addi	sp,sp,4
   21c48:	f800283a 	ret

00021c4c <_ZN10__cxxabiv111__terminateEPFvvE>:
   21c4c:	008000b4 	movhi	r2,2
   21c50:	deffef04 	addi	sp,sp,-68
   21c54:	1084a304 	addi	r2,r2,4748
   21c58:	d8800615 	stw	r2,24(sp)
   21c5c:	008000f4 	movhi	r2,3
   21c60:	108bd004 	addi	r2,r2,12096
   21c64:	d8800715 	stw	r2,28(sp)
   21c68:	008000b4 	movhi	r2,2
   21c6c:	10872904 	addi	r2,r2,7332
   21c70:	d9000d15 	stw	r4,52(sp)
   21c74:	d809883a 	mov	r4,sp
   21c78:	d8800915 	stw	r2,36(sp)
   21c7c:	dfc01015 	stw	ra,64(sp)
   21c80:	df000f15 	stw	fp,60(sp)
   21c84:	dec00815 	stw	sp,32(sp)
   21c88:	dec00a15 	stw	sp,40(sp)
   21c8c:	0022c3c0 	call	22c3c <_Unwind_SjLj_Register>
   21c90:	00800044 	movi	r2,1
   21c94:	d8800115 	stw	r2,4(sp)
   21c98:	d8800d17 	ldw	r2,52(sp)
   21c9c:	103ee83a 	callr	r2
   21ca0:	0022f540 	call	22f54 <abort>
   21ca4:	d8c00217 	ldw	r3,8(sp)
   21ca8:	d8800117 	ldw	r2,4(sp)
   21cac:	d8c00d15 	stw	r3,52(sp)
   21cb0:	d8c00317 	ldw	r3,12(sp)
   21cb4:	d8c00e15 	stw	r3,56(sp)
   21cb8:	10000b26 	beq	r2,zero,21ce8 <_ZN10__cxxabiv111__terminateEPFvvE+0x9c>
   21cbc:	10bfffc4 	addi	r2,r2,-1
   21cc0:	10000126 	beq	r2,zero,21cc8 <_ZN10__cxxabiv111__terminateEPFvvE+0x7c>
   21cc4:	003b68fa 	trap	3
   21cc8:	d8000115 	stw	zero,4(sp)
   21ccc:	0021b780 	call	21b78 <__cxa_end_catch>
   21cd0:	d8c00e17 	ldw	r3,56(sp)
   21cd4:	00bfffc4 	movi	r2,-1
   21cd8:	18800826 	beq	r3,r2,21cfc <_ZN10__cxxabiv111__terminateEPFvvE+0xb0>
   21cdc:	d9000d17 	ldw	r4,52(sp)
   21ce0:	d8800115 	stw	r2,4(sp)
   21ce4:	0022e380 	call	22e38 <_Unwind_SjLj_Resume>
   21ce8:	d9000d17 	ldw	r4,52(sp)
   21cec:	0021ac40 	call	21ac4 <__cxa_begin_catch>
   21cf0:	00800084 	movi	r2,2
   21cf4:	d8800115 	stw	r2,4(sp)
   21cf8:	0022f540 	call	22f54 <abort>
   21cfc:	d8800e17 	ldw	r2,56(sp)
   21d00:	d9000d17 	ldw	r4,52(sp)
   21d04:	d8800115 	stw	r2,4(sp)
   21d08:	002188c0 	call	2188c <__cxa_call_unexpected>

00021d0c <_ZSt9terminatev>:
   21d0c:	008000f4 	movhi	r2,3
   21d10:	10943004 	addi	r2,r2,20672
   21d14:	11000017 	ldw	r4,0(r2)
   21d18:	deffff04 	addi	sp,sp,-4
   21d1c:	dfc00015 	stw	ra,0(sp)
   21d20:	0021c4c0 	call	21c4c <_ZN10__cxxabiv111__terminateEPFvvE>

00021d24 <_ZN10__cxxabiv112__unexpectedEPFvvE>:
   21d24:	deffff04 	addi	sp,sp,-4
   21d28:	dfc00015 	stw	ra,0(sp)
   21d2c:	203ee83a 	callr	r4
   21d30:	0021d0c0 	call	21d0c <_ZSt9terminatev>

00021d34 <_ZSt10unexpectedv>:
   21d34:	008000f4 	movhi	r2,3
   21d38:	10943104 	addi	r2,r2,20676
   21d3c:	11000017 	ldw	r4,0(r2)
   21d40:	deffff04 	addi	sp,sp,-4
   21d44:	dfc00015 	stw	ra,0(sp)
   21d48:	0021d240 	call	21d24 <_ZN10__cxxabiv112__unexpectedEPFvvE>

00021d4c <_ZSt13set_terminatePFvvE>:
   21d4c:	00c000f4 	movhi	r3,3
   21d50:	18d43004 	addi	r3,r3,20672
   21d54:	18800017 	ldw	r2,0(r3)
   21d58:	19000015 	stw	r4,0(r3)
   21d5c:	f800283a 	ret

00021d60 <_ZSt13get_terminatev>:
   21d60:	008000f4 	movhi	r2,3
   21d64:	10943004 	addi	r2,r2,20672
   21d68:	10800017 	ldw	r2,0(r2)
   21d6c:	f800283a 	ret

00021d70 <_ZSt14set_unexpectedPFvvE>:
   21d70:	00c000f4 	movhi	r3,3
   21d74:	18d43104 	addi	r3,r3,20676
   21d78:	18800017 	ldw	r2,0(r3)
   21d7c:	19000015 	stw	r4,0(r3)
   21d80:	f800283a 	ret

00021d84 <_ZSt14get_unexpectedv>:
   21d84:	008000f4 	movhi	r2,3
   21d88:	10943104 	addi	r2,r2,20676
   21d8c:	10800017 	ldw	r2,0(r2)
   21d90:	f800283a 	ret

00021d94 <__cxa_get_globals_fast>:
   21d94:	008000f4 	movhi	r2,3
   21d98:	109b3c04 	addi	r2,r2,27888
   21d9c:	f800283a 	ret

00021da0 <__cxa_get_globals>:
   21da0:	008000f4 	movhi	r2,3
   21da4:	109b3c04 	addi	r2,r2,27888
   21da8:	f800283a 	ret

00021dac <_ZN12_GLOBAL__N_14pool4freeEPv.constprop.4>:
   21dac:	018000f4 	movhi	r6,3
   21db0:	319b4d04 	addi	r6,r6,27956
   21db4:	31400117 	ldw	r5,4(r6)
   21db8:	223fff04 	addi	r8,r4,-4
   21dbc:	227fff17 	ldw	r9,-4(r4)
   21dc0:	28001326 	beq	r5,zero,21e10 <_ZN12_GLOBAL__N_14pool4freeEPv.constprop.4+0x64>
   21dc4:	424f883a 	add	r7,r8,r9
   21dc8:	29c01426 	beq	r5,r7,21e1c <_ZN12_GLOBAL__N_14pool4freeEPv.constprop.4+0x70>
   21dcc:	28c00117 	ldw	r3,4(r5)
   21dd0:	18001c26 	beq	r3,zero,21e44 <_ZN12_GLOBAL__N_14pool4freeEPv.constprop.4+0x98>
   21dd4:	38c00336 	bltu	r7,r3,21de4 <_ZN12_GLOBAL__N_14pool4freeEPv.constprop.4+0x38>
   21dd8:	00001e06 	br	21e54 <_ZN12_GLOBAL__N_14pool4freeEPv.constprop.4+0xa8>
   21ddc:	3880052e 	bgeu	r7,r2,21df4 <_ZN12_GLOBAL__N_14pool4freeEPv.constprop.4+0x48>
   21de0:	1007883a 	mov	r3,r2
   21de4:	18800117 	ldw	r2,4(r3)
   21de8:	29800104 	addi	r6,r5,4
   21dec:	180b883a 	mov	r5,r3
   21df0:	103ffa1e 	bne	r2,zero,21ddc <_gp+0xfffe4d4c>
   21df4:	19400017 	ldw	r5,0(r3)
   21df8:	194f883a 	add	r7,r3,r5
   21dfc:	41c00e26 	beq	r8,r7,21e38 <_ZN12_GLOBAL__N_14pool4freeEPv.constprop.4+0x8c>
   21e00:	20800015 	stw	r2,0(r4)
   21e04:	30800017 	ldw	r2,0(r6)
   21e08:	12000115 	stw	r8,4(r2)
   21e0c:	f800283a 	ret
   21e10:	20000015 	stw	zero,0(r4)
   21e14:	32000115 	stw	r8,4(r6)
   21e18:	f800283a 	ret
   21e1c:	28c00017 	ldw	r3,0(r5)
   21e20:	28800117 	ldw	r2,4(r5)
   21e24:	1a53883a 	add	r9,r3,r9
   21e28:	227fff15 	stw	r9,-4(r4)
   21e2c:	20800015 	stw	r2,0(r4)
   21e30:	32000115 	stw	r8,4(r6)
   21e34:	f800283a 	ret
   21e38:	494b883a 	add	r5,r9,r5
   21e3c:	19400015 	stw	r5,0(r3)
   21e40:	f800283a 	ret
   21e44:	0005883a 	mov	r2,zero
   21e48:	2807883a 	mov	r3,r5
   21e4c:	31800104 	addi	r6,r6,4
   21e50:	003fe806 	br	21df4 <_gp+0xfffe4d64>
   21e54:	1805883a 	mov	r2,r3
   21e58:	31800104 	addi	r6,r6,4
   21e5c:	2807883a 	mov	r3,r5
   21e60:	003fe406 	br	21df4 <_gp+0xfffe4d64>

00021e64 <_ZN12_GLOBAL__N_14pool8allocateEj.constprop.5>:
   21e64:	20800104 	addi	r2,r4,4
   21e68:	00c001c4 	movi	r3,7
   21e6c:	1880112e 	bgeu	r3,r2,21eb4 <_ZN12_GLOBAL__N_14pool8allocateEj.constprop.5+0x50>
   21e70:	20c9883a 	add	r4,r4,r3
   21e74:	00bfff04 	movi	r2,-4
   21e78:	208a703a 	and	r5,r4,r2
   21e7c:	018000f4 	movhi	r6,3
   21e80:	319b4d04 	addi	r6,r6,27956
   21e84:	30c00117 	ldw	r3,4(r6)
   21e88:	18000826 	beq	r3,zero,21eac <_ZN12_GLOBAL__N_14pool8allocateEj.constprop.5+0x48>
   21e8c:	19000017 	ldw	r4,0(r3)
   21e90:	21400436 	bltu	r4,r5,21ea4 <_ZN12_GLOBAL__N_14pool8allocateEj.constprop.5+0x40>
   21e94:	00001a06 	br	21f00 <_ZN12_GLOBAL__N_14pool8allocateEj.constprop.5+0x9c>
   21e98:	11000017 	ldw	r4,0(r2)
   21e9c:	2140072e 	bgeu	r4,r5,21ebc <_ZN12_GLOBAL__N_14pool8allocateEj.constprop.5+0x58>
   21ea0:	1007883a 	mov	r3,r2
   21ea4:	18800117 	ldw	r2,4(r3)
   21ea8:	103ffb1e 	bne	r2,zero,21e98 <_gp+0xfffe4e08>
   21eac:	0005883a 	mov	r2,zero
   21eb0:	f800283a 	ret
   21eb4:	01400204 	movi	r5,8
   21eb8:	003ff006 	br	21e7c <_gp+0xfffe4dec>
   21ebc:	18c00104 	addi	r3,r3,4
   21ec0:	2149c83a 	sub	r4,r4,r5
   21ec4:	018001c4 	movi	r6,7
   21ec8:	3100092e 	bgeu	r6,r4,21ef0 <_ZN12_GLOBAL__N_14pool8allocateEj.constprop.5+0x8c>
   21ecc:	11c00117 	ldw	r7,4(r2)
   21ed0:	114d883a 	add	r6,r2,r5
   21ed4:	31000015 	stw	r4,0(r6)
   21ed8:	31c00115 	stw	r7,4(r6)
   21edc:	18800017 	ldw	r2,0(r3)
   21ee0:	11400015 	stw	r5,0(r2)
   21ee4:	19800015 	stw	r6,0(r3)
   21ee8:	10800104 	addi	r2,r2,4
   21eec:	f800283a 	ret
   21ef0:	11000117 	ldw	r4,4(r2)
   21ef4:	10800104 	addi	r2,r2,4
   21ef8:	19000015 	stw	r4,0(r3)
   21efc:	f800283a 	ret
   21f00:	1805883a 	mov	r2,r3
   21f04:	30c00104 	addi	r3,r6,4
   21f08:	003fed06 	br	21ec0 <_gp+0xfffe4e30>

00021f0c <__cxa_allocate_exception>:
   21f0c:	defffd04 	addi	sp,sp,-12
   21f10:	dc400115 	stw	r17,4(sp)
   21f14:	24401104 	addi	r17,r4,68
   21f18:	8809883a 	mov	r4,r17
   21f1c:	dc000015 	stw	r16,0(sp)
   21f20:	dfc00215 	stw	ra,8(sp)
   21f24:	0022f6c0 	call	22f6c <malloc>
   21f28:	1021883a 	mov	r16,r2
   21f2c:	10000a26 	beq	r2,zero,21f58 <__cxa_allocate_exception+0x4c>
   21f30:	01801104 	movi	r6,68
   21f34:	000b883a 	mov	r5,zero
   21f38:	8009883a 	mov	r4,r16
   21f3c:	00237a00 	call	237a0 <memset>
   21f40:	80801104 	addi	r2,r16,68
   21f44:	dfc00217 	ldw	ra,8(sp)
   21f48:	dc400117 	ldw	r17,4(sp)
   21f4c:	dc000017 	ldw	r16,0(sp)
   21f50:	dec00304 	addi	sp,sp,12
   21f54:	f800283a 	ret
   21f58:	8809883a 	mov	r4,r17
   21f5c:	0021e640 	call	21e64 <_ZN12_GLOBAL__N_14pool8allocateEj.constprop.5>
   21f60:	1021883a 	mov	r16,r2
   21f64:	103ff21e 	bne	r2,zero,21f30 <_gp+0xfffe4ea0>
   21f68:	0021d0c0 	call	21d0c <_ZSt9terminatev>

00021f6c <__cxa_free_exception>:
   21f6c:	00c000f4 	movhi	r3,3
   21f70:	18db4d04 	addi	r3,r3,27956
   21f74:	18800217 	ldw	r2,8(r3)
   21f78:	213fef04 	addi	r4,r4,-68
   21f7c:	1100042e 	bgeu	r2,r4,21f90 <__cxa_free_exception+0x24>
   21f80:	18c00317 	ldw	r3,12(r3)
   21f84:	10c5883a 	add	r2,r2,r3
   21f88:	2080012e 	bgeu	r4,r2,21f90 <__cxa_free_exception+0x24>
   21f8c:	0021dac1 	jmpi	21dac <_ZN12_GLOBAL__N_14pool4freeEPv.constprop.4>
   21f90:	0022f801 	jmpi	22f80 <free>

00021f94 <__cxa_allocate_dependent_exception>:
   21f94:	defffe04 	addi	sp,sp,-8
   21f98:	01001004 	movi	r4,64
   21f9c:	dc000015 	stw	r16,0(sp)
   21fa0:	dfc00115 	stw	ra,4(sp)
   21fa4:	0022f6c0 	call	22f6c <malloc>
   21fa8:	1021883a 	mov	r16,r2
   21fac:	10000926 	beq	r2,zero,21fd4 <__cxa_allocate_dependent_exception+0x40>
   21fb0:	01801004 	movi	r6,64
   21fb4:	000b883a 	mov	r5,zero
   21fb8:	8009883a 	mov	r4,r16
   21fbc:	00237a00 	call	237a0 <memset>
   21fc0:	8005883a 	mov	r2,r16
   21fc4:	dfc00117 	ldw	ra,4(sp)
   21fc8:	dc000017 	ldw	r16,0(sp)
   21fcc:	dec00204 	addi	sp,sp,8
   21fd0:	f800283a 	ret
   21fd4:	01001004 	movi	r4,64
   21fd8:	0021e640 	call	21e64 <_ZN12_GLOBAL__N_14pool8allocateEj.constprop.5>
   21fdc:	1021883a 	mov	r16,r2
   21fe0:	103ff31e 	bne	r2,zero,21fb0 <_gp+0xfffe4f20>
   21fe4:	0021d0c0 	call	21d0c <_ZSt9terminatev>

00021fe8 <__cxa_free_dependent_exception>:
   21fe8:	014000f4 	movhi	r5,3
   21fec:	295b4d04 	addi	r5,r5,27956
   21ff0:	28c00217 	ldw	r3,8(r5)
   21ff4:	2005883a 	mov	r2,r4
   21ff8:	1900042e 	bgeu	r3,r4,2200c <__cxa_free_dependent_exception+0x24>
   21ffc:	29400317 	ldw	r5,12(r5)
   22000:	1947883a 	add	r3,r3,r5
   22004:	20c0012e 	bgeu	r4,r3,2200c <__cxa_free_dependent_exception+0x24>
   22008:	0021dac1 	jmpi	21dac <_ZN12_GLOBAL__N_14pool4freeEPv.constprop.4>
   2200c:	1009883a 	mov	r4,r2
   22010:	0022f801 	jmpi	22f80 <free>

00022014 <_GLOBAL__sub_I___cxa_allocate_exception>:
   22014:	defffd04 	addi	sp,sp,-12
   22018:	dc400115 	stw	r17,4(sp)
   2201c:	dc000015 	stw	r16,0(sp)
   22020:	04424004 	movi	r17,2304
   22024:	040000f4 	movhi	r16,3
   22028:	841b4d04 	addi	r16,r16,27956
   2202c:	8809883a 	mov	r4,r17
   22030:	dfc00215 	stw	ra,8(sp)
   22034:	84400315 	stw	r17,12(r16)
   22038:	0022f6c0 	call	22f6c <malloc>
   2203c:	80800215 	stw	r2,8(r16)
   22040:	10000826 	beq	r2,zero,22064 <_GLOBAL__sub_I___cxa_allocate_exception+0x50>
   22044:	80800115 	stw	r2,4(r16)
   22048:	14400015 	stw	r17,0(r2)
   2204c:	10000115 	stw	zero,4(r2)
   22050:	dfc00217 	ldw	ra,8(sp)
   22054:	dc400117 	ldw	r17,4(sp)
   22058:	dc000017 	ldw	r16,0(sp)
   2205c:	dec00304 	addi	sp,sp,12
   22060:	f800283a 	ret
   22064:	80000315 	stw	zero,12(r16)
   22068:	80000115 	stw	zero,4(r16)
   2206c:	003ff806 	br	22050 <_gp+0xfffe4fc0>

00022070 <_ZNK10__cxxabiv117__class_type_info11__do_upcastEPKS0_PPv>:
   22070:	20800017 	ldw	r2,0(r4)
   22074:	defffa04 	addi	sp,sp,-24
   22078:	dc000415 	stw	r16,16(sp)
   2207c:	10800617 	ldw	r2,24(r2)
   22080:	3021883a 	mov	r16,r6
   22084:	31800017 	ldw	r6,0(r6)
   22088:	00c00404 	movi	r3,16
   2208c:	d8c00215 	stw	r3,8(sp)
   22090:	dfc00515 	stw	ra,20(sp)
   22094:	d8000015 	stw	zero,0(sp)
   22098:	d8000115 	stw	zero,4(sp)
   2209c:	d8000315 	stw	zero,12(sp)
   220a0:	d80f883a 	mov	r7,sp
   220a4:	103ee83a 	callr	r2
   220a8:	d8800117 	ldw	r2,4(sp)
   220ac:	00c00184 	movi	r3,6
   220b0:	1080018c 	andi	r2,r2,6
   220b4:	10c00526 	beq	r2,r3,220cc <_ZNK10__cxxabiv117__class_type_info11__do_upcastEPKS0_PPv+0x5c>
   220b8:	0005883a 	mov	r2,zero
   220bc:	dfc00517 	ldw	ra,20(sp)
   220c0:	dc000417 	ldw	r16,16(sp)
   220c4:	dec00604 	addi	sp,sp,24
   220c8:	f800283a 	ret
   220cc:	d8c00017 	ldw	r3,0(sp)
   220d0:	00800044 	movi	r2,1
   220d4:	80c00015 	stw	r3,0(r16)
   220d8:	dfc00517 	ldw	ra,20(sp)
   220dc:	dc000417 	ldw	r16,16(sp)
   220e0:	dec00604 	addi	sp,sp,24
   220e4:	f800283a 	ret

000220e8 <_ZNK10__cxxabiv117__class_type_info20__do_find_public_srcEiPKvPKS0_S2_>:
   220e8:	d8800017 	ldw	r2,0(sp)
   220ec:	11800226 	beq	r2,r6,220f8 <_ZNK10__cxxabiv117__class_type_info20__do_find_public_srcEiPKvPKS0_S2_+0x10>
   220f0:	00800044 	movi	r2,1
   220f4:	f800283a 	ret
   220f8:	00800184 	movi	r2,6
   220fc:	f800283a 	ret

00022100 <_ZN10__cxxabiv117__class_type_infoD1Ev>:
   22100:	008000f4 	movhi	r2,3
   22104:	108c0e04 	addi	r2,r2,12344
   22108:	20800015 	stw	r2,0(r4)
   2210c:	00227e41 	jmpi	227e4 <_ZNSt9type_infoD1Ev>

00022110 <_ZN10__cxxabiv117__class_type_infoD0Ev>:
   22110:	defffe04 	addi	sp,sp,-8
   22114:	008000f4 	movhi	r2,3
   22118:	dc000015 	stw	r16,0(sp)
   2211c:	dfc00115 	stw	ra,4(sp)
   22120:	108c0e04 	addi	r2,r2,12344
   22124:	20800015 	stw	r2,0(r4)
   22128:	2021883a 	mov	r16,r4
   2212c:	00227e40 	call	227e4 <_ZNSt9type_infoD1Ev>
   22130:	8009883a 	mov	r4,r16
   22134:	dfc00117 	ldw	ra,4(sp)
   22138:	dc000017 	ldw	r16,0(sp)
   2213c:	dec00204 	addi	sp,sp,8
   22140:	0020ad41 	jmpi	20ad4 <_ZdlPv>

00022144 <_ZNK10__cxxabiv117__class_type_info11__do_upcastEPKS0_PKvRNS0_15__upcast_resultE>:
   22144:	21000117 	ldw	r4,4(r4)
   22148:	29400117 	ldw	r5,4(r5)
   2214c:	defffd04 	addi	sp,sp,-12
   22150:	dc400115 	stw	r17,4(sp)
   22154:	dc000015 	stw	r16,0(sp)
   22158:	dfc00215 	stw	ra,8(sp)
   2215c:	3023883a 	mov	r17,r6
   22160:	3821883a 	mov	r16,r7
   22164:	21400526 	beq	r4,r5,2217c <_ZNK10__cxxabiv117__class_type_info11__do_upcastEPKS0_PKvRNS0_15__upcast_resultE+0x38>
   22168:	20c00007 	ldb	r3,0(r4)
   2216c:	00800a84 	movi	r2,42
   22170:	18800d26 	beq	r3,r2,221a8 <_ZNK10__cxxabiv117__class_type_info11__do_upcastEPKS0_PKvRNS0_15__upcast_resultE+0x64>
   22174:	0023d600 	call	23d60 <strcmp>
   22178:	10000b1e 	bne	r2,zero,221a8 <_ZNK10__cxxabiv117__class_type_info11__do_upcastEPKS0_PKvRNS0_15__upcast_resultE+0x64>
   2217c:	00800204 	movi	r2,8
   22180:	80800315 	stw	r2,12(r16)
   22184:	00800184 	movi	r2,6
   22188:	80800115 	stw	r2,4(r16)
   2218c:	84400015 	stw	r17,0(r16)
   22190:	00800044 	movi	r2,1
   22194:	dfc00217 	ldw	ra,8(sp)
   22198:	dc400117 	ldw	r17,4(sp)
   2219c:	dc000017 	ldw	r16,0(sp)
   221a0:	dec00304 	addi	sp,sp,12
   221a4:	f800283a 	ret
   221a8:	0005883a 	mov	r2,zero
   221ac:	003ff906 	br	22194 <_gp+0xfffe5104>

000221b0 <_ZNK10__cxxabiv117__class_type_info12__do_dyncastEiNS0_10__sub_kindEPKS0_PKvS3_S5_RNS0_16__dyncast_resultE>:
   221b0:	defffa04 	addi	sp,sp,-24
   221b4:	dc800415 	stw	r18,16(sp)
   221b8:	d8800817 	ldw	r2,32(sp)
   221bc:	dc800617 	ldw	r18,24(sp)
   221c0:	dc400315 	stw	r17,12(sp)
   221c4:	dc000215 	stw	r16,8(sp)
   221c8:	dfc00515 	stw	ra,20(sp)
   221cc:	dc400917 	ldw	r17,36(sp)
   221d0:	24000117 	ldw	r16,4(r4)
   221d4:	90801526 	beq	r18,r2,2222c <_ZNK10__cxxabiv117__class_type_info12__do_dyncastEiNS0_10__sub_kindEPKS0_PKvS3_S5_RNS0_16__dyncast_resultE+0x7c>
   221d8:	39400117 	ldw	r5,4(r7)
   221dc:	2c000826 	beq	r5,r16,22200 <_ZNK10__cxxabiv117__class_type_info12__do_dyncastEiNS0_10__sub_kindEPKS0_PKvS3_S5_RNS0_16__dyncast_resultE+0x50>
   221e0:	80c00007 	ldb	r3,0(r16)
   221e4:	00800a84 	movi	r2,42
   221e8:	18800926 	beq	r3,r2,22210 <_ZNK10__cxxabiv117__class_type_info12__do_dyncastEiNS0_10__sub_kindEPKS0_PKvS3_S5_RNS0_16__dyncast_resultE+0x60>
   221ec:	8009883a 	mov	r4,r16
   221f0:	d9800115 	stw	r6,4(sp)
   221f4:	0023d600 	call	23d60 <strcmp>
   221f8:	d9800117 	ldw	r6,4(sp)
   221fc:	1000041e 	bne	r2,zero,22210 <_ZNK10__cxxabiv117__class_type_info12__do_dyncastEiNS0_10__sub_kindEPKS0_PKvS3_S5_RNS0_16__dyncast_resultE+0x60>
   22200:	00800044 	movi	r2,1
   22204:	8c800015 	stw	r18,0(r17)
   22208:	89800115 	stw	r6,4(r17)
   2220c:	88800315 	stw	r2,12(r17)
   22210:	0005883a 	mov	r2,zero
   22214:	dfc00517 	ldw	ra,20(sp)
   22218:	dc800417 	ldw	r18,16(sp)
   2221c:	dc400317 	ldw	r17,12(sp)
   22220:	dc000217 	ldw	r16,8(sp)
   22224:	dec00604 	addi	sp,sp,24
   22228:	f800283a 	ret
   2222c:	d8800717 	ldw	r2,28(sp)
   22230:	11400117 	ldw	r5,4(r2)
   22234:	81400a26 	beq	r16,r5,22260 <_ZNK10__cxxabiv117__class_type_info12__do_dyncastEiNS0_10__sub_kindEPKS0_PKvS3_S5_RNS0_16__dyncast_resultE+0xb0>
   22238:	80c00007 	ldb	r3,0(r16)
   2223c:	00800a84 	movi	r2,42
   22240:	18800c26 	beq	r3,r2,22274 <_ZNK10__cxxabiv117__class_type_info12__do_dyncastEiNS0_10__sub_kindEPKS0_PKvS3_S5_RNS0_16__dyncast_resultE+0xc4>
   22244:	8009883a 	mov	r4,r16
   22248:	d9800115 	stw	r6,4(sp)
   2224c:	d9c00015 	stw	r7,0(sp)
   22250:	0023d600 	call	23d60 <strcmp>
   22254:	d9800117 	ldw	r6,4(sp)
   22258:	d9c00017 	ldw	r7,0(sp)
   2225c:	1000021e 	bne	r2,zero,22268 <_ZNK10__cxxabiv117__class_type_info12__do_dyncastEiNS0_10__sub_kindEPKS0_PKvS3_S5_RNS0_16__dyncast_resultE+0xb8>
   22260:	89800215 	stw	r6,8(r17)
   22264:	003fea06 	br	22210 <_gp+0xfffe5180>
   22268:	39400117 	ldw	r5,4(r7)
   2226c:	817fdf1e 	bne	r16,r5,221ec <_gp+0xfffe515c>
   22270:	003fe306 	br	22200 <_gp+0xfffe5170>
   22274:	38800117 	ldw	r2,4(r7)
   22278:	80bfe51e 	bne	r16,r2,22210 <_gp+0xfffe5180>
   2227c:	003fe006 	br	22200 <_gp+0xfffe5170>

00022280 <_ZNK10__cxxabiv117__class_type_info10__do_catchEPKSt9type_infoPPvj>:
   22280:	20800117 	ldw	r2,4(r4)
   22284:	28c00117 	ldw	r3,4(r5)
   22288:	10c02926 	beq	r2,r3,22330 <_ZNK10__cxxabiv117__class_type_info10__do_catchEPKSt9type_infoPPvj+0xb0>
   2228c:	defffb04 	addi	sp,sp,-20
   22290:	dcc00315 	stw	r19,12(sp)
   22294:	dc800215 	stw	r18,8(sp)
   22298:	dc400115 	stw	r17,4(sp)
   2229c:	dc000015 	stw	r16,0(sp)
   222a0:	dfc00415 	stw	ra,16(sp)
   222a4:	2821883a 	mov	r16,r5
   222a8:	11400007 	ldb	r5,0(r2)
   222ac:	2025883a 	mov	r18,r4
   222b0:	01000a84 	movi	r4,42
   222b4:	3823883a 	mov	r17,r7
   222b8:	3027883a 	mov	r19,r6
   222bc:	29000626 	beq	r5,r4,222d8 <_ZNK10__cxxabiv117__class_type_info10__do_catchEPKSt9type_infoPPvj+0x58>
   222c0:	180b883a 	mov	r5,r3
   222c4:	1009883a 	mov	r4,r2
   222c8:	0023d600 	call	23d60 <strcmp>
   222cc:	1000021e 	bne	r2,zero,222d8 <_ZNK10__cxxabiv117__class_type_info10__do_catchEPKSt9type_infoPPvj+0x58>
   222d0:	00800044 	movi	r2,1
   222d4:	00000306 	br	222e4 <_ZNK10__cxxabiv117__class_type_info10__do_catchEPKSt9type_infoPPvj+0x64>
   222d8:	008000c4 	movi	r2,3
   222dc:	1440082e 	bgeu	r2,r17,22300 <_ZNK10__cxxabiv117__class_type_info10__do_catchEPKSt9type_infoPPvj+0x80>
   222e0:	0005883a 	mov	r2,zero
   222e4:	dfc00417 	ldw	ra,16(sp)
   222e8:	dcc00317 	ldw	r19,12(sp)
   222ec:	dc800217 	ldw	r18,8(sp)
   222f0:	dc400117 	ldw	r17,4(sp)
   222f4:	dc000017 	ldw	r16,0(sp)
   222f8:	dec00504 	addi	sp,sp,20
   222fc:	f800283a 	ret
   22300:	80800017 	ldw	r2,0(r16)
   22304:	980d883a 	mov	r6,r19
   22308:	900b883a 	mov	r5,r18
   2230c:	10800517 	ldw	r2,20(r2)
   22310:	8009883a 	mov	r4,r16
   22314:	dfc00417 	ldw	ra,16(sp)
   22318:	dcc00317 	ldw	r19,12(sp)
   2231c:	dc800217 	ldw	r18,8(sp)
   22320:	dc400117 	ldw	r17,4(sp)
   22324:	dc000017 	ldw	r16,0(sp)
   22328:	dec00504 	addi	sp,sp,20
   2232c:	1000683a 	jmp	r2
   22330:	00800044 	movi	r2,1
   22334:	f800283a 	ret

00022338 <_ZNSt9exceptionD1Ev>:
   22338:	f800283a 	ret

0002233c <_ZNSt13bad_exceptionD1Ev>:
   2233c:	f800283a 	ret

00022340 <_ZNKSt9exception4whatEv>:
   22340:	008000f4 	movhi	r2,3
   22344:	108c1704 	addi	r2,r2,12380
   22348:	f800283a 	ret

0002234c <_ZNKSt13bad_exception4whatEv>:
   2234c:	008000f4 	movhi	r2,3
   22350:	108c1b04 	addi	r2,r2,12396
   22354:	f800283a 	ret

00022358 <_ZNSt9exceptionD0Ev>:
   22358:	0020ad41 	jmpi	20ad4 <_ZdlPv>

0002235c <_ZNSt13bad_exceptionD0Ev>:
   2235c:	0020ad41 	jmpi	20ad4 <_ZdlPv>

00022360 <_ZN10__cxxabiv115__forced_unwindD1Ev>:
   22360:	f800283a 	ret

00022364 <_ZN10__cxxabiv115__forced_unwindD0Ev>:
   22364:	0020ad41 	jmpi	20ad4 <_ZdlPv>

00022368 <_ZN10__cxxabiv119__foreign_exceptionD1Ev>:
   22368:	f800283a 	ret

0002236c <_ZN10__cxxabiv119__foreign_exceptionD0Ev>:
   2236c:	0020ad41 	jmpi	20ad4 <_ZdlPv>

00022370 <_ZL23__gxx_exception_cleanup19_Unwind_Reason_CodeP17_Unwind_Exception>:
   22370:	defffe04 	addi	sp,sp,-8
   22374:	dfc00115 	stw	ra,4(sp)
   22378:	dc000015 	stw	r16,0(sp)
   2237c:	00800044 	movi	r2,1
   22380:	11000a36 	bltu	r2,r4,223ac <_ZL23__gxx_exception_cleanup19_Unwind_Reason_CodeP17_Unwind_Exception+0x3c>
   22384:	28bff617 	ldw	r2,-40(r5)
   22388:	2c000504 	addi	r16,r5,20
   2238c:	10000226 	beq	r2,zero,22398 <_ZL23__gxx_exception_cleanup19_Unwind_Reason_CodeP17_Unwind_Exception+0x28>
   22390:	8009883a 	mov	r4,r16
   22394:	103ee83a 	callr	r2
   22398:	8009883a 	mov	r4,r16
   2239c:	dfc00117 	ldw	ra,4(sp)
   223a0:	dc000017 	ldw	r16,0(sp)
   223a4:	dec00204 	addi	sp,sp,8
   223a8:	0021f6c1 	jmpi	21f6c <__cxa_free_exception>
   223ac:	293ff817 	ldw	r4,-32(r5)
   223b0:	0021c4c0 	call	21c4c <_ZN10__cxxabiv111__terminateEPFvvE>

000223b4 <__cxa_throw>:
   223b4:	defffb04 	addi	sp,sp,-20
   223b8:	dfc00415 	stw	ra,16(sp)
   223bc:	dcc00315 	stw	r19,12(sp)
   223c0:	dc800215 	stw	r18,8(sp)
   223c4:	2827883a 	mov	r19,r5
   223c8:	3025883a 	mov	r18,r6
   223cc:	dc400115 	stw	r17,4(sp)
   223d0:	dc000015 	stw	r16,0(sp)
   223d4:	2021883a 	mov	r16,r4
   223d8:	0021da00 	call	21da0 <__cxa_get_globals>
   223dc:	10c00117 	ldw	r3,4(r2)
   223e0:	847ffb04 	addi	r17,r16,-20
   223e4:	18c00044 	addi	r3,r3,1
   223e8:	10c00115 	stw	r3,4(r2)
   223ec:	00800044 	movi	r2,1
   223f0:	80bfef15 	stw	r2,-68(r16)
   223f4:	84fff015 	stw	r19,-64(r16)
   223f8:	84bff115 	stw	r18,-60(r16)
   223fc:	0021d840 	call	21d84 <_ZSt14get_unexpectedv>
   22400:	80bff215 	stw	r2,-56(r16)
   22404:	0021d600 	call	21d60 <_ZSt13get_terminatev>
   22408:	80bff315 	stw	r2,-52(r16)
   2240c:	0090caf4 	movhi	r2,17195
   22410:	108ac004 	addi	r2,r2,11008
   22414:	80bffb15 	stw	r2,-20(r16)
   22418:	0091d3b4 	movhi	r2,18254
   2241c:	109550c4 	addi	r2,r2,21827
   22420:	80bffc15 	stw	r2,-16(r16)
   22424:	008000b4 	movhi	r2,2
   22428:	1088dc04 	addi	r2,r2,9072
   2242c:	8809883a 	mov	r4,r17
   22430:	80bffd15 	stw	r2,-12(r16)
   22434:	0022d240 	call	22d24 <_Unwind_SjLj_RaiseException>
   22438:	8809883a 	mov	r4,r17
   2243c:	0021ac40 	call	21ac4 <__cxa_begin_catch>
   22440:	0021d0c0 	call	21d0c <_ZSt9terminatev>

00022444 <__cxa_rethrow>:
   22444:	defffe04 	addi	sp,sp,-8
   22448:	dfc00115 	stw	ra,4(sp)
   2244c:	dc000015 	stw	r16,0(sp)
   22450:	0021da00 	call	21da0 <__cxa_get_globals>
   22454:	10c00117 	ldw	r3,4(r2)
   22458:	11000017 	ldw	r4,0(r2)
   2245c:	18c00044 	addi	r3,r3,1
   22460:	10c00115 	stw	r3,4(r2)
   22464:	20001126 	beq	r4,zero,224ac <__cxa_rethrow+0x68>
   22468:	21400b17 	ldw	r5,44(r4)
   2246c:	01ef3574 	movhi	r7,48341
   22470:	39f54004 	addi	r7,r7,-11008
   22474:	29cf883a 	add	r7,r5,r7
   22478:	20c00c17 	ldw	r3,48(r4)
   2247c:	394d803a 	cmpltu	r6,r7,r5
   22480:	016e2cb4 	movhi	r5,47282
   22484:	296aaf04 	addi	r5,r5,-21828
   22488:	1947883a 	add	r3,r3,r5
   2248c:	30c7883a 	add	r3,r6,r3
   22490:	18000726 	beq	r3,zero,224b0 <__cxa_rethrow+0x6c>
   22494:	10000015 	stw	zero,0(r2)
   22498:	24000b04 	addi	r16,r4,44
   2249c:	8009883a 	mov	r4,r16
   224a0:	0022e7c0 	call	22e7c <_Unwind_SjLj_Resume_or_Rethrow>
   224a4:	8009883a 	mov	r4,r16
   224a8:	0021ac40 	call	21ac4 <__cxa_begin_catch>
   224ac:	0021d0c0 	call	21d0c <_ZSt9terminatev>
   224b0:	00c00044 	movi	r3,1
   224b4:	19fff736 	bltu	r3,r7,22494 <_gp+0xfffe5404>
   224b8:	20800517 	ldw	r2,20(r4)
   224bc:	0085c83a 	sub	r2,zero,r2
   224c0:	20800515 	stw	r2,20(r4)
   224c4:	003ff406 	br	22498 <_gp+0xfffe5408>

000224c8 <__cxa_call_terminate>:
   224c8:	defffe04 	addi	sp,sp,-8
   224cc:	dfc00115 	stw	ra,4(sp)
   224d0:	dc000015 	stw	r16,0(sp)
   224d4:	20000d26 	beq	r4,zero,2250c <__cxa_call_terminate+0x44>
   224d8:	2021883a 	mov	r16,r4
   224dc:	0021ac40 	call	21ac4 <__cxa_begin_catch>
   224e0:	80c00017 	ldw	r3,0(r16)
   224e4:	016f3574 	movhi	r5,48341
   224e8:	29754004 	addi	r5,r5,-11008
   224ec:	194b883a 	add	r5,r3,r5
   224f0:	80800117 	ldw	r2,4(r16)
   224f4:	28c9803a 	cmpltu	r4,r5,r3
   224f8:	00ee2cb4 	movhi	r3,47282
   224fc:	18eaaf04 	addi	r3,r3,-21828
   22500:	10c5883a 	add	r2,r2,r3
   22504:	2085883a 	add	r2,r4,r2
   22508:	10000126 	beq	r2,zero,22510 <__cxa_call_terminate+0x48>
   2250c:	0021d0c0 	call	21d0c <_ZSt9terminatev>
   22510:	00800044 	movi	r2,1
   22514:	117ffd36 	bltu	r2,r5,2250c <_gp+0xfffe547c>
   22518:	813ff817 	ldw	r4,-32(r16)
   2251c:	0021c4c0 	call	21c4c <_ZN10__cxxabiv111__terminateEPFvvE>

00022520 <_ZN10__cxxabiv120__si_class_type_infoD1Ev>:
   22520:	008000f4 	movhi	r2,3
   22524:	108c6004 	addi	r2,r2,12672
   22528:	20800015 	stw	r2,0(r4)
   2252c:	00221001 	jmpi	22100 <_ZN10__cxxabiv117__class_type_infoD1Ev>

00022530 <_ZN10__cxxabiv120__si_class_type_infoD0Ev>:
   22530:	defffe04 	addi	sp,sp,-8
   22534:	008000f4 	movhi	r2,3
   22538:	dc000015 	stw	r16,0(sp)
   2253c:	dfc00115 	stw	ra,4(sp)
   22540:	108c6004 	addi	r2,r2,12672
   22544:	20800015 	stw	r2,0(r4)
   22548:	2021883a 	mov	r16,r4
   2254c:	00221000 	call	22100 <_ZN10__cxxabiv117__class_type_infoD1Ev>
   22550:	8009883a 	mov	r4,r16
   22554:	dfc00117 	ldw	ra,4(sp)
   22558:	dc000017 	ldw	r16,0(sp)
   2255c:	dec00204 	addi	sp,sp,8
   22560:	0020ad41 	jmpi	20ad4 <_ZdlPv>

00022564 <_ZNK10__cxxabiv120__si_class_type_info12__do_dyncastEiNS_17__class_type_info10__sub_kindEPKS1_PKvS4_S6_RNS1_16__dyncast_resultE>:
   22564:	defff504 	addi	sp,sp,-44
   22568:	dc000115 	stw	r16,4(sp)
   2256c:	38800117 	ldw	r2,4(r7)
   22570:	24000117 	ldw	r16,4(r4)
   22574:	df000915 	stw	fp,36(sp)
   22578:	ddc00815 	stw	r23,32(sp)
   2257c:	dd800715 	stw	r22,28(sp)
   22580:	dcc00415 	stw	r19,16(sp)
   22584:	dc800315 	stw	r18,12(sp)
   22588:	dc400215 	stw	r17,8(sp)
   2258c:	dfc00a15 	stw	ra,40(sp)
   22590:	dd400615 	stw	r21,24(sp)
   22594:	dd000515 	stw	r20,20(sp)
   22598:	2823883a 	mov	r17,r5
   2259c:	3039883a 	mov	fp,r6
   225a0:	dcc00b17 	ldw	r19,44(sp)
   225a4:	ddc00c17 	ldw	r23,48(sp)
   225a8:	dd800d17 	ldw	r22,52(sp)
   225ac:	dc800e17 	ldw	r18,56(sp)
   225b0:	80800b26 	beq	r16,r2,225e0 <_ZNK10__cxxabiv120__si_class_type_info12__do_dyncastEiNS_17__class_type_info10__sub_kindEPKS1_PKvS4_S6_RNS1_16__dyncast_resultE+0x7c>
   225b4:	80c00007 	ldb	r3,0(r16)
   225b8:	2029883a 	mov	r20,r4
   225bc:	01000a84 	movi	r4,42
   225c0:	382b883a 	mov	r21,r7
   225c4:	19001a26 	beq	r3,r4,22630 <_ZNK10__cxxabiv120__si_class_type_info12__do_dyncastEiNS_17__class_type_info10__sub_kindEPKS1_PKvS4_S6_RNS1_16__dyncast_resultE+0xcc>
   225c8:	100b883a 	mov	r5,r2
   225cc:	8009883a 	mov	r4,r16
   225d0:	d8c00015 	stw	r3,0(sp)
   225d4:	0023d600 	call	23d60 <strcmp>
   225d8:	d8c00017 	ldw	r3,0(sp)
   225dc:	1000141e 	bne	r2,zero,22630 <_ZNK10__cxxabiv120__si_class_type_info12__do_dyncastEiNS_17__class_type_info10__sub_kindEPKS1_PKvS4_S6_RNS1_16__dyncast_resultE+0xcc>
   225e0:	94c00015 	stw	r19,0(r18)
   225e4:	97000115 	stw	fp,4(r18)
   225e8:	88002816 	blt	r17,zero,2268c <_ZNK10__cxxabiv120__si_class_type_info12__do_dyncastEiNS_17__class_type_info10__sub_kindEPKS1_PKvS4_S6_RNS1_16__dyncast_resultE+0x128>
   225ec:	9c63883a 	add	r17,r19,r17
   225f0:	b4403226 	beq	r22,r17,226bc <_ZNK10__cxxabiv120__si_class_type_info12__do_dyncastEiNS_17__class_type_info10__sub_kindEPKS1_PKvS4_S6_RNS1_16__dyncast_resultE+0x158>
   225f4:	00800044 	movi	r2,1
   225f8:	90800315 	stw	r2,12(r18)
   225fc:	0005883a 	mov	r2,zero
   22600:	dfc00a17 	ldw	ra,40(sp)
   22604:	df000917 	ldw	fp,36(sp)
   22608:	ddc00817 	ldw	r23,32(sp)
   2260c:	dd800717 	ldw	r22,28(sp)
   22610:	dd400617 	ldw	r21,24(sp)
   22614:	dd000517 	ldw	r20,20(sp)
   22618:	dcc00417 	ldw	r19,16(sp)
   2261c:	dc800317 	ldw	r18,12(sp)
   22620:	dc400217 	ldw	r17,8(sp)
   22624:	dc000117 	ldw	r16,4(sp)
   22628:	dec00b04 	addi	sp,sp,44
   2262c:	f800283a 	ret
   22630:	9d801926 	beq	r19,r22,22698 <_ZNK10__cxxabiv120__si_class_type_info12__do_dyncastEiNS_17__class_type_info10__sub_kindEPKS1_PKvS4_S6_RNS1_16__dyncast_resultE+0x134>
   22634:	a1000217 	ldw	r4,8(r20)
   22638:	a80f883a 	mov	r7,r21
   2263c:	e00d883a 	mov	r6,fp
   22640:	20800017 	ldw	r2,0(r4)
   22644:	dc800e15 	stw	r18,56(sp)
   22648:	dd800d15 	stw	r22,52(sp)
   2264c:	ddc00c15 	stw	r23,48(sp)
   22650:	dcc00b15 	stw	r19,44(sp)
   22654:	10800717 	ldw	r2,28(r2)
   22658:	880b883a 	mov	r5,r17
   2265c:	dfc00a17 	ldw	ra,40(sp)
   22660:	df000917 	ldw	fp,36(sp)
   22664:	ddc00817 	ldw	r23,32(sp)
   22668:	dd800717 	ldw	r22,28(sp)
   2266c:	dd400617 	ldw	r21,24(sp)
   22670:	dd000517 	ldw	r20,20(sp)
   22674:	dcc00417 	ldw	r19,16(sp)
   22678:	dc800317 	ldw	r18,12(sp)
   2267c:	dc400217 	ldw	r17,8(sp)
   22680:	dc000117 	ldw	r16,4(sp)
   22684:	dec00b04 	addi	sp,sp,44
   22688:	1000683a 	jmp	r2
   2268c:	00bfff84 	movi	r2,-2
   22690:	88bfda1e 	bne	r17,r2,225fc <_gp+0xfffe556c>
   22694:	003fd706 	br	225f4 <_gp+0xfffe5564>
   22698:	b9400117 	ldw	r5,4(r23)
   2269c:	81400526 	beq	r16,r5,226b4 <_ZNK10__cxxabiv120__si_class_type_info12__do_dyncastEiNS_17__class_type_info10__sub_kindEPKS1_PKvS4_S6_RNS1_16__dyncast_resultE+0x150>
   226a0:	00800a84 	movi	r2,42
   226a4:	18bfe326 	beq	r3,r2,22634 <_gp+0xfffe55a4>
   226a8:	8009883a 	mov	r4,r16
   226ac:	0023d600 	call	23d60 <strcmp>
   226b0:	103fe01e 	bne	r2,zero,22634 <_gp+0xfffe55a4>
   226b4:	97000215 	stw	fp,8(r18)
   226b8:	003fd006 	br	225fc <_gp+0xfffe556c>
   226bc:	00800184 	movi	r2,6
   226c0:	003fcd06 	br	225f8 <_gp+0xfffe5568>

000226c4 <_ZNK10__cxxabiv120__si_class_type_info20__do_find_public_srcEiPKvPKNS_17__class_type_infoES2_>:
   226c4:	defffa04 	addi	sp,sp,-24
   226c8:	dc000215 	stw	r16,8(sp)
   226cc:	dc000617 	ldw	r16,24(sp)
   226d0:	dc800415 	stw	r18,16(sp)
   226d4:	dc400315 	stw	r17,12(sp)
   226d8:	dfc00515 	stw	ra,20(sp)
   226dc:	2023883a 	mov	r17,r4
   226e0:	2825883a 	mov	r18,r5
   226e4:	81800b26 	beq	r16,r6,22714 <_ZNK10__cxxabiv120__si_class_type_info20__do_find_public_srcEiPKvPKNS_17__class_type_infoES2_+0x50>
   226e8:	89000217 	ldw	r4,8(r17)
   226ec:	900b883a 	mov	r5,r18
   226f0:	20800017 	ldw	r2,0(r4)
   226f4:	dc000615 	stw	r16,24(sp)
   226f8:	10800817 	ldw	r2,32(r2)
   226fc:	dfc00517 	ldw	ra,20(sp)
   22700:	dc800417 	ldw	r18,16(sp)
   22704:	dc400317 	ldw	r17,12(sp)
   22708:	dc000217 	ldw	r16,8(sp)
   2270c:	dec00604 	addi	sp,sp,24
   22710:	1000683a 	jmp	r2
   22714:	21000117 	ldw	r4,4(r4)
   22718:	39400117 	ldw	r5,4(r7)
   2271c:	21400926 	beq	r4,r5,22744 <_ZNK10__cxxabiv120__si_class_type_info20__do_find_public_srcEiPKvPKNS_17__class_type_infoES2_+0x80>
   22720:	20c00007 	ldb	r3,0(r4)
   22724:	00800a84 	movi	r2,42
   22728:	18bfef26 	beq	r3,r2,226e8 <_gp+0xfffe5658>
   2272c:	d9800015 	stw	r6,0(sp)
   22730:	d9c00115 	stw	r7,4(sp)
   22734:	0023d600 	call	23d60 <strcmp>
   22738:	d9800017 	ldw	r6,0(sp)
   2273c:	d9c00117 	ldw	r7,4(sp)
   22740:	103fe91e 	bne	r2,zero,226e8 <_gp+0xfffe5658>
   22744:	00800184 	movi	r2,6
   22748:	dfc00517 	ldw	ra,20(sp)
   2274c:	dc800417 	ldw	r18,16(sp)
   22750:	dc400317 	ldw	r17,12(sp)
   22754:	dc000217 	ldw	r16,8(sp)
   22758:	dec00604 	addi	sp,sp,24
   2275c:	f800283a 	ret

00022760 <_ZNK10__cxxabiv120__si_class_type_info11__do_upcastEPKNS_17__class_type_infoEPKvRNS1_15__upcast_resultE>:
   22760:	defffb04 	addi	sp,sp,-20
   22764:	dcc00315 	stw	r19,12(sp)
   22768:	dc800215 	stw	r18,8(sp)
   2276c:	dc400115 	stw	r17,4(sp)
   22770:	dc000015 	stw	r16,0(sp)
   22774:	dfc00415 	stw	ra,16(sp)
   22778:	2027883a 	mov	r19,r4
   2277c:	2821883a 	mov	r16,r5
   22780:	3023883a 	mov	r17,r6
   22784:	3825883a 	mov	r18,r7
   22788:	00221440 	call	22144 <_ZNK10__cxxabiv117__class_type_info11__do_upcastEPKS0_PKvRNS0_15__upcast_resultE>
   2278c:	10c03fcc 	andi	r3,r2,255
   22790:	18000726 	beq	r3,zero,227b0 <_ZNK10__cxxabiv120__si_class_type_info11__do_upcastEPKNS_17__class_type_infoEPKvRNS1_15__upcast_resultE+0x50>
   22794:	dfc00417 	ldw	ra,16(sp)
   22798:	dcc00317 	ldw	r19,12(sp)
   2279c:	dc800217 	ldw	r18,8(sp)
   227a0:	dc400117 	ldw	r17,4(sp)
   227a4:	dc000017 	ldw	r16,0(sp)
   227a8:	dec00504 	addi	sp,sp,20
   227ac:	f800283a 	ret
   227b0:	99000217 	ldw	r4,8(r19)
   227b4:	900f883a 	mov	r7,r18
   227b8:	880d883a 	mov	r6,r17
   227bc:	20800017 	ldw	r2,0(r4)
   227c0:	800b883a 	mov	r5,r16
   227c4:	10800617 	ldw	r2,24(r2)
   227c8:	dfc00417 	ldw	ra,16(sp)
   227cc:	dcc00317 	ldw	r19,12(sp)
   227d0:	dc800217 	ldw	r18,8(sp)
   227d4:	dc400117 	ldw	r17,4(sp)
   227d8:	dc000017 	ldw	r16,0(sp)
   227dc:	dec00504 	addi	sp,sp,20
   227e0:	1000683a 	jmp	r2

000227e4 <_ZNSt9type_infoD1Ev>:
   227e4:	f800283a 	ret

000227e8 <_ZNKSt9type_info14__is_pointer_pEv>:
   227e8:	0005883a 	mov	r2,zero
   227ec:	f800283a 	ret

000227f0 <_ZNKSt9type_info11__do_upcastEPKN10__cxxabiv117__class_type_infoEPPv>:
   227f0:	0005883a 	mov	r2,zero
   227f4:	f800283a 	ret

000227f8 <_ZNSt9type_infoD0Ev>:
   227f8:	0020ad41 	jmpi	20ad4 <_ZdlPv>

000227fc <_ZNKSt9type_info10__do_catchEPKS_PPvj>:
   227fc:	21000117 	ldw	r4,4(r4)
   22800:	29400117 	ldw	r5,4(r5)
   22804:	21400c26 	beq	r4,r5,22838 <_ZNKSt9type_info10__do_catchEPKS_PPvj+0x3c>
   22808:	20c00007 	ldb	r3,0(r4)
   2280c:	00800a84 	movi	r2,42
   22810:	18800726 	beq	r3,r2,22830 <_ZNKSt9type_info10__do_catchEPKS_PPvj+0x34>
   22814:	deffff04 	addi	sp,sp,-4
   22818:	dfc00015 	stw	ra,0(sp)
   2281c:	0023d600 	call	23d60 <strcmp>
   22820:	1005003a 	cmpeq	r2,r2,zero
   22824:	dfc00017 	ldw	ra,0(sp)
   22828:	dec00104 	addi	sp,sp,4
   2282c:	f800283a 	ret
   22830:	0005883a 	mov	r2,zero
   22834:	f800283a 	ret
   22838:	00800044 	movi	r2,1
   2283c:	f800283a 	ret

00022840 <__cxa_pure_virtual>:
   22840:	014000f4 	movhi	r5,3
   22844:	deffff04 	addi	sp,sp,-4
   22848:	294c7504 	addi	r5,r5,12756
   2284c:	018006c4 	movi	r6,27
   22850:	01000084 	movi	r4,2
   22854:	dfc00015 	stw	ra,0(sp)
   22858:	00309940 	call	30994 <write>
   2285c:	0021d0c0 	call	21d0c <_ZSt9terminatev>

00022860 <__cxa_deleted_virtual>:
   22860:	014000f4 	movhi	r5,3
   22864:	deffff04 	addi	sp,sp,-4
   22868:	294c7c04 	addi	r5,r5,12784
   2286c:	01800784 	movi	r6,30
   22870:	01000084 	movi	r4,2
   22874:	dfc00015 	stw	ra,0(sp)
   22878:	00309940 	call	30994 <write>
   2287c:	0021d0c0 	call	21d0c <_ZSt9terminatev>

00022880 <__divsi3>:
   22880:	20001b16 	blt	r4,zero,228f0 <__divsi3+0x70>
   22884:	000f883a 	mov	r7,zero
   22888:	28001616 	blt	r5,zero,228e4 <__divsi3+0x64>
   2288c:	200d883a 	mov	r6,r4
   22890:	29001a2e 	bgeu	r5,r4,228fc <__divsi3+0x7c>
   22894:	00800804 	movi	r2,32
   22898:	00c00044 	movi	r3,1
   2289c:	00000106 	br	228a4 <__divsi3+0x24>
   228a0:	10000d26 	beq	r2,zero,228d8 <__divsi3+0x58>
   228a4:	294b883a 	add	r5,r5,r5
   228a8:	10bfffc4 	addi	r2,r2,-1
   228ac:	18c7883a 	add	r3,r3,r3
   228b0:	293ffb36 	bltu	r5,r4,228a0 <_gp+0xfffe5810>
   228b4:	0005883a 	mov	r2,zero
   228b8:	18000726 	beq	r3,zero,228d8 <__divsi3+0x58>
   228bc:	0005883a 	mov	r2,zero
   228c0:	31400236 	bltu	r6,r5,228cc <__divsi3+0x4c>
   228c4:	314dc83a 	sub	r6,r6,r5
   228c8:	10c4b03a 	or	r2,r2,r3
   228cc:	1806d07a 	srli	r3,r3,1
   228d0:	280ad07a 	srli	r5,r5,1
   228d4:	183ffa1e 	bne	r3,zero,228c0 <_gp+0xfffe5830>
   228d8:	38000126 	beq	r7,zero,228e0 <__divsi3+0x60>
   228dc:	0085c83a 	sub	r2,zero,r2
   228e0:	f800283a 	ret
   228e4:	014bc83a 	sub	r5,zero,r5
   228e8:	39c0005c 	xori	r7,r7,1
   228ec:	003fe706 	br	2288c <_gp+0xfffe57fc>
   228f0:	0109c83a 	sub	r4,zero,r4
   228f4:	01c00044 	movi	r7,1
   228f8:	003fe306 	br	22888 <_gp+0xfffe57f8>
   228fc:	00c00044 	movi	r3,1
   22900:	003fee06 	br	228bc <_gp+0xfffe582c>

00022904 <__modsi3>:
   22904:	20001716 	blt	r4,zero,22964 <__modsi3+0x60>
   22908:	000f883a 	mov	r7,zero
   2290c:	2005883a 	mov	r2,r4
   22910:	28001216 	blt	r5,zero,2295c <__modsi3+0x58>
   22914:	2900162e 	bgeu	r5,r4,22970 <__modsi3+0x6c>
   22918:	01800804 	movi	r6,32
   2291c:	00c00044 	movi	r3,1
   22920:	00000106 	br	22928 <__modsi3+0x24>
   22924:	30000a26 	beq	r6,zero,22950 <__modsi3+0x4c>
   22928:	294b883a 	add	r5,r5,r5
   2292c:	31bfffc4 	addi	r6,r6,-1
   22930:	18c7883a 	add	r3,r3,r3
   22934:	293ffb36 	bltu	r5,r4,22924 <_gp+0xfffe5894>
   22938:	18000526 	beq	r3,zero,22950 <__modsi3+0x4c>
   2293c:	1806d07a 	srli	r3,r3,1
   22940:	11400136 	bltu	r2,r5,22948 <__modsi3+0x44>
   22944:	1145c83a 	sub	r2,r2,r5
   22948:	280ad07a 	srli	r5,r5,1
   2294c:	183ffb1e 	bne	r3,zero,2293c <_gp+0xfffe58ac>
   22950:	38000126 	beq	r7,zero,22958 <__modsi3+0x54>
   22954:	0085c83a 	sub	r2,zero,r2
   22958:	f800283a 	ret
   2295c:	014bc83a 	sub	r5,zero,r5
   22960:	003fec06 	br	22914 <_gp+0xfffe5884>
   22964:	0109c83a 	sub	r4,zero,r4
   22968:	01c00044 	movi	r7,1
   2296c:	003fe706 	br	2290c <_gp+0xfffe587c>
   22970:	00c00044 	movi	r3,1
   22974:	003ff106 	br	2293c <_gp+0xfffe58ac>

00022978 <__udivsi3>:
   22978:	200d883a 	mov	r6,r4
   2297c:	2900152e 	bgeu	r5,r4,229d4 <__udivsi3+0x5c>
   22980:	28001416 	blt	r5,zero,229d4 <__udivsi3+0x5c>
   22984:	00800804 	movi	r2,32
   22988:	00c00044 	movi	r3,1
   2298c:	00000206 	br	22998 <__udivsi3+0x20>
   22990:	10000e26 	beq	r2,zero,229cc <__udivsi3+0x54>
   22994:	28000516 	blt	r5,zero,229ac <__udivsi3+0x34>
   22998:	294b883a 	add	r5,r5,r5
   2299c:	10bfffc4 	addi	r2,r2,-1
   229a0:	18c7883a 	add	r3,r3,r3
   229a4:	293ffa36 	bltu	r5,r4,22990 <_gp+0xfffe5900>
   229a8:	18000826 	beq	r3,zero,229cc <__udivsi3+0x54>
   229ac:	0005883a 	mov	r2,zero
   229b0:	31400236 	bltu	r6,r5,229bc <__udivsi3+0x44>
   229b4:	314dc83a 	sub	r6,r6,r5
   229b8:	10c4b03a 	or	r2,r2,r3
   229bc:	1806d07a 	srli	r3,r3,1
   229c0:	280ad07a 	srli	r5,r5,1
   229c4:	183ffa1e 	bne	r3,zero,229b0 <_gp+0xfffe5920>
   229c8:	f800283a 	ret
   229cc:	0005883a 	mov	r2,zero
   229d0:	f800283a 	ret
   229d4:	00c00044 	movi	r3,1
   229d8:	003ff406 	br	229ac <_gp+0xfffe591c>

000229dc <__umodsi3>:
   229dc:	2005883a 	mov	r2,r4
   229e0:	2900122e 	bgeu	r5,r4,22a2c <__umodsi3+0x50>
   229e4:	28001116 	blt	r5,zero,22a2c <__umodsi3+0x50>
   229e8:	01800804 	movi	r6,32
   229ec:	00c00044 	movi	r3,1
   229f0:	00000206 	br	229fc <__umodsi3+0x20>
   229f4:	30000c26 	beq	r6,zero,22a28 <__umodsi3+0x4c>
   229f8:	28000516 	blt	r5,zero,22a10 <__umodsi3+0x34>
   229fc:	294b883a 	add	r5,r5,r5
   22a00:	31bfffc4 	addi	r6,r6,-1
   22a04:	18c7883a 	add	r3,r3,r3
   22a08:	293ffa36 	bltu	r5,r4,229f4 <_gp+0xfffe5964>
   22a0c:	18000626 	beq	r3,zero,22a28 <__umodsi3+0x4c>
   22a10:	1806d07a 	srli	r3,r3,1
   22a14:	11400136 	bltu	r2,r5,22a1c <__umodsi3+0x40>
   22a18:	1145c83a 	sub	r2,r2,r5
   22a1c:	280ad07a 	srli	r5,r5,1
   22a20:	183ffb1e 	bne	r3,zero,22a10 <_gp+0xfffe5980>
   22a24:	f800283a 	ret
   22a28:	f800283a 	ret
   22a2c:	00c00044 	movi	r3,1
   22a30:	003ff706 	br	22a10 <_gp+0xfffe5980>

00022a34 <_Unwind_ForcedUnwind_Phase2>:
   22a34:	defff404 	addi	sp,sp,-48
   22a38:	dd800915 	stw	r22,36(sp)
   22a3c:	058000f4 	movhi	r22,3
   22a40:	ddc00a15 	stw	r23,40(sp)
   22a44:	dd400815 	stw	r21,32(sp)
   22a48:	dd000715 	stw	r20,28(sp)
   22a4c:	dcc00615 	stw	r19,24(sp)
   22a50:	dc400415 	stw	r17,16(sp)
   22a54:	dc000315 	stw	r16,12(sp)
   22a58:	dfc00b15 	stw	ra,44(sp)
   22a5c:	dc800515 	stw	r18,20(sp)
   22a60:	2021883a 	mov	r16,r4
   22a64:	2823883a 	mov	r17,r5
   22a68:	24c00317 	ldw	r19,12(r4)
   22a6c:	25000417 	ldw	r20,16(r4)
   22a70:	28c00017 	ldw	r3,0(r5)
   22a74:	b59b3e04 	addi	r22,r22,27896
   22a78:	054001c4 	movi	r21,7
   22a7c:	05c00204 	movi	r23,8
   22a80:	00001606 	br	22adc <_Unwind_ForcedUnwind_Phase2+0xa8>
   22a84:	81800017 	ldw	r6,0(r16)
   22a88:	81c00117 	ldw	r7,4(r16)
   22a8c:	1c800617 	ldw	r18,24(r3)
   22a90:	dd000215 	stw	r20,8(sp)
   22a94:	dc400115 	stw	r17,4(sp)
   22a98:	dc000015 	stw	r16,0(sp)
   22a9c:	983ee83a 	callr	r19
   22aa0:	01400284 	movi	r5,10
   22aa4:	01000044 	movi	r4,1
   22aa8:	1000241e 	bne	r2,zero,22b3c <_Unwind_ForcedUnwind_Phase2+0x108>
   22aac:	90000726 	beq	r18,zero,22acc <_Unwind_ForcedUnwind_Phase2+0x98>
   22ab0:	81800017 	ldw	r6,0(r16)
   22ab4:	81c00117 	ldw	r7,4(r16)
   22ab8:	dc400115 	stw	r17,4(sp)
   22abc:	dc000015 	stw	r16,0(sp)
   22ac0:	903ee83a 	callr	r18
   22ac4:	15401f26 	beq	r2,r21,22b44 <_Unwind_ForcedUnwind_Phase2+0x110>
   22ac8:	15c01c1e 	bne	r2,r23,22b3c <_Unwind_ForcedUnwind_Phase2+0x108>
   22acc:	88800017 	ldw	r2,0(r17)
   22ad0:	10c00017 	ldw	r3,0(r2)
   22ad4:	b0c00015 	stw	r3,0(r22)
   22ad8:	88c00015 	stw	r3,0(r17)
   22adc:	01400284 	movi	r5,10
   22ae0:	01000044 	movi	r4,1
   22ae4:	183fe71e 	bne	r3,zero,22a84 <_gp+0xfffe59f4>
   22ae8:	81800017 	ldw	r6,0(r16)
   22aec:	81c00117 	ldw	r7,4(r16)
   22af0:	01400684 	movi	r5,26
   22af4:	dd000215 	stw	r20,8(sp)
   22af8:	dc400115 	stw	r17,4(sp)
   22afc:	dc000015 	stw	r16,0(sp)
   22b00:	01000044 	movi	r4,1
   22b04:	983ee83a 	callr	r19
   22b08:	10000c1e 	bne	r2,zero,22b3c <_Unwind_ForcedUnwind_Phase2+0x108>
   22b0c:	00800144 	movi	r2,5
   22b10:	dfc00b17 	ldw	ra,44(sp)
   22b14:	ddc00a17 	ldw	r23,40(sp)
   22b18:	dd800917 	ldw	r22,36(sp)
   22b1c:	dd400817 	ldw	r21,32(sp)
   22b20:	dd000717 	ldw	r20,28(sp)
   22b24:	dcc00617 	ldw	r19,24(sp)
   22b28:	dc800517 	ldw	r18,20(sp)
   22b2c:	dc400417 	ldw	r17,16(sp)
   22b30:	dc000317 	ldw	r16,12(sp)
   22b34:	dec00c04 	addi	sp,sp,48
   22b38:	f800283a 	ret
   22b3c:	00800084 	movi	r2,2
   22b40:	003ff306 	br	22b10 <_gp+0xfffe5a80>
   22b44:	a805883a 	mov	r2,r21
   22b48:	003ff106 	br	22b10 <_gp+0xfffe5a80>

00022b4c <_Unwind_RaiseException_Phase2>:
   22b4c:	28c00017 	ldw	r3,0(r5)
   22b50:	defff804 	addi	sp,sp,-32
   22b54:	dcc00515 	stw	r19,20(sp)
   22b58:	dc800415 	stw	r18,16(sp)
   22b5c:	dc400315 	stw	r17,12(sp)
   22b60:	dc000215 	stw	r16,8(sp)
   22b64:	dfc00715 	stw	ra,28(sp)
   22b68:	dd000615 	stw	r20,24(sp)
   22b6c:	2823883a 	mov	r17,r5
   22b70:	2021883a 	mov	r16,r4
   22b74:	048001c4 	movi	r18,7
   22b78:	04c00204 	movi	r19,8
   22b7c:	18001326 	beq	r3,zero,22bcc <_Unwind_RaiseException_Phase2+0x80>
   22b80:	81000417 	ldw	r4,16(r16)
   22b84:	1a000617 	ldw	r8,24(r3)
   22b88:	19001926 	beq	r3,r4,22bf0 <_Unwind_RaiseException_Phase2+0xa4>
   22b8c:	40000c26 	beq	r8,zero,22bc0 <_Unwind_RaiseException_Phase2+0x74>
   22b90:	01400084 	movi	r5,2
   22b94:	0029883a 	mov	r20,zero
   22b98:	81800017 	ldw	r6,0(r16)
   22b9c:	81c00117 	ldw	r7,4(r16)
   22ba0:	01000044 	movi	r4,1
   22ba4:	dc400115 	stw	r17,4(sp)
   22ba8:	dc000015 	stw	r16,0(sp)
   22bac:	403ee83a 	callr	r8
   22bb0:	14801326 	beq	r2,r18,22c00 <_Unwind_RaiseException_Phase2+0xb4>
   22bb4:	14c0051e 	bne	r2,r19,22bcc <_Unwind_RaiseException_Phase2+0x80>
   22bb8:	a000131e 	bne	r20,zero,22c08 <_Unwind_RaiseException_Phase2+0xbc>
   22bbc:	88c00017 	ldw	r3,0(r17)
   22bc0:	18c00017 	ldw	r3,0(r3)
   22bc4:	88c00015 	stw	r3,0(r17)
   22bc8:	183fed1e 	bne	r3,zero,22b80 <_gp+0xfffe5af0>
   22bcc:	00800084 	movi	r2,2
   22bd0:	dfc00717 	ldw	ra,28(sp)
   22bd4:	dd000617 	ldw	r20,24(sp)
   22bd8:	dcc00517 	ldw	r19,20(sp)
   22bdc:	dc800417 	ldw	r18,16(sp)
   22be0:	dc400317 	ldw	r17,12(sp)
   22be4:	dc000217 	ldw	r16,8(sp)
   22be8:	dec00804 	addi	sp,sp,32
   22bec:	f800283a 	ret
   22bf0:	40000526 	beq	r8,zero,22c08 <_Unwind_RaiseException_Phase2+0xbc>
   22bf4:	01400184 	movi	r5,6
   22bf8:	05000104 	movi	r20,4
   22bfc:	003fe606 	br	22b98 <_gp+0xfffe5b08>
   22c00:	9005883a 	mov	r2,r18
   22c04:	003ff206 	br	22bd0 <_gp+0xfffe5b40>
   22c08:	0022f540 	call	22f54 <abort>

00022c0c <uw_install_context.isra.1>:
   22c0c:	20c00017 	ldw	r3,0(r4)
   22c10:	deffff04 	addi	sp,sp,-4
   22c14:	014000f4 	movhi	r5,3
   22c18:	19000917 	ldw	r4,36(r3)
   22c1c:	df000015 	stw	fp,0(sp)
   22c20:	18800804 	addi	r2,r3,32
   22c24:	d839883a 	mov	fp,sp
   22c28:	295b3e04 	addi	r5,r5,27896
   22c2c:	28c00015 	stw	r3,0(r5)
   22c30:	17000017 	ldw	fp,0(r2)
   22c34:	1ec00a17 	ldw	sp,40(r3)
   22c38:	2000683a 	jmp	r4

00022c3c <_Unwind_SjLj_Register>:
   22c3c:	008000f4 	movhi	r2,3
   22c40:	109b3e04 	addi	r2,r2,27896
   22c44:	10c00017 	ldw	r3,0(r2)
   22c48:	11000015 	stw	r4,0(r2)
   22c4c:	20c00015 	stw	r3,0(r4)
   22c50:	f800283a 	ret

00022c54 <_Unwind_SjLj_Unregister>:
   22c54:	20c00017 	ldw	r3,0(r4)
   22c58:	008000f4 	movhi	r2,3
   22c5c:	109b3e04 	addi	r2,r2,27896
   22c60:	10c00015 	stw	r3,0(r2)
   22c64:	f800283a 	ret

00022c68 <_Unwind_GetGR>:
   22c68:	20800017 	ldw	r2,0(r4)
   22c6c:	29400084 	addi	r5,r5,2
   22c70:	294b883a 	add	r5,r5,r5
   22c74:	294b883a 	add	r5,r5,r5
   22c78:	114b883a 	add	r5,r2,r5
   22c7c:	28800017 	ldw	r2,0(r5)
   22c80:	f800283a 	ret

00022c84 <_Unwind_GetCFA>:
   22c84:	20800017 	ldw	r2,0(r4)
   22c88:	10000226 	beq	r2,zero,22c94 <_Unwind_GetCFA+0x10>
   22c8c:	10800a17 	ldw	r2,40(r2)
   22c90:	f800283a 	ret
   22c94:	0005883a 	mov	r2,zero
   22c98:	f800283a 	ret

00022c9c <_Unwind_SetGR>:
   22c9c:	20800017 	ldw	r2,0(r4)
   22ca0:	29400084 	addi	r5,r5,2
   22ca4:	294b883a 	add	r5,r5,r5
   22ca8:	294b883a 	add	r5,r5,r5
   22cac:	114b883a 	add	r5,r2,r5
   22cb0:	29800015 	stw	r6,0(r5)
   22cb4:	f800283a 	ret

00022cb8 <_Unwind_GetIP>:
   22cb8:	20800017 	ldw	r2,0(r4)
   22cbc:	10800117 	ldw	r2,4(r2)
   22cc0:	10800044 	addi	r2,r2,1
   22cc4:	f800283a 	ret

00022cc8 <_Unwind_GetIPInfo>:
   22cc8:	20800017 	ldw	r2,0(r4)
   22ccc:	28000015 	stw	zero,0(r5)
   22cd0:	10000326 	beq	r2,zero,22ce0 <_Unwind_GetIPInfo+0x18>
   22cd4:	10800117 	ldw	r2,4(r2)
   22cd8:	10800044 	addi	r2,r2,1
   22cdc:	f800283a 	ret
   22ce0:	0005883a 	mov	r2,zero
   22ce4:	f800283a 	ret

00022ce8 <_Unwind_SetIP>:
   22ce8:	20800017 	ldw	r2,0(r4)
   22cec:	297fffc4 	addi	r5,r5,-1
   22cf0:	11400115 	stw	r5,4(r2)
   22cf4:	f800283a 	ret

00022cf8 <_Unwind_GetLanguageSpecificData>:
   22cf8:	20800017 	ldw	r2,0(r4)
   22cfc:	10800717 	ldw	r2,28(r2)
   22d00:	f800283a 	ret

00022d04 <_Unwind_GetRegionStart>:
   22d04:	0005883a 	mov	r2,zero
   22d08:	f800283a 	ret

00022d0c <_Unwind_FindEnclosingFunction>:
   22d0c:	0005883a 	mov	r2,zero
   22d10:	f800283a 	ret

00022d14 <_Unwind_GetDataRelBase>:
   22d14:	0005883a 	mov	r2,zero
   22d18:	f800283a 	ret

00022d1c <_Unwind_GetTextRelBase>:
   22d1c:	0005883a 	mov	r2,zero
   22d20:	f800283a 	ret

00022d24 <_Unwind_SjLj_RaiseException>:
   22d24:	008000f4 	movhi	r2,3
   22d28:	defff804 	addi	sp,sp,-32
   22d2c:	109b3e04 	addi	r2,r2,27896
   22d30:	dc800515 	stw	r18,20(sp)
   22d34:	14800017 	ldw	r18,0(r2)
   22d38:	dfc00715 	stw	ra,28(sp)
   22d3c:	dcc00615 	stw	r19,24(sp)
   22d40:	dc400415 	stw	r17,16(sp)
   22d44:	dc000315 	stw	r16,12(sp)
   22d48:	dc800215 	stw	r18,8(sp)
   22d4c:	90001426 	beq	r18,zero,22da0 <_Unwind_SjLj_RaiseException+0x7c>
   22d50:	2021883a 	mov	r16,r4
   22d54:	9005883a 	mov	r2,r18
   22d58:	04400184 	movi	r17,6
   22d5c:	04c00204 	movi	r19,8
   22d60:	10800617 	ldw	r2,24(r2)
   22d64:	10000a26 	beq	r2,zero,22d90 <_Unwind_SjLj_RaiseException+0x6c>
   22d68:	81800017 	ldw	r6,0(r16)
   22d6c:	81c00117 	ldw	r7,4(r16)
   22d70:	01400044 	movi	r5,1
   22d74:	d8c00204 	addi	r3,sp,8
   22d78:	d8c00115 	stw	r3,4(sp)
   22d7c:	dc000015 	stw	r16,0(sp)
   22d80:	2809883a 	mov	r4,r5
   22d84:	103ee83a 	callr	r2
   22d88:	14400d26 	beq	r2,r17,22dc0 <_Unwind_SjLj_RaiseException+0x9c>
   22d8c:	14c0171e 	bne	r2,r19,22dec <_Unwind_SjLj_RaiseException+0xc8>
   22d90:	d8800217 	ldw	r2,8(sp)
   22d94:	10800017 	ldw	r2,0(r2)
   22d98:	d8800215 	stw	r2,8(sp)
   22d9c:	103ff01e 	bne	r2,zero,22d60 <_gp+0xfffe5cd0>
   22da0:	00800144 	movi	r2,5
   22da4:	dfc00717 	ldw	ra,28(sp)
   22da8:	dcc00617 	ldw	r19,24(sp)
   22dac:	dc800517 	ldw	r18,20(sp)
   22db0:	dc400417 	ldw	r17,16(sp)
   22db4:	dc000317 	ldw	r16,12(sp)
   22db8:	dec00804 	addi	sp,sp,32
   22dbc:	f800283a 	ret
   22dc0:	d8800217 	ldw	r2,8(sp)
   22dc4:	80000315 	stw	zero,12(r16)
   22dc8:	d9400204 	addi	r5,sp,8
   22dcc:	80800415 	stw	r2,16(r16)
   22dd0:	8009883a 	mov	r4,r16
   22dd4:	dc800215 	stw	r18,8(sp)
   22dd8:	0022b4c0 	call	22b4c <_Unwind_RaiseException_Phase2>
   22ddc:	00c001c4 	movi	r3,7
   22de0:	10fff01e 	bne	r2,r3,22da4 <_gp+0xfffe5d14>
   22de4:	d9000204 	addi	r4,sp,8
   22de8:	0022c0c0 	call	22c0c <uw_install_context.isra.1>
   22dec:	008000c4 	movi	r2,3
   22df0:	003fec06 	br	22da4 <_gp+0xfffe5d14>

00022df4 <_Unwind_SjLj_ForcedUnwind>:
   22df4:	00c000f4 	movhi	r3,3
   22df8:	18db3e04 	addi	r3,r3,27896
   22dfc:	defffe04 	addi	sp,sp,-8
   22e00:	18c00017 	ldw	r3,0(r3)
   22e04:	dfc00115 	stw	ra,4(sp)
   22e08:	21400315 	stw	r5,12(r4)
   22e0c:	21800415 	stw	r6,16(r4)
   22e10:	d80b883a 	mov	r5,sp
   22e14:	d8c00015 	stw	r3,0(sp)
   22e18:	0022a340 	call	22a34 <_Unwind_ForcedUnwind_Phase2>
   22e1c:	00c001c4 	movi	r3,7
   22e20:	10c00326 	beq	r2,r3,22e30 <_Unwind_SjLj_ForcedUnwind+0x3c>
   22e24:	dfc00117 	ldw	ra,4(sp)
   22e28:	dec00204 	addi	sp,sp,8
   22e2c:	f800283a 	ret
   22e30:	d809883a 	mov	r4,sp
   22e34:	0022c0c0 	call	22c0c <uw_install_context.isra.1>

00022e38 <_Unwind_SjLj_Resume>:
   22e38:	00c000f4 	movhi	r3,3
   22e3c:	18db3e04 	addi	r3,r3,27896
   22e40:	18c00017 	ldw	r3,0(r3)
   22e44:	20800317 	ldw	r2,12(r4)
   22e48:	defffe04 	addi	sp,sp,-8
   22e4c:	dfc00115 	stw	ra,4(sp)
   22e50:	d8c00015 	stw	r3,0(sp)
   22e54:	d80b883a 	mov	r5,sp
   22e58:	1000041e 	bne	r2,zero,22e6c <_Unwind_SjLj_Resume+0x34>
   22e5c:	0022b4c0 	call	22b4c <_Unwind_RaiseException_Phase2>
   22e60:	00c001c4 	movi	r3,7
   22e64:	10c00326 	beq	r2,r3,22e74 <_Unwind_SjLj_Resume+0x3c>
   22e68:	0022f540 	call	22f54 <abort>
   22e6c:	0022a340 	call	22a34 <_Unwind_ForcedUnwind_Phase2>
   22e70:	003ffb06 	br	22e60 <_gp+0xfffe5dd0>
   22e74:	d809883a 	mov	r4,sp
   22e78:	0022c0c0 	call	22c0c <uw_install_context.isra.1>

00022e7c <_Unwind_SjLj_Resume_or_Rethrow>:
   22e7c:	20800317 	ldw	r2,12(r4)
   22e80:	defffe04 	addi	sp,sp,-8
   22e84:	dfc00115 	stw	ra,4(sp)
   22e88:	1000041e 	bne	r2,zero,22e9c <_Unwind_SjLj_Resume_or_Rethrow+0x20>
   22e8c:	0022d240 	call	22d24 <_Unwind_SjLj_RaiseException>
   22e90:	dfc00117 	ldw	ra,4(sp)
   22e94:	dec00204 	addi	sp,sp,8
   22e98:	f800283a 	ret
   22e9c:	008000f4 	movhi	r2,3
   22ea0:	109b3e04 	addi	r2,r2,27896
   22ea4:	10800017 	ldw	r2,0(r2)
   22ea8:	d80b883a 	mov	r5,sp
   22eac:	d8800015 	stw	r2,0(sp)
   22eb0:	0022a340 	call	22a34 <_Unwind_ForcedUnwind_Phase2>
   22eb4:	00c001c4 	movi	r3,7
   22eb8:	10c00126 	beq	r2,r3,22ec0 <_Unwind_SjLj_Resume_or_Rethrow+0x44>
   22ebc:	0022f540 	call	22f54 <abort>
   22ec0:	d809883a 	mov	r4,sp
   22ec4:	0022c0c0 	call	22c0c <uw_install_context.isra.1>

00022ec8 <_Unwind_DeleteException>:
   22ec8:	20800217 	ldw	r2,8(r4)
   22ecc:	10000326 	beq	r2,zero,22edc <_Unwind_DeleteException+0x14>
   22ed0:	200b883a 	mov	r5,r4
   22ed4:	01000044 	movi	r4,1
   22ed8:	1000683a 	jmp	r2
   22edc:	f800283a 	ret

00022ee0 <_Unwind_Backtrace>:
   22ee0:	008000f4 	movhi	r2,3
   22ee4:	109b3e04 	addi	r2,r2,27896
   22ee8:	10800017 	ldw	r2,0(r2)
   22eec:	defffc04 	addi	sp,sp,-16
   22ef0:	dc400215 	stw	r17,8(sp)
   22ef4:	dc000115 	stw	r16,4(sp)
   22ef8:	dfc00315 	stw	ra,12(sp)
   22efc:	2023883a 	mov	r17,r4
   22f00:	2821883a 	mov	r16,r5
   22f04:	d8800015 	stw	r2,0(sp)
   22f08:	00000506 	br	22f20 <_Unwind_Backtrace+0x40>
   22f0c:	883ee83a 	callr	r17
   22f10:	10000e1e 	bne	r2,zero,22f4c <_Unwind_Backtrace+0x6c>
   22f14:	d8800017 	ldw	r2,0(sp)
   22f18:	10800017 	ldw	r2,0(r2)
   22f1c:	d8800015 	stw	r2,0(sp)
   22f20:	800b883a 	mov	r5,r16
   22f24:	d809883a 	mov	r4,sp
   22f28:	103ff81e 	bne	r2,zero,22f0c <_gp+0xfffe5e7c>
   22f2c:	883ee83a 	callr	r17
   22f30:	1000061e 	bne	r2,zero,22f4c <_Unwind_Backtrace+0x6c>
   22f34:	00800144 	movi	r2,5
   22f38:	dfc00317 	ldw	ra,12(sp)
   22f3c:	dc400217 	ldw	r17,8(sp)
   22f40:	dc000117 	ldw	r16,4(sp)
   22f44:	dec00404 	addi	sp,sp,16
   22f48:	f800283a 	ret
   22f4c:	008000c4 	movi	r2,3
   22f50:	003ff906 	br	22f38 <_gp+0xfffe5ea8>

00022f54 <abort>:
   22f54:	deffff04 	addi	sp,sp,-4
   22f58:	01000184 	movi	r4,6
   22f5c:	dfc00015 	stw	ra,0(sp)
   22f60:	0023cb00 	call	23cb0 <raise>
   22f64:	01000044 	movi	r4,1
   22f68:	002fb3c0 	call	2fb3c <_exit>

00022f6c <malloc>:
   22f6c:	008000f4 	movhi	r2,3
   22f70:	10943504 	addi	r2,r2,20692
   22f74:	200b883a 	mov	r5,r4
   22f78:	11000017 	ldw	r4,0(r2)
   22f7c:	0022f941 	jmpi	22f94 <_malloc_r>

00022f80 <free>:
   22f80:	008000f4 	movhi	r2,3
   22f84:	10943504 	addi	r2,r2,20692
   22f88:	200b883a 	mov	r5,r4
   22f8c:	11000017 	ldw	r4,0(r2)
   22f90:	00282ec1 	jmpi	282ec <_free_r>

00022f94 <_malloc_r>:
   22f94:	defff504 	addi	sp,sp,-44
   22f98:	dc800315 	stw	r18,12(sp)
   22f9c:	dfc00a15 	stw	ra,40(sp)
   22fa0:	df000915 	stw	fp,36(sp)
   22fa4:	ddc00815 	stw	r23,32(sp)
   22fa8:	dd800715 	stw	r22,28(sp)
   22fac:	dd400615 	stw	r21,24(sp)
   22fb0:	dd000515 	stw	r20,20(sp)
   22fb4:	dcc00415 	stw	r19,16(sp)
   22fb8:	dc400215 	stw	r17,8(sp)
   22fbc:	dc000115 	stw	r16,4(sp)
   22fc0:	288002c4 	addi	r2,r5,11
   22fc4:	00c00584 	movi	r3,22
   22fc8:	2025883a 	mov	r18,r4
   22fcc:	18807f2e 	bgeu	r3,r2,231cc <_malloc_r+0x238>
   22fd0:	047ffe04 	movi	r17,-8
   22fd4:	1462703a 	and	r17,r2,r17
   22fd8:	8800a316 	blt	r17,zero,23268 <_malloc_r+0x2d4>
   22fdc:	8940a236 	bltu	r17,r5,23268 <_malloc_r+0x2d4>
   22fe0:	003029c0 	call	3029c <__malloc_lock>
   22fe4:	00807dc4 	movi	r2,503
   22fe8:	1441e92e 	bgeu	r2,r17,23790 <_malloc_r+0x7fc>
   22fec:	8804d27a 	srli	r2,r17,9
   22ff0:	1000a126 	beq	r2,zero,23278 <_malloc_r+0x2e4>
   22ff4:	00c00104 	movi	r3,4
   22ff8:	18811e36 	bltu	r3,r2,23474 <_malloc_r+0x4e0>
   22ffc:	8804d1ba 	srli	r2,r17,6
   23000:	12000e44 	addi	r8,r2,57
   23004:	11c00e04 	addi	r7,r2,56
   23008:	4209883a 	add	r4,r8,r8
   2300c:	04c000f4 	movhi	r19,3
   23010:	2109883a 	add	r4,r4,r4
   23014:	9ccd4804 	addi	r19,r19,13600
   23018:	2109883a 	add	r4,r4,r4
   2301c:	9909883a 	add	r4,r19,r4
   23020:	24000117 	ldw	r16,4(r4)
   23024:	213ffe04 	addi	r4,r4,-8
   23028:	24009726 	beq	r4,r16,23288 <_malloc_r+0x2f4>
   2302c:	80800117 	ldw	r2,4(r16)
   23030:	01bfff04 	movi	r6,-4
   23034:	014003c4 	movi	r5,15
   23038:	1184703a 	and	r2,r2,r6
   2303c:	1447c83a 	sub	r3,r2,r17
   23040:	28c00716 	blt	r5,r3,23060 <_malloc_r+0xcc>
   23044:	1800920e 	bge	r3,zero,23290 <_malloc_r+0x2fc>
   23048:	84000317 	ldw	r16,12(r16)
   2304c:	24008e26 	beq	r4,r16,23288 <_malloc_r+0x2f4>
   23050:	80800117 	ldw	r2,4(r16)
   23054:	1184703a 	and	r2,r2,r6
   23058:	1447c83a 	sub	r3,r2,r17
   2305c:	28fff90e 	bge	r5,r3,23044 <_gp+0xfffe5fb4>
   23060:	3809883a 	mov	r4,r7
   23064:	018000f4 	movhi	r6,3
   23068:	9c000417 	ldw	r16,16(r19)
   2306c:	318d4804 	addi	r6,r6,13600
   23070:	32000204 	addi	r8,r6,8
   23074:	82013426 	beq	r16,r8,23548 <_malloc_r+0x5b4>
   23078:	80c00117 	ldw	r3,4(r16)
   2307c:	00bfff04 	movi	r2,-4
   23080:	188e703a 	and	r7,r3,r2
   23084:	3c45c83a 	sub	r2,r7,r17
   23088:	00c003c4 	movi	r3,15
   2308c:	18811f16 	blt	r3,r2,2350c <_malloc_r+0x578>
   23090:	32000515 	stw	r8,20(r6)
   23094:	32000415 	stw	r8,16(r6)
   23098:	10007f0e 	bge	r2,zero,23298 <_malloc_r+0x304>
   2309c:	00807fc4 	movi	r2,511
   230a0:	11c0fd36 	bltu	r2,r7,23498 <_malloc_r+0x504>
   230a4:	3806d0fa 	srli	r3,r7,3
   230a8:	01c00044 	movi	r7,1
   230ac:	30800117 	ldw	r2,4(r6)
   230b0:	19400044 	addi	r5,r3,1
   230b4:	294b883a 	add	r5,r5,r5
   230b8:	1807d0ba 	srai	r3,r3,2
   230bc:	294b883a 	add	r5,r5,r5
   230c0:	294b883a 	add	r5,r5,r5
   230c4:	298b883a 	add	r5,r5,r6
   230c8:	38c6983a 	sll	r3,r7,r3
   230cc:	29c00017 	ldw	r7,0(r5)
   230d0:	2a7ffe04 	addi	r9,r5,-8
   230d4:	1886b03a 	or	r3,r3,r2
   230d8:	82400315 	stw	r9,12(r16)
   230dc:	81c00215 	stw	r7,8(r16)
   230e0:	30c00115 	stw	r3,4(r6)
   230e4:	2c000015 	stw	r16,0(r5)
   230e8:	3c000315 	stw	r16,12(r7)
   230ec:	2005d0ba 	srai	r2,r4,2
   230f0:	01400044 	movi	r5,1
   230f4:	288a983a 	sll	r5,r5,r2
   230f8:	19406f36 	bltu	r3,r5,232b8 <_malloc_r+0x324>
   230fc:	28c4703a 	and	r2,r5,r3
   23100:	10000a1e 	bne	r2,zero,2312c <_malloc_r+0x198>
   23104:	00bfff04 	movi	r2,-4
   23108:	294b883a 	add	r5,r5,r5
   2310c:	2088703a 	and	r4,r4,r2
   23110:	28c4703a 	and	r2,r5,r3
   23114:	21000104 	addi	r4,r4,4
   23118:	1000041e 	bne	r2,zero,2312c <_malloc_r+0x198>
   2311c:	294b883a 	add	r5,r5,r5
   23120:	28c4703a 	and	r2,r5,r3
   23124:	21000104 	addi	r4,r4,4
   23128:	103ffc26 	beq	r2,zero,2311c <_gp+0xfffe608c>
   2312c:	02bfff04 	movi	r10,-4
   23130:	024003c4 	movi	r9,15
   23134:	21800044 	addi	r6,r4,1
   23138:	318d883a 	add	r6,r6,r6
   2313c:	318d883a 	add	r6,r6,r6
   23140:	318d883a 	add	r6,r6,r6
   23144:	998d883a 	add	r6,r19,r6
   23148:	333ffe04 	addi	r12,r6,-8
   2314c:	2017883a 	mov	r11,r4
   23150:	31800104 	addi	r6,r6,4
   23154:	34000017 	ldw	r16,0(r6)
   23158:	31fffd04 	addi	r7,r6,-12
   2315c:	81c0041e 	bne	r16,r7,23170 <_malloc_r+0x1dc>
   23160:	0000fb06 	br	23550 <_malloc_r+0x5bc>
   23164:	1801030e 	bge	r3,zero,23574 <_malloc_r+0x5e0>
   23168:	84000317 	ldw	r16,12(r16)
   2316c:	81c0f826 	beq	r16,r7,23550 <_malloc_r+0x5bc>
   23170:	80800117 	ldw	r2,4(r16)
   23174:	1284703a 	and	r2,r2,r10
   23178:	1447c83a 	sub	r3,r2,r17
   2317c:	48fff90e 	bge	r9,r3,23164 <_gp+0xfffe60d4>
   23180:	80800317 	ldw	r2,12(r16)
   23184:	81000217 	ldw	r4,8(r16)
   23188:	89400054 	ori	r5,r17,1
   2318c:	81400115 	stw	r5,4(r16)
   23190:	20800315 	stw	r2,12(r4)
   23194:	11000215 	stw	r4,8(r2)
   23198:	8463883a 	add	r17,r16,r17
   2319c:	9c400515 	stw	r17,20(r19)
   231a0:	9c400415 	stw	r17,16(r19)
   231a4:	18800054 	ori	r2,r3,1
   231a8:	88800115 	stw	r2,4(r17)
   231ac:	8a000315 	stw	r8,12(r17)
   231b0:	8a000215 	stw	r8,8(r17)
   231b4:	88e3883a 	add	r17,r17,r3
   231b8:	88c00015 	stw	r3,0(r17)
   231bc:	9009883a 	mov	r4,r18
   231c0:	00302c00 	call	302c0 <__malloc_unlock>
   231c4:	80800204 	addi	r2,r16,8
   231c8:	00001b06 	br	23238 <_malloc_r+0x2a4>
   231cc:	04400404 	movi	r17,16
   231d0:	89402536 	bltu	r17,r5,23268 <_malloc_r+0x2d4>
   231d4:	003029c0 	call	3029c <__malloc_lock>
   231d8:	00800184 	movi	r2,6
   231dc:	01000084 	movi	r4,2
   231e0:	04c000f4 	movhi	r19,3
   231e4:	1085883a 	add	r2,r2,r2
   231e8:	9ccd4804 	addi	r19,r19,13600
   231ec:	1085883a 	add	r2,r2,r2
   231f0:	9885883a 	add	r2,r19,r2
   231f4:	14000117 	ldw	r16,4(r2)
   231f8:	10fffe04 	addi	r3,r2,-8
   231fc:	80c0d926 	beq	r16,r3,23564 <_malloc_r+0x5d0>
   23200:	80c00117 	ldw	r3,4(r16)
   23204:	81000317 	ldw	r4,12(r16)
   23208:	00bfff04 	movi	r2,-4
   2320c:	1884703a 	and	r2,r3,r2
   23210:	81400217 	ldw	r5,8(r16)
   23214:	8085883a 	add	r2,r16,r2
   23218:	10c00117 	ldw	r3,4(r2)
   2321c:	29000315 	stw	r4,12(r5)
   23220:	21400215 	stw	r5,8(r4)
   23224:	18c00054 	ori	r3,r3,1
   23228:	10c00115 	stw	r3,4(r2)
   2322c:	9009883a 	mov	r4,r18
   23230:	00302c00 	call	302c0 <__malloc_unlock>
   23234:	80800204 	addi	r2,r16,8
   23238:	dfc00a17 	ldw	ra,40(sp)
   2323c:	df000917 	ldw	fp,36(sp)
   23240:	ddc00817 	ldw	r23,32(sp)
   23244:	dd800717 	ldw	r22,28(sp)
   23248:	dd400617 	ldw	r21,24(sp)
   2324c:	dd000517 	ldw	r20,20(sp)
   23250:	dcc00417 	ldw	r19,16(sp)
   23254:	dc800317 	ldw	r18,12(sp)
   23258:	dc400217 	ldw	r17,8(sp)
   2325c:	dc000117 	ldw	r16,4(sp)
   23260:	dec00b04 	addi	sp,sp,44
   23264:	f800283a 	ret
   23268:	00800304 	movi	r2,12
   2326c:	90800015 	stw	r2,0(r18)
   23270:	0005883a 	mov	r2,zero
   23274:	003ff006 	br	23238 <_gp+0xfffe61a8>
   23278:	01002004 	movi	r4,128
   2327c:	02001004 	movi	r8,64
   23280:	01c00fc4 	movi	r7,63
   23284:	003f6106 	br	2300c <_gp+0xfffe5f7c>
   23288:	4009883a 	mov	r4,r8
   2328c:	003f7506 	br	23064 <_gp+0xfffe5fd4>
   23290:	81000317 	ldw	r4,12(r16)
   23294:	003fde06 	br	23210 <_gp+0xfffe6180>
   23298:	81c5883a 	add	r2,r16,r7
   2329c:	11400117 	ldw	r5,4(r2)
   232a0:	9009883a 	mov	r4,r18
   232a4:	29400054 	ori	r5,r5,1
   232a8:	11400115 	stw	r5,4(r2)
   232ac:	00302c00 	call	302c0 <__malloc_unlock>
   232b0:	80800204 	addi	r2,r16,8
   232b4:	003fe006 	br	23238 <_gp+0xfffe61a8>
   232b8:	9c000217 	ldw	r16,8(r19)
   232bc:	00bfff04 	movi	r2,-4
   232c0:	85800117 	ldw	r22,4(r16)
   232c4:	b0ac703a 	and	r22,r22,r2
   232c8:	b4400336 	bltu	r22,r17,232d8 <_malloc_r+0x344>
   232cc:	b445c83a 	sub	r2,r22,r17
   232d0:	00c003c4 	movi	r3,15
   232d4:	18805d16 	blt	r3,r2,2344c <_malloc_r+0x4b8>
   232d8:	05c000f4 	movhi	r23,3
   232dc:	008000f4 	movhi	r2,3
   232e0:	109b4104 	addi	r2,r2,27908
   232e4:	bdd43204 	addi	r23,r23,20680
   232e8:	15400017 	ldw	r21,0(r2)
   232ec:	b8c00017 	ldw	r3,0(r23)
   232f0:	00bfffc4 	movi	r2,-1
   232f4:	858d883a 	add	r6,r16,r22
   232f8:	8d6b883a 	add	r21,r17,r21
   232fc:	1880ea26 	beq	r3,r2,236a8 <_malloc_r+0x714>
   23300:	ad4403c4 	addi	r21,r21,4111
   23304:	00bc0004 	movi	r2,-4096
   23308:	a8aa703a 	and	r21,r21,r2
   2330c:	a80b883a 	mov	r5,r21
   23310:	9009883a 	mov	r4,r18
   23314:	d9800015 	stw	r6,0(sp)
   23318:	0023a080 	call	23a08 <_sbrk_r>
   2331c:	1029883a 	mov	r20,r2
   23320:	00bfffc4 	movi	r2,-1
   23324:	d9800017 	ldw	r6,0(sp)
   23328:	a080e826 	beq	r20,r2,236cc <_malloc_r+0x738>
   2332c:	a180a636 	bltu	r20,r6,235c8 <_malloc_r+0x634>
   23330:	070000f4 	movhi	fp,3
   23334:	e71b5104 	addi	fp,fp,27972
   23338:	e0800017 	ldw	r2,0(fp)
   2333c:	a887883a 	add	r3,r21,r2
   23340:	e0c00015 	stw	r3,0(fp)
   23344:	3500e626 	beq	r6,r20,236e0 <_malloc_r+0x74c>
   23348:	b9000017 	ldw	r4,0(r23)
   2334c:	00bfffc4 	movi	r2,-1
   23350:	2080ee26 	beq	r4,r2,2370c <_malloc_r+0x778>
   23354:	a185c83a 	sub	r2,r20,r6
   23358:	10c5883a 	add	r2,r2,r3
   2335c:	e0800015 	stw	r2,0(fp)
   23360:	a0c001cc 	andi	r3,r20,7
   23364:	1800bc26 	beq	r3,zero,23658 <_malloc_r+0x6c4>
   23368:	a0e9c83a 	sub	r20,r20,r3
   2336c:	00840204 	movi	r2,4104
   23370:	a5000204 	addi	r20,r20,8
   23374:	10c7c83a 	sub	r3,r2,r3
   23378:	a545883a 	add	r2,r20,r21
   2337c:	1083ffcc 	andi	r2,r2,4095
   23380:	18abc83a 	sub	r21,r3,r2
   23384:	a80b883a 	mov	r5,r21
   23388:	9009883a 	mov	r4,r18
   2338c:	0023a080 	call	23a08 <_sbrk_r>
   23390:	00ffffc4 	movi	r3,-1
   23394:	10c0e126 	beq	r2,r3,2371c <_malloc_r+0x788>
   23398:	1505c83a 	sub	r2,r2,r20
   2339c:	1545883a 	add	r2,r2,r21
   233a0:	10800054 	ori	r2,r2,1
   233a4:	e0c00017 	ldw	r3,0(fp)
   233a8:	9d000215 	stw	r20,8(r19)
   233ac:	a0800115 	stw	r2,4(r20)
   233b0:	a8c7883a 	add	r3,r21,r3
   233b4:	e0c00015 	stw	r3,0(fp)
   233b8:	84c00e26 	beq	r16,r19,233f4 <_malloc_r+0x460>
   233bc:	018003c4 	movi	r6,15
   233c0:	3580a72e 	bgeu	r6,r22,23660 <_malloc_r+0x6cc>
   233c4:	81400117 	ldw	r5,4(r16)
   233c8:	013ffe04 	movi	r4,-8
   233cc:	b0bffd04 	addi	r2,r22,-12
   233d0:	1104703a 	and	r2,r2,r4
   233d4:	2900004c 	andi	r4,r5,1
   233d8:	2088b03a 	or	r4,r4,r2
   233dc:	81000115 	stw	r4,4(r16)
   233e0:	01400144 	movi	r5,5
   233e4:	8089883a 	add	r4,r16,r2
   233e8:	21400115 	stw	r5,4(r4)
   233ec:	21400215 	stw	r5,8(r4)
   233f0:	3080cd36 	bltu	r6,r2,23728 <_malloc_r+0x794>
   233f4:	008000f4 	movhi	r2,3
   233f8:	109b4004 	addi	r2,r2,27904
   233fc:	11000017 	ldw	r4,0(r2)
   23400:	20c0012e 	bgeu	r4,r3,23408 <_malloc_r+0x474>
   23404:	10c00015 	stw	r3,0(r2)
   23408:	008000f4 	movhi	r2,3
   2340c:	109b3f04 	addi	r2,r2,27900
   23410:	11000017 	ldw	r4,0(r2)
   23414:	9c000217 	ldw	r16,8(r19)
   23418:	20c0012e 	bgeu	r4,r3,23420 <_malloc_r+0x48c>
   2341c:	10c00015 	stw	r3,0(r2)
   23420:	80c00117 	ldw	r3,4(r16)
   23424:	00bfff04 	movi	r2,-4
   23428:	1886703a 	and	r3,r3,r2
   2342c:	1c45c83a 	sub	r2,r3,r17
   23430:	1c400236 	bltu	r3,r17,2343c <_malloc_r+0x4a8>
   23434:	00c003c4 	movi	r3,15
   23438:	18800416 	blt	r3,r2,2344c <_malloc_r+0x4b8>
   2343c:	9009883a 	mov	r4,r18
   23440:	00302c00 	call	302c0 <__malloc_unlock>
   23444:	0005883a 	mov	r2,zero
   23448:	003f7b06 	br	23238 <_gp+0xfffe61a8>
   2344c:	88c00054 	ori	r3,r17,1
   23450:	80c00115 	stw	r3,4(r16)
   23454:	8463883a 	add	r17,r16,r17
   23458:	10800054 	ori	r2,r2,1
   2345c:	9c400215 	stw	r17,8(r19)
   23460:	88800115 	stw	r2,4(r17)
   23464:	9009883a 	mov	r4,r18
   23468:	00302c00 	call	302c0 <__malloc_unlock>
   2346c:	80800204 	addi	r2,r16,8
   23470:	003f7106 	br	23238 <_gp+0xfffe61a8>
   23474:	00c00504 	movi	r3,20
   23478:	18804a2e 	bgeu	r3,r2,235a4 <_malloc_r+0x610>
   2347c:	00c01504 	movi	r3,84
   23480:	18806e36 	bltu	r3,r2,2363c <_malloc_r+0x6a8>
   23484:	8804d33a 	srli	r2,r17,12
   23488:	12001bc4 	addi	r8,r2,111
   2348c:	11c01b84 	addi	r7,r2,110
   23490:	4209883a 	add	r4,r8,r8
   23494:	003edd06 	br	2300c <_gp+0xfffe5f7c>
   23498:	3804d27a 	srli	r2,r7,9
   2349c:	00c00104 	movi	r3,4
   234a0:	1880442e 	bgeu	r3,r2,235b4 <_malloc_r+0x620>
   234a4:	00c00504 	movi	r3,20
   234a8:	18808136 	bltu	r3,r2,236b0 <_malloc_r+0x71c>
   234ac:	11401704 	addi	r5,r2,92
   234b0:	10c016c4 	addi	r3,r2,91
   234b4:	294b883a 	add	r5,r5,r5
   234b8:	294b883a 	add	r5,r5,r5
   234bc:	294b883a 	add	r5,r5,r5
   234c0:	994b883a 	add	r5,r19,r5
   234c4:	28800017 	ldw	r2,0(r5)
   234c8:	018000f4 	movhi	r6,3
   234cc:	297ffe04 	addi	r5,r5,-8
   234d0:	318d4804 	addi	r6,r6,13600
   234d4:	28806526 	beq	r5,r2,2366c <_malloc_r+0x6d8>
   234d8:	01bfff04 	movi	r6,-4
   234dc:	10c00117 	ldw	r3,4(r2)
   234e0:	1986703a 	and	r3,r3,r6
   234e4:	38c0022e 	bgeu	r7,r3,234f0 <_malloc_r+0x55c>
   234e8:	10800217 	ldw	r2,8(r2)
   234ec:	28bffb1e 	bne	r5,r2,234dc <_gp+0xfffe644c>
   234f0:	11400317 	ldw	r5,12(r2)
   234f4:	98c00117 	ldw	r3,4(r19)
   234f8:	81400315 	stw	r5,12(r16)
   234fc:	80800215 	stw	r2,8(r16)
   23500:	2c000215 	stw	r16,8(r5)
   23504:	14000315 	stw	r16,12(r2)
   23508:	003ef806 	br	230ec <_gp+0xfffe605c>
   2350c:	88c00054 	ori	r3,r17,1
   23510:	80c00115 	stw	r3,4(r16)
   23514:	8463883a 	add	r17,r16,r17
   23518:	34400515 	stw	r17,20(r6)
   2351c:	34400415 	stw	r17,16(r6)
   23520:	10c00054 	ori	r3,r2,1
   23524:	8a000315 	stw	r8,12(r17)
   23528:	8a000215 	stw	r8,8(r17)
   2352c:	88c00115 	stw	r3,4(r17)
   23530:	88a3883a 	add	r17,r17,r2
   23534:	88800015 	stw	r2,0(r17)
   23538:	9009883a 	mov	r4,r18
   2353c:	00302c00 	call	302c0 <__malloc_unlock>
   23540:	80800204 	addi	r2,r16,8
   23544:	003f3c06 	br	23238 <_gp+0xfffe61a8>
   23548:	30c00117 	ldw	r3,4(r6)
   2354c:	003ee706 	br	230ec <_gp+0xfffe605c>
   23550:	5ac00044 	addi	r11,r11,1
   23554:	588000cc 	andi	r2,r11,3
   23558:	31800204 	addi	r6,r6,8
   2355c:	103efd1e 	bne	r2,zero,23154 <_gp+0xfffe60c4>
   23560:	00002406 	br	235f4 <_malloc_r+0x660>
   23564:	14000317 	ldw	r16,12(r2)
   23568:	143f251e 	bne	r2,r16,23200 <_gp+0xfffe6170>
   2356c:	21000084 	addi	r4,r4,2
   23570:	003ebc06 	br	23064 <_gp+0xfffe5fd4>
   23574:	8085883a 	add	r2,r16,r2
   23578:	10c00117 	ldw	r3,4(r2)
   2357c:	81000317 	ldw	r4,12(r16)
   23580:	81400217 	ldw	r5,8(r16)
   23584:	18c00054 	ori	r3,r3,1
   23588:	10c00115 	stw	r3,4(r2)
   2358c:	29000315 	stw	r4,12(r5)
   23590:	21400215 	stw	r5,8(r4)
   23594:	9009883a 	mov	r4,r18
   23598:	00302c00 	call	302c0 <__malloc_unlock>
   2359c:	80800204 	addi	r2,r16,8
   235a0:	003f2506 	br	23238 <_gp+0xfffe61a8>
   235a4:	12001704 	addi	r8,r2,92
   235a8:	11c016c4 	addi	r7,r2,91
   235ac:	4209883a 	add	r4,r8,r8
   235b0:	003e9606 	br	2300c <_gp+0xfffe5f7c>
   235b4:	3804d1ba 	srli	r2,r7,6
   235b8:	11400e44 	addi	r5,r2,57
   235bc:	10c00e04 	addi	r3,r2,56
   235c0:	294b883a 	add	r5,r5,r5
   235c4:	003fbc06 	br	234b8 <_gp+0xfffe6428>
   235c8:	84ff5926 	beq	r16,r19,23330 <_gp+0xfffe62a0>
   235cc:	008000f4 	movhi	r2,3
   235d0:	108d4804 	addi	r2,r2,13600
   235d4:	14000217 	ldw	r16,8(r2)
   235d8:	00bfff04 	movi	r2,-4
   235dc:	80c00117 	ldw	r3,4(r16)
   235e0:	1886703a 	and	r3,r3,r2
   235e4:	003f9106 	br	2342c <_gp+0xfffe639c>
   235e8:	60800217 	ldw	r2,8(r12)
   235ec:	213fffc4 	addi	r4,r4,-1
   235f0:	1300651e 	bne	r2,r12,23788 <_malloc_r+0x7f4>
   235f4:	208000cc 	andi	r2,r4,3
   235f8:	633ffe04 	addi	r12,r12,-8
   235fc:	103ffa1e 	bne	r2,zero,235e8 <_gp+0xfffe6558>
   23600:	98800117 	ldw	r2,4(r19)
   23604:	0146303a 	nor	r3,zero,r5
   23608:	1884703a 	and	r2,r3,r2
   2360c:	98800115 	stw	r2,4(r19)
   23610:	294b883a 	add	r5,r5,r5
   23614:	117f2836 	bltu	r2,r5,232b8 <_gp+0xfffe6228>
   23618:	283f2726 	beq	r5,zero,232b8 <_gp+0xfffe6228>
   2361c:	2886703a 	and	r3,r5,r2
   23620:	5809883a 	mov	r4,r11
   23624:	183ec31e 	bne	r3,zero,23134 <_gp+0xfffe60a4>
   23628:	294b883a 	add	r5,r5,r5
   2362c:	2886703a 	and	r3,r5,r2
   23630:	21000104 	addi	r4,r4,4
   23634:	183ffc26 	beq	r3,zero,23628 <_gp+0xfffe6598>
   23638:	003ebe06 	br	23134 <_gp+0xfffe60a4>
   2363c:	00c05504 	movi	r3,340
   23640:	18801236 	bltu	r3,r2,2368c <_malloc_r+0x6f8>
   23644:	8804d3fa 	srli	r2,r17,15
   23648:	12001e04 	addi	r8,r2,120
   2364c:	11c01dc4 	addi	r7,r2,119
   23650:	4209883a 	add	r4,r8,r8
   23654:	003e6d06 	br	2300c <_gp+0xfffe5f7c>
   23658:	00c40004 	movi	r3,4096
   2365c:	003f4606 	br	23378 <_gp+0xfffe62e8>
   23660:	00800044 	movi	r2,1
   23664:	a0800115 	stw	r2,4(r20)
   23668:	003f7406 	br	2343c <_gp+0xfffe63ac>
   2366c:	1805d0ba 	srai	r2,r3,2
   23670:	01c00044 	movi	r7,1
   23674:	30c00117 	ldw	r3,4(r6)
   23678:	388e983a 	sll	r7,r7,r2
   2367c:	2805883a 	mov	r2,r5
   23680:	38c6b03a 	or	r3,r7,r3
   23684:	30c00115 	stw	r3,4(r6)
   23688:	003f9b06 	br	234f8 <_gp+0xfffe6468>
   2368c:	00c15504 	movi	r3,1364
   23690:	18801a36 	bltu	r3,r2,236fc <_malloc_r+0x768>
   23694:	8804d4ba 	srli	r2,r17,18
   23698:	12001f44 	addi	r8,r2,125
   2369c:	11c01f04 	addi	r7,r2,124
   236a0:	4209883a 	add	r4,r8,r8
   236a4:	003e5906 	br	2300c <_gp+0xfffe5f7c>
   236a8:	ad400404 	addi	r21,r21,16
   236ac:	003f1706 	br	2330c <_gp+0xfffe627c>
   236b0:	00c01504 	movi	r3,84
   236b4:	18802336 	bltu	r3,r2,23744 <_malloc_r+0x7b0>
   236b8:	3804d33a 	srli	r2,r7,12
   236bc:	11401bc4 	addi	r5,r2,111
   236c0:	10c01b84 	addi	r3,r2,110
   236c4:	294b883a 	add	r5,r5,r5
   236c8:	003f7b06 	br	234b8 <_gp+0xfffe6428>
   236cc:	9c000217 	ldw	r16,8(r19)
   236d0:	00bfff04 	movi	r2,-4
   236d4:	80c00117 	ldw	r3,4(r16)
   236d8:	1886703a 	and	r3,r3,r2
   236dc:	003f5306 	br	2342c <_gp+0xfffe639c>
   236e0:	3083ffcc 	andi	r2,r6,4095
   236e4:	103f181e 	bne	r2,zero,23348 <_gp+0xfffe62b8>
   236e8:	99000217 	ldw	r4,8(r19)
   236ec:	b545883a 	add	r2,r22,r21
   236f0:	10800054 	ori	r2,r2,1
   236f4:	20800115 	stw	r2,4(r4)
   236f8:	003f3e06 	br	233f4 <_gp+0xfffe6364>
   236fc:	01003f84 	movi	r4,254
   23700:	02001fc4 	movi	r8,127
   23704:	01c01f84 	movi	r7,126
   23708:	003e4006 	br	2300c <_gp+0xfffe5f7c>
   2370c:	008000f4 	movhi	r2,3
   23710:	10943204 	addi	r2,r2,20680
   23714:	15000015 	stw	r20,0(r2)
   23718:	003f1106 	br	23360 <_gp+0xfffe62d0>
   2371c:	00800044 	movi	r2,1
   23720:	002b883a 	mov	r21,zero
   23724:	003f1f06 	br	233a4 <_gp+0xfffe6314>
   23728:	81400204 	addi	r5,r16,8
   2372c:	9009883a 	mov	r4,r18
   23730:	00282ec0 	call	282ec <_free_r>
   23734:	008000f4 	movhi	r2,3
   23738:	109b5104 	addi	r2,r2,27972
   2373c:	10c00017 	ldw	r3,0(r2)
   23740:	003f2c06 	br	233f4 <_gp+0xfffe6364>
   23744:	00c05504 	movi	r3,340
   23748:	18800536 	bltu	r3,r2,23760 <_malloc_r+0x7cc>
   2374c:	3804d3fa 	srli	r2,r7,15
   23750:	11401e04 	addi	r5,r2,120
   23754:	10c01dc4 	addi	r3,r2,119
   23758:	294b883a 	add	r5,r5,r5
   2375c:	003f5606 	br	234b8 <_gp+0xfffe6428>
   23760:	00c15504 	movi	r3,1364
   23764:	18800536 	bltu	r3,r2,2377c <_malloc_r+0x7e8>
   23768:	3804d4ba 	srli	r2,r7,18
   2376c:	11401f44 	addi	r5,r2,125
   23770:	10c01f04 	addi	r3,r2,124
   23774:	294b883a 	add	r5,r5,r5
   23778:	003f4f06 	br	234b8 <_gp+0xfffe6428>
   2377c:	01403f84 	movi	r5,254
   23780:	00c01f84 	movi	r3,126
   23784:	003f4c06 	br	234b8 <_gp+0xfffe6428>
   23788:	98800117 	ldw	r2,4(r19)
   2378c:	003fa006 	br	23610 <_gp+0xfffe6580>
   23790:	8808d0fa 	srli	r4,r17,3
   23794:	20800044 	addi	r2,r4,1
   23798:	1085883a 	add	r2,r2,r2
   2379c:	003e9006 	br	231e0 <_gp+0xfffe6150>

000237a0 <memset>:
   237a0:	20c000cc 	andi	r3,r4,3
   237a4:	2005883a 	mov	r2,r4
   237a8:	18004426 	beq	r3,zero,238bc <memset+0x11c>
   237ac:	31ffffc4 	addi	r7,r6,-1
   237b0:	30004026 	beq	r6,zero,238b4 <memset+0x114>
   237b4:	2813883a 	mov	r9,r5
   237b8:	200d883a 	mov	r6,r4
   237bc:	2007883a 	mov	r3,r4
   237c0:	00000406 	br	237d4 <memset+0x34>
   237c4:	3a3fffc4 	addi	r8,r7,-1
   237c8:	31800044 	addi	r6,r6,1
   237cc:	38003926 	beq	r7,zero,238b4 <memset+0x114>
   237d0:	400f883a 	mov	r7,r8
   237d4:	18c00044 	addi	r3,r3,1
   237d8:	32400005 	stb	r9,0(r6)
   237dc:	1a0000cc 	andi	r8,r3,3
   237e0:	403ff81e 	bne	r8,zero,237c4 <_gp+0xfffe6734>
   237e4:	010000c4 	movi	r4,3
   237e8:	21c02d2e 	bgeu	r4,r7,238a0 <memset+0x100>
   237ec:	29003fcc 	andi	r4,r5,255
   237f0:	200c923a 	slli	r6,r4,8
   237f4:	3108b03a 	or	r4,r6,r4
   237f8:	200c943a 	slli	r6,r4,16
   237fc:	218cb03a 	or	r6,r4,r6
   23800:	010003c4 	movi	r4,15
   23804:	21c0182e 	bgeu	r4,r7,23868 <memset+0xc8>
   23808:	3b3ffc04 	addi	r12,r7,-16
   2380c:	6018d13a 	srli	r12,r12,4
   23810:	1a000104 	addi	r8,r3,4
   23814:	1ac00204 	addi	r11,r3,8
   23818:	6008913a 	slli	r4,r12,4
   2381c:	1a800304 	addi	r10,r3,12
   23820:	1813883a 	mov	r9,r3
   23824:	21000504 	addi	r4,r4,20
   23828:	1909883a 	add	r4,r3,r4
   2382c:	49800015 	stw	r6,0(r9)
   23830:	41800015 	stw	r6,0(r8)
   23834:	59800015 	stw	r6,0(r11)
   23838:	51800015 	stw	r6,0(r10)
   2383c:	42000404 	addi	r8,r8,16
   23840:	4a400404 	addi	r9,r9,16
   23844:	5ac00404 	addi	r11,r11,16
   23848:	52800404 	addi	r10,r10,16
   2384c:	413ff71e 	bne	r8,r4,2382c <_gp+0xfffe679c>
   23850:	63000044 	addi	r12,r12,1
   23854:	6018913a 	slli	r12,r12,4
   23858:	39c003cc 	andi	r7,r7,15
   2385c:	010000c4 	movi	r4,3
   23860:	1b07883a 	add	r3,r3,r12
   23864:	21c00e2e 	bgeu	r4,r7,238a0 <memset+0x100>
   23868:	1813883a 	mov	r9,r3
   2386c:	3811883a 	mov	r8,r7
   23870:	010000c4 	movi	r4,3
   23874:	49800015 	stw	r6,0(r9)
   23878:	423fff04 	addi	r8,r8,-4
   2387c:	4a400104 	addi	r9,r9,4
   23880:	223ffc36 	bltu	r4,r8,23874 <_gp+0xfffe67e4>
   23884:	393fff04 	addi	r4,r7,-4
   23888:	2008d0ba 	srli	r4,r4,2
   2388c:	39c000cc 	andi	r7,r7,3
   23890:	21000044 	addi	r4,r4,1
   23894:	2109883a 	add	r4,r4,r4
   23898:	2109883a 	add	r4,r4,r4
   2389c:	1907883a 	add	r3,r3,r4
   238a0:	38000526 	beq	r7,zero,238b8 <memset+0x118>
   238a4:	19cf883a 	add	r7,r3,r7
   238a8:	19400005 	stb	r5,0(r3)
   238ac:	18c00044 	addi	r3,r3,1
   238b0:	38fffd1e 	bne	r7,r3,238a8 <_gp+0xfffe6818>
   238b4:	f800283a 	ret
   238b8:	f800283a 	ret
   238bc:	2007883a 	mov	r3,r4
   238c0:	300f883a 	mov	r7,r6
   238c4:	003fc706 	br	237e4 <_gp+0xfffe6754>

000238c8 <_printf_r>:
   238c8:	defffd04 	addi	sp,sp,-12
   238cc:	2805883a 	mov	r2,r5
   238d0:	dfc00015 	stw	ra,0(sp)
   238d4:	d9800115 	stw	r6,4(sp)
   238d8:	d9c00215 	stw	r7,8(sp)
   238dc:	21400217 	ldw	r5,8(r4)
   238e0:	d9c00104 	addi	r7,sp,4
   238e4:	100d883a 	mov	r6,r2
   238e8:	0023ed40 	call	23ed4 <___vfprintf_internal_r>
   238ec:	dfc00017 	ldw	ra,0(sp)
   238f0:	dec00304 	addi	sp,sp,12
   238f4:	f800283a 	ret

000238f8 <printf>:
   238f8:	defffc04 	addi	sp,sp,-16
   238fc:	dfc00015 	stw	ra,0(sp)
   23900:	d9400115 	stw	r5,4(sp)
   23904:	d9800215 	stw	r6,8(sp)
   23908:	d9c00315 	stw	r7,12(sp)
   2390c:	008000f4 	movhi	r2,3
   23910:	10943504 	addi	r2,r2,20692
   23914:	10800017 	ldw	r2,0(r2)
   23918:	200b883a 	mov	r5,r4
   2391c:	d9800104 	addi	r6,sp,4
   23920:	11000217 	ldw	r4,8(r2)
   23924:	00260cc0 	call	260cc <__vfprintf_internal>
   23928:	dfc00017 	ldw	ra,0(sp)
   2392c:	dec00404 	addi	sp,sp,16
   23930:	f800283a 	ret

00023934 <_puts_r>:
   23934:	defff604 	addi	sp,sp,-40
   23938:	dc000715 	stw	r16,28(sp)
   2393c:	2021883a 	mov	r16,r4
   23940:	2809883a 	mov	r4,r5
   23944:	dc400815 	stw	r17,32(sp)
   23948:	dfc00915 	stw	ra,36(sp)
   2394c:	2823883a 	mov	r17,r5
   23950:	0023e3c0 	call	23e3c <strlen>
   23954:	10c00044 	addi	r3,r2,1
   23958:	d8800115 	stw	r2,4(sp)
   2395c:	008000f4 	movhi	r2,3
   23960:	108c8404 	addi	r2,r2,12816
   23964:	d8800215 	stw	r2,8(sp)
   23968:	00800044 	movi	r2,1
   2396c:	d8800315 	stw	r2,12(sp)
   23970:	00800084 	movi	r2,2
   23974:	dc400015 	stw	r17,0(sp)
   23978:	d8c00615 	stw	r3,24(sp)
   2397c:	dec00415 	stw	sp,16(sp)
   23980:	d8800515 	stw	r2,20(sp)
   23984:	80000226 	beq	r16,zero,23990 <_puts_r+0x5c>
   23988:	80800e17 	ldw	r2,56(r16)
   2398c:	10001426 	beq	r2,zero,239e0 <_puts_r+0xac>
   23990:	81400217 	ldw	r5,8(r16)
   23994:	2880030b 	ldhu	r2,12(r5)
   23998:	10c8000c 	andi	r3,r2,8192
   2399c:	1800061e 	bne	r3,zero,239b8 <_puts_r+0x84>
   239a0:	29001917 	ldw	r4,100(r5)
   239a4:	00f7ffc4 	movi	r3,-8193
   239a8:	10880014 	ori	r2,r2,8192
   239ac:	20c6703a 	and	r3,r4,r3
   239b0:	2880030d 	sth	r2,12(r5)
   239b4:	28c01915 	stw	r3,100(r5)
   239b8:	d9800404 	addi	r6,sp,16
   239bc:	8009883a 	mov	r4,r16
   239c0:	00285fc0 	call	285fc <__sfvwrite_r>
   239c4:	1000091e 	bne	r2,zero,239ec <_puts_r+0xb8>
   239c8:	00800284 	movi	r2,10
   239cc:	dfc00917 	ldw	ra,36(sp)
   239d0:	dc400817 	ldw	r17,32(sp)
   239d4:	dc000717 	ldw	r16,28(sp)
   239d8:	dec00a04 	addi	sp,sp,40
   239dc:	f800283a 	ret
   239e0:	8009883a 	mov	r4,r16
   239e4:	00281780 	call	28178 <__sinit>
   239e8:	003fe906 	br	23990 <_gp+0xfffe6900>
   239ec:	00bfffc4 	movi	r2,-1
   239f0:	003ff606 	br	239cc <_gp+0xfffe693c>

000239f4 <puts>:
   239f4:	008000f4 	movhi	r2,3
   239f8:	10943504 	addi	r2,r2,20692
   239fc:	200b883a 	mov	r5,r4
   23a00:	11000017 	ldw	r4,0(r2)
   23a04:	00239341 	jmpi	23934 <_puts_r>

00023a08 <_sbrk_r>:
   23a08:	defffd04 	addi	sp,sp,-12
   23a0c:	dc000015 	stw	r16,0(sp)
   23a10:	040000f4 	movhi	r16,3
   23a14:	dc400115 	stw	r17,4(sp)
   23a18:	841b4204 	addi	r16,r16,27912
   23a1c:	2023883a 	mov	r17,r4
   23a20:	2809883a 	mov	r4,r5
   23a24:	dfc00215 	stw	ra,8(sp)
   23a28:	80000015 	stw	zero,0(r16)
   23a2c:	00306d40 	call	306d4 <sbrk>
   23a30:	00ffffc4 	movi	r3,-1
   23a34:	10c00526 	beq	r2,r3,23a4c <_sbrk_r+0x44>
   23a38:	dfc00217 	ldw	ra,8(sp)
   23a3c:	dc400117 	ldw	r17,4(sp)
   23a40:	dc000017 	ldw	r16,0(sp)
   23a44:	dec00304 	addi	sp,sp,12
   23a48:	f800283a 	ret
   23a4c:	80c00017 	ldw	r3,0(r16)
   23a50:	183ff926 	beq	r3,zero,23a38 <_gp+0xfffe69a8>
   23a54:	88c00015 	stw	r3,0(r17)
   23a58:	003ff706 	br	23a38 <_gp+0xfffe69a8>

00023a5c <_init_signal_r>:
   23a5c:	2080b717 	ldw	r2,732(r4)
   23a60:	10000226 	beq	r2,zero,23a6c <_init_signal_r+0x10>
   23a64:	0005883a 	mov	r2,zero
   23a68:	f800283a 	ret
   23a6c:	defffe04 	addi	sp,sp,-8
   23a70:	01402004 	movi	r5,128
   23a74:	dc000015 	stw	r16,0(sp)
   23a78:	dfc00115 	stw	ra,4(sp)
   23a7c:	2021883a 	mov	r16,r4
   23a80:	0022f940 	call	22f94 <_malloc_r>
   23a84:	8080b715 	stw	r2,732(r16)
   23a88:	10000d26 	beq	r2,zero,23ac0 <_init_signal_r+0x64>
   23a8c:	0007883a 	mov	r3,zero
   23a90:	01002004 	movi	r4,128
   23a94:	00000106 	br	23a9c <_init_signal_r+0x40>
   23a98:	8080b717 	ldw	r2,732(r16)
   23a9c:	10c5883a 	add	r2,r2,r3
   23aa0:	10000015 	stw	zero,0(r2)
   23aa4:	18c00104 	addi	r3,r3,4
   23aa8:	193ffb1e 	bne	r3,r4,23a98 <_gp+0xfffe6a08>
   23aac:	0005883a 	mov	r2,zero
   23ab0:	dfc00117 	ldw	ra,4(sp)
   23ab4:	dc000017 	ldw	r16,0(sp)
   23ab8:	dec00204 	addi	sp,sp,8
   23abc:	f800283a 	ret
   23ac0:	00bfffc4 	movi	r2,-1
   23ac4:	003ffa06 	br	23ab0 <_gp+0xfffe6a20>

00023ac8 <_signal_r>:
   23ac8:	00c007c4 	movi	r3,31
   23acc:	19401536 	bltu	r3,r5,23b24 <_signal_r+0x5c>
   23ad0:	2080b717 	ldw	r2,732(r4)
   23ad4:	defffc04 	addi	sp,sp,-16
   23ad8:	dc800215 	stw	r18,8(sp)
   23adc:	dc400115 	stw	r17,4(sp)
   23ae0:	dc000015 	stw	r16,0(sp)
   23ae4:	dfc00315 	stw	ra,12(sp)
   23ae8:	3023883a 	mov	r17,r6
   23aec:	2021883a 	mov	r16,r4
   23af0:	2825883a 	mov	r18,r5
   23af4:	10000f26 	beq	r2,zero,23b34 <_signal_r+0x6c>
   23af8:	948b883a 	add	r5,r18,r18
   23afc:	294b883a 	add	r5,r5,r5
   23b00:	114b883a 	add	r5,r2,r5
   23b04:	28800017 	ldw	r2,0(r5)
   23b08:	2c400015 	stw	r17,0(r5)
   23b0c:	dfc00317 	ldw	ra,12(sp)
   23b10:	dc800217 	ldw	r18,8(sp)
   23b14:	dc400117 	ldw	r17,4(sp)
   23b18:	dc000017 	ldw	r16,0(sp)
   23b1c:	dec00404 	addi	sp,sp,16
   23b20:	f800283a 	ret
   23b24:	00c00584 	movi	r3,22
   23b28:	20c00015 	stw	r3,0(r4)
   23b2c:	00bfffc4 	movi	r2,-1
   23b30:	f800283a 	ret
   23b34:	0023a5c0 	call	23a5c <_init_signal_r>
   23b38:	1000021e 	bne	r2,zero,23b44 <_signal_r+0x7c>
   23b3c:	8080b717 	ldw	r2,732(r16)
   23b40:	003fed06 	br	23af8 <_gp+0xfffe6a68>
   23b44:	00bfffc4 	movi	r2,-1
   23b48:	003ff006 	br	23b0c <_gp+0xfffe6a7c>

00023b4c <_raise_r>:
   23b4c:	008007c4 	movi	r2,31
   23b50:	11402936 	bltu	r2,r5,23bf8 <_raise_r+0xac>
   23b54:	20c0b717 	ldw	r3,732(r4)
   23b58:	defffd04 	addi	sp,sp,-12
   23b5c:	dc400115 	stw	r17,4(sp)
   23b60:	dc000015 	stw	r16,0(sp)
   23b64:	dfc00215 	stw	ra,8(sp)
   23b68:	2021883a 	mov	r16,r4
   23b6c:	2823883a 	mov	r17,r5
   23b70:	18001726 	beq	r3,zero,23bd0 <_raise_r+0x84>
   23b74:	2945883a 	add	r2,r5,r5
   23b78:	1085883a 	add	r2,r2,r2
   23b7c:	1887883a 	add	r3,r3,r2
   23b80:	19800017 	ldw	r6,0(r3)
   23b84:	30001226 	beq	r6,zero,23bd0 <_raise_r+0x84>
   23b88:	00800044 	movi	r2,1
   23b8c:	30800e26 	beq	r6,r2,23bc8 <_raise_r+0x7c>
   23b90:	013fffc4 	movi	r4,-1
   23b94:	31000926 	beq	r6,r4,23bbc <_raise_r+0x70>
   23b98:	18000015 	stw	zero,0(r3)
   23b9c:	2809883a 	mov	r4,r5
   23ba0:	303ee83a 	callr	r6
   23ba4:	0005883a 	mov	r2,zero
   23ba8:	dfc00217 	ldw	ra,8(sp)
   23bac:	dc400117 	ldw	r17,4(sp)
   23bb0:	dc000017 	ldw	r16,0(sp)
   23bb4:	dec00304 	addi	sp,sp,12
   23bb8:	f800283a 	ret
   23bbc:	00c00584 	movi	r3,22
   23bc0:	80c00015 	stw	r3,0(r16)
   23bc4:	003ff806 	br	23ba8 <_gp+0xfffe6b18>
   23bc8:	0005883a 	mov	r2,zero
   23bcc:	003ff606 	br	23ba8 <_gp+0xfffe6b18>
   23bd0:	8009883a 	mov	r4,r16
   23bd4:	0023d5c0 	call	23d5c <_getpid_r>
   23bd8:	880d883a 	mov	r6,r17
   23bdc:	100b883a 	mov	r5,r2
   23be0:	8009883a 	mov	r4,r16
   23be4:	dfc00217 	ldw	ra,8(sp)
   23be8:	dc400117 	ldw	r17,4(sp)
   23bec:	dc000017 	ldw	r16,0(sp)
   23bf0:	dec00304 	addi	sp,sp,12
   23bf4:	0023d001 	jmpi	23d00 <_kill_r>
   23bf8:	00800584 	movi	r2,22
   23bfc:	20800015 	stw	r2,0(r4)
   23c00:	00bfffc4 	movi	r2,-1
   23c04:	f800283a 	ret

00023c08 <__sigtramp_r>:
   23c08:	008007c4 	movi	r2,31
   23c0c:	11402436 	bltu	r2,r5,23ca0 <__sigtramp_r+0x98>
   23c10:	20c0b717 	ldw	r3,732(r4)
   23c14:	defffd04 	addi	sp,sp,-12
   23c18:	dc400115 	stw	r17,4(sp)
   23c1c:	dc000015 	stw	r16,0(sp)
   23c20:	dfc00215 	stw	ra,8(sp)
   23c24:	2021883a 	mov	r16,r4
   23c28:	2823883a 	mov	r17,r5
   23c2c:	18001826 	beq	r3,zero,23c90 <__sigtramp_r+0x88>
   23c30:	8c45883a 	add	r2,r17,r17
   23c34:	1085883a 	add	r2,r2,r2
   23c38:	1885883a 	add	r2,r3,r2
   23c3c:	10c00017 	ldw	r3,0(r2)
   23c40:	18001126 	beq	r3,zero,23c88 <__sigtramp_r+0x80>
   23c44:	013fffc4 	movi	r4,-1
   23c48:	19000d26 	beq	r3,r4,23c80 <__sigtramp_r+0x78>
   23c4c:	01000044 	movi	r4,1
   23c50:	19000926 	beq	r3,r4,23c78 <__sigtramp_r+0x70>
   23c54:	10000015 	stw	zero,0(r2)
   23c58:	8809883a 	mov	r4,r17
   23c5c:	183ee83a 	callr	r3
   23c60:	0005883a 	mov	r2,zero
   23c64:	dfc00217 	ldw	ra,8(sp)
   23c68:	dc400117 	ldw	r17,4(sp)
   23c6c:	dc000017 	ldw	r16,0(sp)
   23c70:	dec00304 	addi	sp,sp,12
   23c74:	f800283a 	ret
   23c78:	008000c4 	movi	r2,3
   23c7c:	003ff906 	br	23c64 <_gp+0xfffe6bd4>
   23c80:	00800084 	movi	r2,2
   23c84:	003ff706 	br	23c64 <_gp+0xfffe6bd4>
   23c88:	00800044 	movi	r2,1
   23c8c:	003ff506 	br	23c64 <_gp+0xfffe6bd4>
   23c90:	0023a5c0 	call	23a5c <_init_signal_r>
   23c94:	1000041e 	bne	r2,zero,23ca8 <__sigtramp_r+0xa0>
   23c98:	80c0b717 	ldw	r3,732(r16)
   23c9c:	003fe406 	br	23c30 <_gp+0xfffe6ba0>
   23ca0:	00bfffc4 	movi	r2,-1
   23ca4:	f800283a 	ret
   23ca8:	00bfffc4 	movi	r2,-1
   23cac:	003fed06 	br	23c64 <_gp+0xfffe6bd4>

00023cb0 <raise>:
   23cb0:	008000f4 	movhi	r2,3
   23cb4:	10943504 	addi	r2,r2,20692
   23cb8:	200b883a 	mov	r5,r4
   23cbc:	11000017 	ldw	r4,0(r2)
   23cc0:	0023b4c1 	jmpi	23b4c <_raise_r>

00023cc4 <signal>:
   23cc4:	008000f4 	movhi	r2,3
   23cc8:	10943504 	addi	r2,r2,20692
   23ccc:	280d883a 	mov	r6,r5
   23cd0:	200b883a 	mov	r5,r4
   23cd4:	11000017 	ldw	r4,0(r2)
   23cd8:	0023ac81 	jmpi	23ac8 <_signal_r>

00023cdc <_init_signal>:
   23cdc:	008000f4 	movhi	r2,3
   23ce0:	10943504 	addi	r2,r2,20692
   23ce4:	11000017 	ldw	r4,0(r2)
   23ce8:	0023a5c1 	jmpi	23a5c <_init_signal_r>

00023cec <__sigtramp>:
   23cec:	008000f4 	movhi	r2,3
   23cf0:	10943504 	addi	r2,r2,20692
   23cf4:	200b883a 	mov	r5,r4
   23cf8:	11000017 	ldw	r4,0(r2)
   23cfc:	0023c081 	jmpi	23c08 <__sigtramp_r>

00023d00 <_kill_r>:
   23d00:	defffd04 	addi	sp,sp,-12
   23d04:	2805883a 	mov	r2,r5
   23d08:	dc000015 	stw	r16,0(sp)
   23d0c:	040000f4 	movhi	r16,3
   23d10:	dc400115 	stw	r17,4(sp)
   23d14:	841b4204 	addi	r16,r16,27912
   23d18:	2023883a 	mov	r17,r4
   23d1c:	300b883a 	mov	r5,r6
   23d20:	1009883a 	mov	r4,r2
   23d24:	dfc00215 	stw	ra,8(sp)
   23d28:	80000015 	stw	zero,0(r16)
   23d2c:	002fef40 	call	2fef4 <kill>
   23d30:	00ffffc4 	movi	r3,-1
   23d34:	10c00526 	beq	r2,r3,23d4c <_kill_r+0x4c>
   23d38:	dfc00217 	ldw	ra,8(sp)
   23d3c:	dc400117 	ldw	r17,4(sp)
   23d40:	dc000017 	ldw	r16,0(sp)
   23d44:	dec00304 	addi	sp,sp,12
   23d48:	f800283a 	ret
   23d4c:	80c00017 	ldw	r3,0(r16)
   23d50:	183ff926 	beq	r3,zero,23d38 <_gp+0xfffe6ca8>
   23d54:	88c00015 	stw	r3,0(r17)
   23d58:	003ff706 	br	23d38 <_gp+0xfffe6ca8>

00023d5c <_getpid_r>:
   23d5c:	002fdb81 	jmpi	2fdb8 <getpid>

00023d60 <strcmp>:
   23d60:	2144b03a 	or	r2,r4,r5
   23d64:	108000cc 	andi	r2,r2,3
   23d68:	1000171e 	bne	r2,zero,23dc8 <strcmp+0x68>
   23d6c:	20800017 	ldw	r2,0(r4)
   23d70:	28c00017 	ldw	r3,0(r5)
   23d74:	10c0141e 	bne	r2,r3,23dc8 <strcmp+0x68>
   23d78:	027fbff4 	movhi	r9,65279
   23d7c:	4a7fbfc4 	addi	r9,r9,-257
   23d80:	0086303a 	nor	r3,zero,r2
   23d84:	02202074 	movhi	r8,32897
   23d88:	1245883a 	add	r2,r2,r9
   23d8c:	42202004 	addi	r8,r8,-32640
   23d90:	10c4703a 	and	r2,r2,r3
   23d94:	1204703a 	and	r2,r2,r8
   23d98:	10000226 	beq	r2,zero,23da4 <strcmp+0x44>
   23d9c:	00002306 	br	23e2c <strcmp+0xcc>
   23da0:	1000221e 	bne	r2,zero,23e2c <strcmp+0xcc>
   23da4:	21000104 	addi	r4,r4,4
   23da8:	20c00017 	ldw	r3,0(r4)
   23dac:	29400104 	addi	r5,r5,4
   23db0:	29800017 	ldw	r6,0(r5)
   23db4:	1a4f883a 	add	r7,r3,r9
   23db8:	00c4303a 	nor	r2,zero,r3
   23dbc:	3884703a 	and	r2,r7,r2
   23dc0:	1204703a 	and	r2,r2,r8
   23dc4:	19bff626 	beq	r3,r6,23da0 <_gp+0xfffe6d10>
   23dc8:	20800003 	ldbu	r2,0(r4)
   23dcc:	10c03fcc 	andi	r3,r2,255
   23dd0:	18c0201c 	xori	r3,r3,128
   23dd4:	18ffe004 	addi	r3,r3,-128
   23dd8:	18000c26 	beq	r3,zero,23e0c <strcmp+0xac>
   23ddc:	29800007 	ldb	r6,0(r5)
   23de0:	19800326 	beq	r3,r6,23df0 <strcmp+0x90>
   23de4:	00001306 	br	23e34 <strcmp+0xd4>
   23de8:	29800007 	ldb	r6,0(r5)
   23dec:	11800b1e 	bne	r2,r6,23e1c <strcmp+0xbc>
   23df0:	21000044 	addi	r4,r4,1
   23df4:	20c00003 	ldbu	r3,0(r4)
   23df8:	29400044 	addi	r5,r5,1
   23dfc:	18803fcc 	andi	r2,r3,255
   23e00:	1080201c 	xori	r2,r2,128
   23e04:	10bfe004 	addi	r2,r2,-128
   23e08:	103ff71e 	bne	r2,zero,23de8 <_gp+0xfffe6d58>
   23e0c:	0007883a 	mov	r3,zero
   23e10:	28800003 	ldbu	r2,0(r5)
   23e14:	1885c83a 	sub	r2,r3,r2
   23e18:	f800283a 	ret
   23e1c:	28800003 	ldbu	r2,0(r5)
   23e20:	18c03fcc 	andi	r3,r3,255
   23e24:	1885c83a 	sub	r2,r3,r2
   23e28:	f800283a 	ret
   23e2c:	0005883a 	mov	r2,zero
   23e30:	f800283a 	ret
   23e34:	10c03fcc 	andi	r3,r2,255
   23e38:	003ff506 	br	23e10 <_gp+0xfffe6d80>

00023e3c <strlen>:
   23e3c:	208000cc 	andi	r2,r4,3
   23e40:	10002026 	beq	r2,zero,23ec4 <strlen+0x88>
   23e44:	20800007 	ldb	r2,0(r4)
   23e48:	10002026 	beq	r2,zero,23ecc <strlen+0x90>
   23e4c:	2005883a 	mov	r2,r4
   23e50:	00000206 	br	23e5c <strlen+0x20>
   23e54:	10c00007 	ldb	r3,0(r2)
   23e58:	18001826 	beq	r3,zero,23ebc <strlen+0x80>
   23e5c:	10800044 	addi	r2,r2,1
   23e60:	10c000cc 	andi	r3,r2,3
   23e64:	183ffb1e 	bne	r3,zero,23e54 <_gp+0xfffe6dc4>
   23e68:	10c00017 	ldw	r3,0(r2)
   23e6c:	01ffbff4 	movhi	r7,65279
   23e70:	39ffbfc4 	addi	r7,r7,-257
   23e74:	00ca303a 	nor	r5,zero,r3
   23e78:	01a02074 	movhi	r6,32897
   23e7c:	19c7883a 	add	r3,r3,r7
   23e80:	31a02004 	addi	r6,r6,-32640
   23e84:	1946703a 	and	r3,r3,r5
   23e88:	1986703a 	and	r3,r3,r6
   23e8c:	1800091e 	bne	r3,zero,23eb4 <strlen+0x78>
   23e90:	10800104 	addi	r2,r2,4
   23e94:	10c00017 	ldw	r3,0(r2)
   23e98:	19cb883a 	add	r5,r3,r7
   23e9c:	00c6303a 	nor	r3,zero,r3
   23ea0:	28c6703a 	and	r3,r5,r3
   23ea4:	1986703a 	and	r3,r3,r6
   23ea8:	183ff926 	beq	r3,zero,23e90 <_gp+0xfffe6e00>
   23eac:	00000106 	br	23eb4 <strlen+0x78>
   23eb0:	10800044 	addi	r2,r2,1
   23eb4:	10c00007 	ldb	r3,0(r2)
   23eb8:	183ffd1e 	bne	r3,zero,23eb0 <_gp+0xfffe6e20>
   23ebc:	1105c83a 	sub	r2,r2,r4
   23ec0:	f800283a 	ret
   23ec4:	2005883a 	mov	r2,r4
   23ec8:	003fe706 	br	23e68 <_gp+0xfffe6dd8>
   23ecc:	0005883a 	mov	r2,zero
   23ed0:	f800283a 	ret

00023ed4 <___vfprintf_internal_r>:
   23ed4:	deffb804 	addi	sp,sp,-288
   23ed8:	dfc04715 	stw	ra,284(sp)
   23edc:	ddc04515 	stw	r23,276(sp)
   23ee0:	dd404315 	stw	r21,268(sp)
   23ee4:	d9002c15 	stw	r4,176(sp)
   23ee8:	282f883a 	mov	r23,r5
   23eec:	302b883a 	mov	r21,r6
   23ef0:	d9c02d15 	stw	r7,180(sp)
   23ef4:	df004615 	stw	fp,280(sp)
   23ef8:	dd804415 	stw	r22,272(sp)
   23efc:	dd004215 	stw	r20,264(sp)
   23f00:	dcc04115 	stw	r19,260(sp)
   23f04:	dc804015 	stw	r18,256(sp)
   23f08:	dc403f15 	stw	r17,252(sp)
   23f0c:	dc003e15 	stw	r16,248(sp)
   23f10:	0028cec0 	call	28cec <_localeconv_r>
   23f14:	10800017 	ldw	r2,0(r2)
   23f18:	1009883a 	mov	r4,r2
   23f1c:	d8803415 	stw	r2,208(sp)
   23f20:	0023e3c0 	call	23e3c <strlen>
   23f24:	d8803715 	stw	r2,220(sp)
   23f28:	d8802c17 	ldw	r2,176(sp)
   23f2c:	10000226 	beq	r2,zero,23f38 <___vfprintf_internal_r+0x64>
   23f30:	10800e17 	ldw	r2,56(r2)
   23f34:	1000f926 	beq	r2,zero,2431c <___vfprintf_internal_r+0x448>
   23f38:	b880030b 	ldhu	r2,12(r23)
   23f3c:	10c8000c 	andi	r3,r2,8192
   23f40:	1800061e 	bne	r3,zero,23f5c <___vfprintf_internal_r+0x88>
   23f44:	b9001917 	ldw	r4,100(r23)
   23f48:	00f7ffc4 	movi	r3,-8193
   23f4c:	10880014 	ori	r2,r2,8192
   23f50:	20c6703a 	and	r3,r4,r3
   23f54:	b880030d 	sth	r2,12(r23)
   23f58:	b8c01915 	stw	r3,100(r23)
   23f5c:	10c0020c 	andi	r3,r2,8
   23f60:	1800c126 	beq	r3,zero,24268 <___vfprintf_internal_r+0x394>
   23f64:	b8c00417 	ldw	r3,16(r23)
   23f68:	1800bf26 	beq	r3,zero,24268 <___vfprintf_internal_r+0x394>
   23f6c:	1080068c 	andi	r2,r2,26
   23f70:	00c00284 	movi	r3,10
   23f74:	10c0c426 	beq	r2,r3,24288 <___vfprintf_internal_r+0x3b4>
   23f78:	d8c00404 	addi	r3,sp,16
   23f7c:	050000f4 	movhi	r20,3
   23f80:	d9001e04 	addi	r4,sp,120
   23f84:	a50c9584 	addi	r20,r20,12886
   23f88:	d8c01e15 	stw	r3,120(sp)
   23f8c:	d8002015 	stw	zero,128(sp)
   23f90:	d8001f15 	stw	zero,124(sp)
   23f94:	d8003315 	stw	zero,204(sp)
   23f98:	d8003615 	stw	zero,216(sp)
   23f9c:	d8003815 	stw	zero,224(sp)
   23fa0:	1811883a 	mov	r8,r3
   23fa4:	d8003915 	stw	zero,228(sp)
   23fa8:	d8003a15 	stw	zero,232(sp)
   23fac:	d8002f15 	stw	zero,188(sp)
   23fb0:	d9002815 	stw	r4,160(sp)
   23fb4:	a8800007 	ldb	r2,0(r21)
   23fb8:	10027b26 	beq	r2,zero,249a8 <___vfprintf_internal_r+0xad4>
   23fbc:	00c00944 	movi	r3,37
   23fc0:	a821883a 	mov	r16,r21
   23fc4:	10c0021e 	bne	r2,r3,23fd0 <___vfprintf_internal_r+0xfc>
   23fc8:	00001406 	br	2401c <___vfprintf_internal_r+0x148>
   23fcc:	10c00326 	beq	r2,r3,23fdc <___vfprintf_internal_r+0x108>
   23fd0:	84000044 	addi	r16,r16,1
   23fd4:	80800007 	ldb	r2,0(r16)
   23fd8:	103ffc1e 	bne	r2,zero,23fcc <_gp+0xfffe6f3c>
   23fdc:	8563c83a 	sub	r17,r16,r21
   23fe0:	88000e26 	beq	r17,zero,2401c <___vfprintf_internal_r+0x148>
   23fe4:	d8c02017 	ldw	r3,128(sp)
   23fe8:	d8801f17 	ldw	r2,124(sp)
   23fec:	45400015 	stw	r21,0(r8)
   23ff0:	1c47883a 	add	r3,r3,r17
   23ff4:	10800044 	addi	r2,r2,1
   23ff8:	d8c02015 	stw	r3,128(sp)
   23ffc:	44400115 	stw	r17,4(r8)
   24000:	d8801f15 	stw	r2,124(sp)
   24004:	00c001c4 	movi	r3,7
   24008:	1880a716 	blt	r3,r2,242a8 <___vfprintf_internal_r+0x3d4>
   2400c:	42000204 	addi	r8,r8,8
   24010:	d9402f17 	ldw	r5,188(sp)
   24014:	2c4b883a 	add	r5,r5,r17
   24018:	d9402f15 	stw	r5,188(sp)
   2401c:	80800007 	ldb	r2,0(r16)
   24020:	1000a826 	beq	r2,zero,242c4 <___vfprintf_internal_r+0x3f0>
   24024:	84400047 	ldb	r17,1(r16)
   24028:	00bfffc4 	movi	r2,-1
   2402c:	85400044 	addi	r21,r16,1
   24030:	d8002785 	stb	zero,158(sp)
   24034:	0007883a 	mov	r3,zero
   24038:	000f883a 	mov	r7,zero
   2403c:	d8802915 	stw	r2,164(sp)
   24040:	d8003115 	stw	zero,196(sp)
   24044:	0025883a 	mov	r18,zero
   24048:	01401604 	movi	r5,88
   2404c:	01800244 	movi	r6,9
   24050:	02800a84 	movi	r10,42
   24054:	02401b04 	movi	r9,108
   24058:	ad400044 	addi	r21,r21,1
   2405c:	88bff804 	addi	r2,r17,-32
   24060:	28830436 	bltu	r5,r2,24c74 <___vfprintf_internal_r+0xda0>
   24064:	100490ba 	slli	r2,r2,2
   24068:	010000b4 	movhi	r4,2
   2406c:	21101f04 	addi	r4,r4,16508
   24070:	1105883a 	add	r2,r2,r4
   24074:	10800017 	ldw	r2,0(r2)
   24078:	1000683a 	jmp	r2
   2407c:	00024b94 	movui	zero,2350
   24080:	00024c74 	movhi	zero,2353
   24084:	00024c74 	movhi	zero,2353
   24088:	00024bb4 	movhi	zero,2350
   2408c:	00024c74 	movhi	zero,2353
   24090:	00024c74 	movhi	zero,2353
   24094:	00024c74 	movhi	zero,2353
   24098:	00024c74 	movhi	zero,2353
   2409c:	00024c74 	movhi	zero,2353
   240a0:	00024c74 	movhi	zero,2353
   240a4:	00024328 	cmpgeui	zero,zero,2316
   240a8:	00024ad0 	cmplti	zero,zero,2347
   240ac:	00024c74 	movhi	zero,2353
   240b0:	000241f0 	cmpltui	zero,zero,2311
   240b4:	00024350 	cmplti	zero,zero,2317
   240b8:	00024c74 	movhi	zero,2353
   240bc:	00024390 	cmplti	zero,zero,2318
   240c0:	0002439c 	xori	zero,zero,2318
   240c4:	0002439c 	xori	zero,zero,2318
   240c8:	0002439c 	xori	zero,zero,2318
   240cc:	0002439c 	xori	zero,zero,2318
   240d0:	0002439c 	xori	zero,zero,2318
   240d4:	0002439c 	xori	zero,zero,2318
   240d8:	0002439c 	xori	zero,zero,2318
   240dc:	0002439c 	xori	zero,zero,2318
   240e0:	0002439c 	xori	zero,zero,2318
   240e4:	00024c74 	movhi	zero,2353
   240e8:	00024c74 	movhi	zero,2353
   240ec:	00024c74 	movhi	zero,2353
   240f0:	00024c74 	movhi	zero,2353
   240f4:	00024c74 	movhi	zero,2353
   240f8:	00024c74 	movhi	zero,2353
   240fc:	00024c74 	movhi	zero,2353
   24100:	00024c74 	movhi	zero,2353
   24104:	00024c74 	movhi	zero,2353
   24108:	00024c74 	movhi	zero,2353
   2410c:	000243d0 	cmplti	zero,zero,2319
   24110:	0002448c 	andi	zero,zero,2322
   24114:	00024c74 	movhi	zero,2353
   24118:	0002448c 	andi	zero,zero,2322
   2411c:	00024c74 	movhi	zero,2353
   24120:	00024c74 	movhi	zero,2353
   24124:	00024c74 	movhi	zero,2353
   24128:	00024c74 	movhi	zero,2353
   2412c:	0002452c 	andhi	zero,zero,2324
   24130:	00024c74 	movhi	zero,2353
   24134:	00024c74 	movhi	zero,2353
   24138:	00024538 	rdprs	zero,zero,2324
   2413c:	00024c74 	movhi	zero,2353
   24140:	00024c74 	movhi	zero,2353
   24144:	00024c74 	movhi	zero,2353
   24148:	00024c74 	movhi	zero,2353
   2414c:	00024c74 	movhi	zero,2353
   24150:	000249b0 	cmpltui	zero,zero,2342
   24154:	00024c74 	movhi	zero,2353
   24158:	00024c74 	movhi	zero,2353
   2415c:	00024a10 	cmplti	zero,zero,2344
   24160:	00024c74 	movhi	zero,2353
   24164:	00024c74 	movhi	zero,2353
   24168:	00024c74 	movhi	zero,2353
   2416c:	00024c74 	movhi	zero,2353
   24170:	00024c74 	movhi	zero,2353
   24174:	00024c74 	movhi	zero,2353
   24178:	00024c74 	movhi	zero,2353
   2417c:	00024c74 	movhi	zero,2353
   24180:	00024c74 	movhi	zero,2353
   24184:	00024c74 	movhi	zero,2353
   24188:	00024c20 	cmpeqi	zero,zero,2352
   2418c:	00024bc0 	call	24bc <__reset-0x1db44>
   24190:	0002448c 	andi	zero,zero,2322
   24194:	0002448c 	andi	zero,zero,2322
   24198:	0002448c 	andi	zero,zero,2322
   2419c:	00024bd0 	cmplti	zero,zero,2351
   241a0:	00024bc0 	call	24bc <__reset-0x1db44>
   241a4:	00024c74 	movhi	zero,2353
   241a8:	00024c74 	movhi	zero,2353
   241ac:	00024bdc 	xori	zero,zero,2351
   241b0:	00024c74 	movhi	zero,2353
   241b4:	00024bec 	andhi	zero,zero,2351
   241b8:	00024ac0 	call	24ac <__reset-0x1db54>
   241bc:	000241fc 	xorhi	zero,zero,2311
   241c0:	00024ae0 	cmpeqi	zero,zero,2347
   241c4:	00024c74 	movhi	zero,2353
   241c8:	00024aec 	andhi	zero,zero,2347
   241cc:	00024c74 	movhi	zero,2353
   241d0:	00024b48 	cmpgei	zero,zero,2349
   241d4:	00024c74 	movhi	zero,2353
   241d8:	00024c74 	movhi	zero,2353
   241dc:	00024b58 	cmpnei	zero,zero,2349
   241e0:	d9003117 	ldw	r4,196(sp)
   241e4:	d8802d15 	stw	r2,180(sp)
   241e8:	0109c83a 	sub	r4,zero,r4
   241ec:	d9003115 	stw	r4,196(sp)
   241f0:	94800114 	ori	r18,r18,4
   241f4:	ac400007 	ldb	r17,0(r21)
   241f8:	003f9706 	br	24058 <_gp+0xfffe6fc8>
   241fc:	00800c04 	movi	r2,48
   24200:	d9002d17 	ldw	r4,180(sp)
   24204:	d9402917 	ldw	r5,164(sp)
   24208:	d8802705 	stb	r2,156(sp)
   2420c:	00801e04 	movi	r2,120
   24210:	d8802745 	stb	r2,157(sp)
   24214:	d8002785 	stb	zero,158(sp)
   24218:	20c00104 	addi	r3,r4,4
   2421c:	24c00017 	ldw	r19,0(r4)
   24220:	002d883a 	mov	r22,zero
   24224:	90800094 	ori	r2,r18,2
   24228:	28029a16 	blt	r5,zero,24c94 <___vfprintf_internal_r+0xdc0>
   2422c:	00bfdfc4 	movi	r2,-129
   24230:	90a4703a 	and	r18,r18,r2
   24234:	d8c02d15 	stw	r3,180(sp)
   24238:	94800094 	ori	r18,r18,2
   2423c:	9802871e 	bne	r19,zero,24c5c <___vfprintf_internal_r+0xd88>
   24240:	008000f4 	movhi	r2,3
   24244:	108c8e04 	addi	r2,r2,12856
   24248:	d8803915 	stw	r2,228(sp)
   2424c:	04401e04 	movi	r17,120
   24250:	d8802917 	ldw	r2,164(sp)
   24254:	0039883a 	mov	fp,zero
   24258:	1001e926 	beq	r2,zero,24a00 <___vfprintf_internal_r+0xb2c>
   2425c:	0027883a 	mov	r19,zero
   24260:	002d883a 	mov	r22,zero
   24264:	00020506 	br	24a7c <___vfprintf_internal_r+0xba8>
   24268:	d9002c17 	ldw	r4,176(sp)
   2426c:	b80b883a 	mov	r5,r23
   24270:	00261a40 	call	261a4 <__swsetup_r>
   24274:	1005ac1e 	bne	r2,zero,25928 <___vfprintf_internal_r+0x1a54>
   24278:	b880030b 	ldhu	r2,12(r23)
   2427c:	00c00284 	movi	r3,10
   24280:	1080068c 	andi	r2,r2,26
   24284:	10ff3c1e 	bne	r2,r3,23f78 <_gp+0xfffe6ee8>
   24288:	b880038f 	ldh	r2,14(r23)
   2428c:	103f3a16 	blt	r2,zero,23f78 <_gp+0xfffe6ee8>
   24290:	d9c02d17 	ldw	r7,180(sp)
   24294:	d9002c17 	ldw	r4,176(sp)
   24298:	a80d883a 	mov	r6,r21
   2429c:	b80b883a 	mov	r5,r23
   242a0:	00260e80 	call	260e8 <__sbprintf>
   242a4:	00001106 	br	242ec <___vfprintf_internal_r+0x418>
   242a8:	d9002c17 	ldw	r4,176(sp)
   242ac:	d9801e04 	addi	r6,sp,120
   242b0:	b80b883a 	mov	r5,r23
   242b4:	002aa6c0 	call	2aa6c <__sprint_r>
   242b8:	1000081e 	bne	r2,zero,242dc <___vfprintf_internal_r+0x408>
   242bc:	da000404 	addi	r8,sp,16
   242c0:	003f5306 	br	24010 <_gp+0xfffe6f80>
   242c4:	d8802017 	ldw	r2,128(sp)
   242c8:	10000426 	beq	r2,zero,242dc <___vfprintf_internal_r+0x408>
   242cc:	d9002c17 	ldw	r4,176(sp)
   242d0:	d9801e04 	addi	r6,sp,120
   242d4:	b80b883a 	mov	r5,r23
   242d8:	002aa6c0 	call	2aa6c <__sprint_r>
   242dc:	b880030b 	ldhu	r2,12(r23)
   242e0:	1080100c 	andi	r2,r2,64
   242e4:	1005901e 	bne	r2,zero,25928 <___vfprintf_internal_r+0x1a54>
   242e8:	d8802f17 	ldw	r2,188(sp)
   242ec:	dfc04717 	ldw	ra,284(sp)
   242f0:	df004617 	ldw	fp,280(sp)
   242f4:	ddc04517 	ldw	r23,276(sp)
   242f8:	dd804417 	ldw	r22,272(sp)
   242fc:	dd404317 	ldw	r21,268(sp)
   24300:	dd004217 	ldw	r20,264(sp)
   24304:	dcc04117 	ldw	r19,260(sp)
   24308:	dc804017 	ldw	r18,256(sp)
   2430c:	dc403f17 	ldw	r17,252(sp)
   24310:	dc003e17 	ldw	r16,248(sp)
   24314:	dec04804 	addi	sp,sp,288
   24318:	f800283a 	ret
   2431c:	d9002c17 	ldw	r4,176(sp)
   24320:	00281780 	call	28178 <__sinit>
   24324:	003f0406 	br	23f38 <_gp+0xfffe6ea8>
   24328:	d8802d17 	ldw	r2,180(sp)
   2432c:	d9002d17 	ldw	r4,180(sp)
   24330:	10800017 	ldw	r2,0(r2)
   24334:	d8803115 	stw	r2,196(sp)
   24338:	20800104 	addi	r2,r4,4
   2433c:	d9003117 	ldw	r4,196(sp)
   24340:	203fa716 	blt	r4,zero,241e0 <_gp+0xfffe7150>
   24344:	d8802d15 	stw	r2,180(sp)
   24348:	ac400007 	ldb	r17,0(r21)
   2434c:	003f4206 	br	24058 <_gp+0xfffe6fc8>
   24350:	ac400007 	ldb	r17,0(r21)
   24354:	aac00044 	addi	r11,r21,1
   24358:	8a872826 	beq	r17,r10,25ffc <___vfprintf_internal_r+0x2128>
   2435c:	88bff404 	addi	r2,r17,-48
   24360:	0009883a 	mov	r4,zero
   24364:	30867d36 	bltu	r6,r2,25d5c <___vfprintf_internal_r+0x1e88>
   24368:	5c400007 	ldb	r17,0(r11)
   2436c:	210002a4 	muli	r4,r4,10
   24370:	5d400044 	addi	r21,r11,1
   24374:	a817883a 	mov	r11,r21
   24378:	2089883a 	add	r4,r4,r2
   2437c:	88bff404 	addi	r2,r17,-48
   24380:	30bff92e 	bgeu	r6,r2,24368 <_gp+0xfffe72d8>
   24384:	2005c916 	blt	r4,zero,25aac <___vfprintf_internal_r+0x1bd8>
   24388:	d9002915 	stw	r4,164(sp)
   2438c:	003f3306 	br	2405c <_gp+0xfffe6fcc>
   24390:	94802014 	ori	r18,r18,128
   24394:	ac400007 	ldb	r17,0(r21)
   24398:	003f2f06 	br	24058 <_gp+0xfffe6fc8>
   2439c:	a809883a 	mov	r4,r21
   243a0:	d8003115 	stw	zero,196(sp)
   243a4:	88bff404 	addi	r2,r17,-48
   243a8:	0017883a 	mov	r11,zero
   243ac:	24400007 	ldb	r17,0(r4)
   243b0:	5ac002a4 	muli	r11,r11,10
   243b4:	ad400044 	addi	r21,r21,1
   243b8:	a809883a 	mov	r4,r21
   243bc:	12d7883a 	add	r11,r2,r11
   243c0:	88bff404 	addi	r2,r17,-48
   243c4:	30bff92e 	bgeu	r6,r2,243ac <_gp+0xfffe731c>
   243c8:	dac03115 	stw	r11,196(sp)
   243cc:	003f2306 	br	2405c <_gp+0xfffe6fcc>
   243d0:	18c03fcc 	andi	r3,r3,255
   243d4:	18072b1e 	bne	r3,zero,26084 <___vfprintf_internal_r+0x21b0>
   243d8:	94800414 	ori	r18,r18,16
   243dc:	9080080c 	andi	r2,r18,32
   243e0:	10037b26 	beq	r2,zero,251d0 <___vfprintf_internal_r+0x12fc>
   243e4:	d9402d17 	ldw	r5,180(sp)
   243e8:	28800117 	ldw	r2,4(r5)
   243ec:	2cc00017 	ldw	r19,0(r5)
   243f0:	29400204 	addi	r5,r5,8
   243f4:	d9402d15 	stw	r5,180(sp)
   243f8:	102d883a 	mov	r22,r2
   243fc:	10044b16 	blt	r2,zero,2552c <___vfprintf_internal_r+0x1658>
   24400:	d9402917 	ldw	r5,164(sp)
   24404:	df002783 	ldbu	fp,158(sp)
   24408:	2803bc16 	blt	r5,zero,252fc <___vfprintf_internal_r+0x1428>
   2440c:	00ffdfc4 	movi	r3,-129
   24410:	9d84b03a 	or	r2,r19,r22
   24414:	90e4703a 	and	r18,r18,r3
   24418:	10017726 	beq	r2,zero,249f8 <___vfprintf_internal_r+0xb24>
   2441c:	b0038326 	beq	r22,zero,2522c <___vfprintf_internal_r+0x1358>
   24420:	dc402a15 	stw	r17,168(sp)
   24424:	dc001e04 	addi	r16,sp,120
   24428:	b023883a 	mov	r17,r22
   2442c:	402d883a 	mov	r22,r8
   24430:	9809883a 	mov	r4,r19
   24434:	880b883a 	mov	r5,r17
   24438:	01800284 	movi	r6,10
   2443c:	000f883a 	mov	r7,zero
   24440:	002ce640 	call	2ce64 <__umoddi3>
   24444:	10800c04 	addi	r2,r2,48
   24448:	843fffc4 	addi	r16,r16,-1
   2444c:	9809883a 	mov	r4,r19
   24450:	880b883a 	mov	r5,r17
   24454:	80800005 	stb	r2,0(r16)
   24458:	01800284 	movi	r6,10
   2445c:	000f883a 	mov	r7,zero
   24460:	002c8ec0 	call	2c8ec <__udivdi3>
   24464:	1027883a 	mov	r19,r2
   24468:	10c4b03a 	or	r2,r2,r3
   2446c:	1823883a 	mov	r17,r3
   24470:	103fef1e 	bne	r2,zero,24430 <_gp+0xfffe73a0>
   24474:	d8c02817 	ldw	r3,160(sp)
   24478:	dc402a17 	ldw	r17,168(sp)
   2447c:	b011883a 	mov	r8,r22
   24480:	1c07c83a 	sub	r3,r3,r16
   24484:	d8c02e15 	stw	r3,184(sp)
   24488:	00005906 	br	245f0 <___vfprintf_internal_r+0x71c>
   2448c:	18c03fcc 	andi	r3,r3,255
   24490:	1806fa1e 	bne	r3,zero,2607c <___vfprintf_internal_r+0x21a8>
   24494:	9080020c 	andi	r2,r18,8
   24498:	10048a26 	beq	r2,zero,256c4 <___vfprintf_internal_r+0x17f0>
   2449c:	d8c02d17 	ldw	r3,180(sp)
   244a0:	d9002d17 	ldw	r4,180(sp)
   244a4:	d9402d17 	ldw	r5,180(sp)
   244a8:	18c00017 	ldw	r3,0(r3)
   244ac:	21000117 	ldw	r4,4(r4)
   244b0:	29400204 	addi	r5,r5,8
   244b4:	d8c03615 	stw	r3,216(sp)
   244b8:	d9003815 	stw	r4,224(sp)
   244bc:	d9402d15 	stw	r5,180(sp)
   244c0:	d9003617 	ldw	r4,216(sp)
   244c4:	d9403817 	ldw	r5,224(sp)
   244c8:	da003d15 	stw	r8,244(sp)
   244cc:	04000044 	movi	r16,1
   244d0:	002a7c00 	call	2a7c0 <__fpclassifyd>
   244d4:	da003d17 	ldw	r8,244(sp)
   244d8:	14041f1e 	bne	r2,r16,25558 <___vfprintf_internal_r+0x1684>
   244dc:	d9003617 	ldw	r4,216(sp)
   244e0:	d9403817 	ldw	r5,224(sp)
   244e4:	000d883a 	mov	r6,zero
   244e8:	000f883a 	mov	r7,zero
   244ec:	002e6940 	call	2e694 <__ledf2>
   244f0:	da003d17 	ldw	r8,244(sp)
   244f4:	1005be16 	blt	r2,zero,25bf0 <___vfprintf_internal_r+0x1d1c>
   244f8:	df002783 	ldbu	fp,158(sp)
   244fc:	008011c4 	movi	r2,71
   24500:	1445330e 	bge	r2,r17,259d0 <___vfprintf_internal_r+0x1afc>
   24504:	040000f4 	movhi	r16,3
   24508:	840c8604 	addi	r16,r16,12824
   2450c:	00c000c4 	movi	r3,3
   24510:	00bfdfc4 	movi	r2,-129
   24514:	d8c02a15 	stw	r3,168(sp)
   24518:	90a4703a 	and	r18,r18,r2
   2451c:	d8c02e15 	stw	r3,184(sp)
   24520:	d8002915 	stw	zero,164(sp)
   24524:	d8003215 	stw	zero,200(sp)
   24528:	00003706 	br	24608 <___vfprintf_internal_r+0x734>
   2452c:	94800214 	ori	r18,r18,8
   24530:	ac400007 	ldb	r17,0(r21)
   24534:	003ec806 	br	24058 <_gp+0xfffe6fc8>
   24538:	18c03fcc 	andi	r3,r3,255
   2453c:	1806db1e 	bne	r3,zero,260ac <___vfprintf_internal_r+0x21d8>
   24540:	94800414 	ori	r18,r18,16
   24544:	9080080c 	andi	r2,r18,32
   24548:	1002d826 	beq	r2,zero,250ac <___vfprintf_internal_r+0x11d8>
   2454c:	d9402d17 	ldw	r5,180(sp)
   24550:	d8c02917 	ldw	r3,164(sp)
   24554:	d8002785 	stb	zero,158(sp)
   24558:	28800204 	addi	r2,r5,8
   2455c:	2cc00017 	ldw	r19,0(r5)
   24560:	2d800117 	ldw	r22,4(r5)
   24564:	18048f16 	blt	r3,zero,257a4 <___vfprintf_internal_r+0x18d0>
   24568:	013fdfc4 	movi	r4,-129
   2456c:	9d86b03a 	or	r3,r19,r22
   24570:	d8802d15 	stw	r2,180(sp)
   24574:	9124703a 	and	r18,r18,r4
   24578:	1802d91e 	bne	r3,zero,250e0 <___vfprintf_internal_r+0x120c>
   2457c:	d8c02917 	ldw	r3,164(sp)
   24580:	0039883a 	mov	fp,zero
   24584:	1805c326 	beq	r3,zero,25c94 <___vfprintf_internal_r+0x1dc0>
   24588:	0027883a 	mov	r19,zero
   2458c:	002d883a 	mov	r22,zero
   24590:	dc001e04 	addi	r16,sp,120
   24594:	9806d0fa 	srli	r3,r19,3
   24598:	b008977a 	slli	r4,r22,29
   2459c:	b02cd0fa 	srli	r22,r22,3
   245a0:	9cc001cc 	andi	r19,r19,7
   245a4:	98800c04 	addi	r2,r19,48
   245a8:	843fffc4 	addi	r16,r16,-1
   245ac:	20e6b03a 	or	r19,r4,r3
   245b0:	80800005 	stb	r2,0(r16)
   245b4:	9d86b03a 	or	r3,r19,r22
   245b8:	183ff61e 	bne	r3,zero,24594 <_gp+0xfffe7504>
   245bc:	90c0004c 	andi	r3,r18,1
   245c0:	18013b26 	beq	r3,zero,24ab0 <___vfprintf_internal_r+0xbdc>
   245c4:	10803fcc 	andi	r2,r2,255
   245c8:	1080201c 	xori	r2,r2,128
   245cc:	10bfe004 	addi	r2,r2,-128
   245d0:	00c00c04 	movi	r3,48
   245d4:	10c13626 	beq	r2,r3,24ab0 <___vfprintf_internal_r+0xbdc>
   245d8:	80ffffc5 	stb	r3,-1(r16)
   245dc:	d8c02817 	ldw	r3,160(sp)
   245e0:	80bfffc4 	addi	r2,r16,-1
   245e4:	1021883a 	mov	r16,r2
   245e8:	1887c83a 	sub	r3,r3,r2
   245ec:	d8c02e15 	stw	r3,184(sp)
   245f0:	d8802e17 	ldw	r2,184(sp)
   245f4:	d9002917 	ldw	r4,164(sp)
   245f8:	1100010e 	bge	r2,r4,24600 <___vfprintf_internal_r+0x72c>
   245fc:	2005883a 	mov	r2,r4
   24600:	d8802a15 	stw	r2,168(sp)
   24604:	d8003215 	stw	zero,200(sp)
   24608:	e7003fcc 	andi	fp,fp,255
   2460c:	e700201c 	xori	fp,fp,128
   24610:	e73fe004 	addi	fp,fp,-128
   24614:	e0000326 	beq	fp,zero,24624 <___vfprintf_internal_r+0x750>
   24618:	d8c02a17 	ldw	r3,168(sp)
   2461c:	18c00044 	addi	r3,r3,1
   24620:	d8c02a15 	stw	r3,168(sp)
   24624:	90c0008c 	andi	r3,r18,2
   24628:	d8c02b15 	stw	r3,172(sp)
   2462c:	18000326 	beq	r3,zero,2463c <___vfprintf_internal_r+0x768>
   24630:	d8c02a17 	ldw	r3,168(sp)
   24634:	18c00084 	addi	r3,r3,2
   24638:	d8c02a15 	stw	r3,168(sp)
   2463c:	90c0210c 	andi	r3,r18,132
   24640:	d8c03015 	stw	r3,192(sp)
   24644:	1801a31e 	bne	r3,zero,24cd4 <___vfprintf_internal_r+0xe00>
   24648:	d9003117 	ldw	r4,196(sp)
   2464c:	d8c02a17 	ldw	r3,168(sp)
   24650:	20e7c83a 	sub	r19,r4,r3
   24654:	04c19f0e 	bge	zero,r19,24cd4 <___vfprintf_internal_r+0xe00>
   24658:	02400404 	movi	r9,16
   2465c:	d8c02017 	ldw	r3,128(sp)
   24660:	d8801f17 	ldw	r2,124(sp)
   24664:	4cc50d0e 	bge	r9,r19,25a9c <___vfprintf_internal_r+0x1bc8>
   24668:	014000f4 	movhi	r5,3
   2466c:	294c9984 	addi	r5,r5,12902
   24670:	dc403b15 	stw	r17,236(sp)
   24674:	d9403515 	stw	r5,212(sp)
   24678:	9823883a 	mov	r17,r19
   2467c:	482d883a 	mov	r22,r9
   24680:	9027883a 	mov	r19,r18
   24684:	070001c4 	movi	fp,7
   24688:	8025883a 	mov	r18,r16
   2468c:	dc002c17 	ldw	r16,176(sp)
   24690:	00000306 	br	246a0 <___vfprintf_internal_r+0x7cc>
   24694:	8c7ffc04 	addi	r17,r17,-16
   24698:	42000204 	addi	r8,r8,8
   2469c:	b440130e 	bge	r22,r17,246ec <___vfprintf_internal_r+0x818>
   246a0:	010000f4 	movhi	r4,3
   246a4:	18c00404 	addi	r3,r3,16
   246a8:	10800044 	addi	r2,r2,1
   246ac:	210c9984 	addi	r4,r4,12902
   246b0:	41000015 	stw	r4,0(r8)
   246b4:	45800115 	stw	r22,4(r8)
   246b8:	d8c02015 	stw	r3,128(sp)
   246bc:	d8801f15 	stw	r2,124(sp)
   246c0:	e0bff40e 	bge	fp,r2,24694 <_gp+0xfffe7604>
   246c4:	d9801e04 	addi	r6,sp,120
   246c8:	b80b883a 	mov	r5,r23
   246cc:	8009883a 	mov	r4,r16
   246d0:	002aa6c0 	call	2aa6c <__sprint_r>
   246d4:	103f011e 	bne	r2,zero,242dc <_gp+0xfffe724c>
   246d8:	8c7ffc04 	addi	r17,r17,-16
   246dc:	d8c02017 	ldw	r3,128(sp)
   246e0:	d8801f17 	ldw	r2,124(sp)
   246e4:	da000404 	addi	r8,sp,16
   246e8:	b47fed16 	blt	r22,r17,246a0 <_gp+0xfffe7610>
   246ec:	9021883a 	mov	r16,r18
   246f0:	9825883a 	mov	r18,r19
   246f4:	8827883a 	mov	r19,r17
   246f8:	dc403b17 	ldw	r17,236(sp)
   246fc:	d9403517 	ldw	r5,212(sp)
   24700:	98c7883a 	add	r3,r19,r3
   24704:	10800044 	addi	r2,r2,1
   24708:	41400015 	stw	r5,0(r8)
   2470c:	44c00115 	stw	r19,4(r8)
   24710:	d8c02015 	stw	r3,128(sp)
   24714:	d8801f15 	stw	r2,124(sp)
   24718:	010001c4 	movi	r4,7
   2471c:	2082a316 	blt	r4,r2,251ac <___vfprintf_internal_r+0x12d8>
   24720:	df002787 	ldb	fp,158(sp)
   24724:	42000204 	addi	r8,r8,8
   24728:	e0000c26 	beq	fp,zero,2475c <___vfprintf_internal_r+0x888>
   2472c:	d8801f17 	ldw	r2,124(sp)
   24730:	d9002784 	addi	r4,sp,158
   24734:	18c00044 	addi	r3,r3,1
   24738:	10800044 	addi	r2,r2,1
   2473c:	41000015 	stw	r4,0(r8)
   24740:	01000044 	movi	r4,1
   24744:	41000115 	stw	r4,4(r8)
   24748:	d8c02015 	stw	r3,128(sp)
   2474c:	d8801f15 	stw	r2,124(sp)
   24750:	010001c4 	movi	r4,7
   24754:	20823c16 	blt	r4,r2,25048 <___vfprintf_internal_r+0x1174>
   24758:	42000204 	addi	r8,r8,8
   2475c:	d8802b17 	ldw	r2,172(sp)
   24760:	10000c26 	beq	r2,zero,24794 <___vfprintf_internal_r+0x8c0>
   24764:	d8801f17 	ldw	r2,124(sp)
   24768:	d9002704 	addi	r4,sp,156
   2476c:	18c00084 	addi	r3,r3,2
   24770:	10800044 	addi	r2,r2,1
   24774:	41000015 	stw	r4,0(r8)
   24778:	01000084 	movi	r4,2
   2477c:	41000115 	stw	r4,4(r8)
   24780:	d8c02015 	stw	r3,128(sp)
   24784:	d8801f15 	stw	r2,124(sp)
   24788:	010001c4 	movi	r4,7
   2478c:	20823616 	blt	r4,r2,25068 <___vfprintf_internal_r+0x1194>
   24790:	42000204 	addi	r8,r8,8
   24794:	d9003017 	ldw	r4,192(sp)
   24798:	00802004 	movi	r2,128
   2479c:	20819926 	beq	r4,r2,24e04 <___vfprintf_internal_r+0xf30>
   247a0:	d9402917 	ldw	r5,164(sp)
   247a4:	d8802e17 	ldw	r2,184(sp)
   247a8:	28adc83a 	sub	r22,r5,r2
   247ac:	0580310e 	bge	zero,r22,24874 <___vfprintf_internal_r+0x9a0>
   247b0:	07000404 	movi	fp,16
   247b4:	d8801f17 	ldw	r2,124(sp)
   247b8:	e584140e 	bge	fp,r22,2580c <___vfprintf_internal_r+0x1938>
   247bc:	014000f4 	movhi	r5,3
   247c0:	294c9584 	addi	r5,r5,12886
   247c4:	dc402915 	stw	r17,164(sp)
   247c8:	d9402b15 	stw	r5,172(sp)
   247cc:	b023883a 	mov	r17,r22
   247d0:	04c001c4 	movi	r19,7
   247d4:	a82d883a 	mov	r22,r21
   247d8:	902b883a 	mov	r21,r18
   247dc:	8025883a 	mov	r18,r16
   247e0:	dc002c17 	ldw	r16,176(sp)
   247e4:	00000306 	br	247f4 <___vfprintf_internal_r+0x920>
   247e8:	8c7ffc04 	addi	r17,r17,-16
   247ec:	42000204 	addi	r8,r8,8
   247f0:	e440110e 	bge	fp,r17,24838 <___vfprintf_internal_r+0x964>
   247f4:	18c00404 	addi	r3,r3,16
   247f8:	10800044 	addi	r2,r2,1
   247fc:	45000015 	stw	r20,0(r8)
   24800:	47000115 	stw	fp,4(r8)
   24804:	d8c02015 	stw	r3,128(sp)
   24808:	d8801f15 	stw	r2,124(sp)
   2480c:	98bff60e 	bge	r19,r2,247e8 <_gp+0xfffe7758>
   24810:	d9801e04 	addi	r6,sp,120
   24814:	b80b883a 	mov	r5,r23
   24818:	8009883a 	mov	r4,r16
   2481c:	002aa6c0 	call	2aa6c <__sprint_r>
   24820:	103eae1e 	bne	r2,zero,242dc <_gp+0xfffe724c>
   24824:	8c7ffc04 	addi	r17,r17,-16
   24828:	d8c02017 	ldw	r3,128(sp)
   2482c:	d8801f17 	ldw	r2,124(sp)
   24830:	da000404 	addi	r8,sp,16
   24834:	e47fef16 	blt	fp,r17,247f4 <_gp+0xfffe7764>
   24838:	9021883a 	mov	r16,r18
   2483c:	a825883a 	mov	r18,r21
   24840:	b02b883a 	mov	r21,r22
   24844:	882d883a 	mov	r22,r17
   24848:	dc402917 	ldw	r17,164(sp)
   2484c:	d9002b17 	ldw	r4,172(sp)
   24850:	1d87883a 	add	r3,r3,r22
   24854:	10800044 	addi	r2,r2,1
   24858:	41000015 	stw	r4,0(r8)
   2485c:	45800115 	stw	r22,4(r8)
   24860:	d8c02015 	stw	r3,128(sp)
   24864:	d8801f15 	stw	r2,124(sp)
   24868:	010001c4 	movi	r4,7
   2486c:	2081ee16 	blt	r4,r2,25028 <___vfprintf_internal_r+0x1154>
   24870:	42000204 	addi	r8,r8,8
   24874:	9080400c 	andi	r2,r18,256
   24878:	1001181e 	bne	r2,zero,24cdc <___vfprintf_internal_r+0xe08>
   2487c:	d9402e17 	ldw	r5,184(sp)
   24880:	d8801f17 	ldw	r2,124(sp)
   24884:	44000015 	stw	r16,0(r8)
   24888:	1947883a 	add	r3,r3,r5
   2488c:	10800044 	addi	r2,r2,1
   24890:	41400115 	stw	r5,4(r8)
   24894:	d8c02015 	stw	r3,128(sp)
   24898:	d8801f15 	stw	r2,124(sp)
   2489c:	010001c4 	movi	r4,7
   248a0:	2081d316 	blt	r4,r2,24ff0 <___vfprintf_internal_r+0x111c>
   248a4:	42000204 	addi	r8,r8,8
   248a8:	9480010c 	andi	r18,r18,4
   248ac:	90003226 	beq	r18,zero,24978 <___vfprintf_internal_r+0xaa4>
   248b0:	d9403117 	ldw	r5,196(sp)
   248b4:	d8802a17 	ldw	r2,168(sp)
   248b8:	28a1c83a 	sub	r16,r5,r2
   248bc:	04002e0e 	bge	zero,r16,24978 <___vfprintf_internal_r+0xaa4>
   248c0:	04400404 	movi	r17,16
   248c4:	d8801f17 	ldw	r2,124(sp)
   248c8:	8c04a20e 	bge	r17,r16,25b54 <___vfprintf_internal_r+0x1c80>
   248cc:	014000f4 	movhi	r5,3
   248d0:	294c9984 	addi	r5,r5,12902
   248d4:	d9403515 	stw	r5,212(sp)
   248d8:	048001c4 	movi	r18,7
   248dc:	dcc02c17 	ldw	r19,176(sp)
   248e0:	00000306 	br	248f0 <___vfprintf_internal_r+0xa1c>
   248e4:	843ffc04 	addi	r16,r16,-16
   248e8:	42000204 	addi	r8,r8,8
   248ec:	8c00130e 	bge	r17,r16,2493c <___vfprintf_internal_r+0xa68>
   248f0:	010000f4 	movhi	r4,3
   248f4:	18c00404 	addi	r3,r3,16
   248f8:	10800044 	addi	r2,r2,1
   248fc:	210c9984 	addi	r4,r4,12902
   24900:	41000015 	stw	r4,0(r8)
   24904:	44400115 	stw	r17,4(r8)
   24908:	d8c02015 	stw	r3,128(sp)
   2490c:	d8801f15 	stw	r2,124(sp)
   24910:	90bff40e 	bge	r18,r2,248e4 <_gp+0xfffe7854>
   24914:	d9801e04 	addi	r6,sp,120
   24918:	b80b883a 	mov	r5,r23
   2491c:	9809883a 	mov	r4,r19
   24920:	002aa6c0 	call	2aa6c <__sprint_r>
   24924:	103e6d1e 	bne	r2,zero,242dc <_gp+0xfffe724c>
   24928:	843ffc04 	addi	r16,r16,-16
   2492c:	d8c02017 	ldw	r3,128(sp)
   24930:	d8801f17 	ldw	r2,124(sp)
   24934:	da000404 	addi	r8,sp,16
   24938:	8c3fed16 	blt	r17,r16,248f0 <_gp+0xfffe7860>
   2493c:	d9403517 	ldw	r5,212(sp)
   24940:	1c07883a 	add	r3,r3,r16
   24944:	10800044 	addi	r2,r2,1
   24948:	41400015 	stw	r5,0(r8)
   2494c:	44000115 	stw	r16,4(r8)
   24950:	d8c02015 	stw	r3,128(sp)
   24954:	d8801f15 	stw	r2,124(sp)
   24958:	010001c4 	movi	r4,7
   2495c:	2080060e 	bge	r4,r2,24978 <___vfprintf_internal_r+0xaa4>
   24960:	d9002c17 	ldw	r4,176(sp)
   24964:	d9801e04 	addi	r6,sp,120
   24968:	b80b883a 	mov	r5,r23
   2496c:	002aa6c0 	call	2aa6c <__sprint_r>
   24970:	103e5a1e 	bne	r2,zero,242dc <_gp+0xfffe724c>
   24974:	d8c02017 	ldw	r3,128(sp)
   24978:	d8803117 	ldw	r2,196(sp)
   2497c:	d9002a17 	ldw	r4,168(sp)
   24980:	1100010e 	bge	r2,r4,24988 <___vfprintf_internal_r+0xab4>
   24984:	2005883a 	mov	r2,r4
   24988:	d9402f17 	ldw	r5,188(sp)
   2498c:	288b883a 	add	r5,r5,r2
   24990:	d9402f15 	stw	r5,188(sp)
   24994:	18019e1e 	bne	r3,zero,25010 <___vfprintf_internal_r+0x113c>
   24998:	a8800007 	ldb	r2,0(r21)
   2499c:	d8001f15 	stw	zero,124(sp)
   249a0:	da000404 	addi	r8,sp,16
   249a4:	103d851e 	bne	r2,zero,23fbc <_gp+0xfffe6f2c>
   249a8:	a821883a 	mov	r16,r21
   249ac:	003d9b06 	br	2401c <_gp+0xfffe6f8c>
   249b0:	18c03fcc 	andi	r3,r3,255
   249b4:	1805c11e 	bne	r3,zero,260bc <___vfprintf_internal_r+0x21e8>
   249b8:	94800414 	ori	r18,r18,16
   249bc:	9080080c 	andi	r2,r18,32
   249c0:	10020c26 	beq	r2,zero,251f4 <___vfprintf_internal_r+0x1320>
   249c4:	d8802d17 	ldw	r2,180(sp)
   249c8:	d9002917 	ldw	r4,164(sp)
   249cc:	d8002785 	stb	zero,158(sp)
   249d0:	10c00204 	addi	r3,r2,8
   249d4:	14c00017 	ldw	r19,0(r2)
   249d8:	15800117 	ldw	r22,4(r2)
   249dc:	20040f16 	blt	r4,zero,25a1c <___vfprintf_internal_r+0x1b48>
   249e0:	013fdfc4 	movi	r4,-129
   249e4:	9d84b03a 	or	r2,r19,r22
   249e8:	d8c02d15 	stw	r3,180(sp)
   249ec:	9124703a 	and	r18,r18,r4
   249f0:	0039883a 	mov	fp,zero
   249f4:	103e891e 	bne	r2,zero,2441c <_gp+0xfffe738c>
   249f8:	d9002917 	ldw	r4,164(sp)
   249fc:	2002c11e 	bne	r4,zero,25504 <___vfprintf_internal_r+0x1630>
   24a00:	d8002915 	stw	zero,164(sp)
   24a04:	d8002e15 	stw	zero,184(sp)
   24a08:	dc001e04 	addi	r16,sp,120
   24a0c:	003ef806 	br	245f0 <_gp+0xfffe7560>
   24a10:	18c03fcc 	andi	r3,r3,255
   24a14:	18059d1e 	bne	r3,zero,2608c <___vfprintf_internal_r+0x21b8>
   24a18:	014000f4 	movhi	r5,3
   24a1c:	294c8904 	addi	r5,r5,12836
   24a20:	d9403915 	stw	r5,228(sp)
   24a24:	9080080c 	andi	r2,r18,32
   24a28:	10005226 	beq	r2,zero,24b74 <___vfprintf_internal_r+0xca0>
   24a2c:	d8802d17 	ldw	r2,180(sp)
   24a30:	14c00017 	ldw	r19,0(r2)
   24a34:	15800117 	ldw	r22,4(r2)
   24a38:	10800204 	addi	r2,r2,8
   24a3c:	d8802d15 	stw	r2,180(sp)
   24a40:	9080004c 	andi	r2,r18,1
   24a44:	10019026 	beq	r2,zero,25088 <___vfprintf_internal_r+0x11b4>
   24a48:	9d84b03a 	or	r2,r19,r22
   24a4c:	10036926 	beq	r2,zero,257f4 <___vfprintf_internal_r+0x1920>
   24a50:	d8c02917 	ldw	r3,164(sp)
   24a54:	00800c04 	movi	r2,48
   24a58:	d8802705 	stb	r2,156(sp)
   24a5c:	dc402745 	stb	r17,157(sp)
   24a60:	d8002785 	stb	zero,158(sp)
   24a64:	90800094 	ori	r2,r18,2
   24a68:	18045d16 	blt	r3,zero,25be0 <___vfprintf_internal_r+0x1d0c>
   24a6c:	00bfdfc4 	movi	r2,-129
   24a70:	90a4703a 	and	r18,r18,r2
   24a74:	94800094 	ori	r18,r18,2
   24a78:	0039883a 	mov	fp,zero
   24a7c:	d9003917 	ldw	r4,228(sp)
   24a80:	dc001e04 	addi	r16,sp,120
   24a84:	988003cc 	andi	r2,r19,15
   24a88:	b006973a 	slli	r3,r22,28
   24a8c:	2085883a 	add	r2,r4,r2
   24a90:	9826d13a 	srli	r19,r19,4
   24a94:	10800003 	ldbu	r2,0(r2)
   24a98:	b02cd13a 	srli	r22,r22,4
   24a9c:	843fffc4 	addi	r16,r16,-1
   24aa0:	1ce6b03a 	or	r19,r3,r19
   24aa4:	80800005 	stb	r2,0(r16)
   24aa8:	9d84b03a 	or	r2,r19,r22
   24aac:	103ff51e 	bne	r2,zero,24a84 <_gp+0xfffe79f4>
   24ab0:	d8c02817 	ldw	r3,160(sp)
   24ab4:	1c07c83a 	sub	r3,r3,r16
   24ab8:	d8c02e15 	stw	r3,184(sp)
   24abc:	003ecc06 	br	245f0 <_gp+0xfffe7560>
   24ac0:	18c03fcc 	andi	r3,r3,255
   24ac4:	183e9f26 	beq	r3,zero,24544 <_gp+0xfffe74b4>
   24ac8:	d9c02785 	stb	r7,158(sp)
   24acc:	003e9d06 	br	24544 <_gp+0xfffe74b4>
   24ad0:	00c00044 	movi	r3,1
   24ad4:	01c00ac4 	movi	r7,43
   24ad8:	ac400007 	ldb	r17,0(r21)
   24adc:	003d5e06 	br	24058 <_gp+0xfffe6fc8>
   24ae0:	94800814 	ori	r18,r18,32
   24ae4:	ac400007 	ldb	r17,0(r21)
   24ae8:	003d5b06 	br	24058 <_gp+0xfffe6fc8>
   24aec:	d8c02d17 	ldw	r3,180(sp)
   24af0:	d8002785 	stb	zero,158(sp)
   24af4:	1c000017 	ldw	r16,0(r3)
   24af8:	1cc00104 	addi	r19,r3,4
   24afc:	80041926 	beq	r16,zero,25b64 <___vfprintf_internal_r+0x1c90>
   24b00:	d9002917 	ldw	r4,164(sp)
   24b04:	2003d016 	blt	r4,zero,25a48 <___vfprintf_internal_r+0x1b74>
   24b08:	200d883a 	mov	r6,r4
   24b0c:	000b883a 	mov	r5,zero
   24b10:	8009883a 	mov	r4,r16
   24b14:	da003d15 	stw	r8,244(sp)
   24b18:	0028ed80 	call	28ed8 <memchr>
   24b1c:	da003d17 	ldw	r8,244(sp)
   24b20:	10045426 	beq	r2,zero,25c74 <___vfprintf_internal_r+0x1da0>
   24b24:	1405c83a 	sub	r2,r2,r16
   24b28:	d8802e15 	stw	r2,184(sp)
   24b2c:	1003cc16 	blt	r2,zero,25a60 <___vfprintf_internal_r+0x1b8c>
   24b30:	df002783 	ldbu	fp,158(sp)
   24b34:	d8802a15 	stw	r2,168(sp)
   24b38:	dcc02d15 	stw	r19,180(sp)
   24b3c:	d8002915 	stw	zero,164(sp)
   24b40:	d8003215 	stw	zero,200(sp)
   24b44:	003eb006 	br	24608 <_gp+0xfffe7578>
   24b48:	18c03fcc 	andi	r3,r3,255
   24b4c:	183f9b26 	beq	r3,zero,249bc <_gp+0xfffe792c>
   24b50:	d9c02785 	stb	r7,158(sp)
   24b54:	003f9906 	br	249bc <_gp+0xfffe792c>
   24b58:	18c03fcc 	andi	r3,r3,255
   24b5c:	1805551e 	bne	r3,zero,260b4 <___vfprintf_internal_r+0x21e0>
   24b60:	014000f4 	movhi	r5,3
   24b64:	294c8e04 	addi	r5,r5,12856
   24b68:	d9403915 	stw	r5,228(sp)
   24b6c:	9080080c 	andi	r2,r18,32
   24b70:	103fae1e 	bne	r2,zero,24a2c <_gp+0xfffe799c>
   24b74:	9080040c 	andi	r2,r18,16
   24b78:	1002de26 	beq	r2,zero,256f4 <___vfprintf_internal_r+0x1820>
   24b7c:	d8c02d17 	ldw	r3,180(sp)
   24b80:	002d883a 	mov	r22,zero
   24b84:	1cc00017 	ldw	r19,0(r3)
   24b88:	18c00104 	addi	r3,r3,4
   24b8c:	d8c02d15 	stw	r3,180(sp)
   24b90:	003fab06 	br	24a40 <_gp+0xfffe79b0>
   24b94:	38803fcc 	andi	r2,r7,255
   24b98:	1080201c 	xori	r2,r2,128
   24b9c:	10bfe004 	addi	r2,r2,-128
   24ba0:	1002d21e 	bne	r2,zero,256ec <___vfprintf_internal_r+0x1818>
   24ba4:	00c00044 	movi	r3,1
   24ba8:	01c00804 	movi	r7,32
   24bac:	ac400007 	ldb	r17,0(r21)
   24bb0:	003d2906 	br	24058 <_gp+0xfffe6fc8>
   24bb4:	94800054 	ori	r18,r18,1
   24bb8:	ac400007 	ldb	r17,0(r21)
   24bbc:	003d2606 	br	24058 <_gp+0xfffe6fc8>
   24bc0:	18c03fcc 	andi	r3,r3,255
   24bc4:	183e0526 	beq	r3,zero,243dc <_gp+0xfffe734c>
   24bc8:	d9c02785 	stb	r7,158(sp)
   24bcc:	003e0306 	br	243dc <_gp+0xfffe734c>
   24bd0:	94801014 	ori	r18,r18,64
   24bd4:	ac400007 	ldb	r17,0(r21)
   24bd8:	003d1f06 	br	24058 <_gp+0xfffe6fc8>
   24bdc:	ac400007 	ldb	r17,0(r21)
   24be0:	8a438726 	beq	r17,r9,25a00 <___vfprintf_internal_r+0x1b2c>
   24be4:	94800414 	ori	r18,r18,16
   24be8:	003d1b06 	br	24058 <_gp+0xfffe6fc8>
   24bec:	18c03fcc 	andi	r3,r3,255
   24bf0:	1805341e 	bne	r3,zero,260c4 <___vfprintf_internal_r+0x21f0>
   24bf4:	9080080c 	andi	r2,r18,32
   24bf8:	1002cd26 	beq	r2,zero,25730 <___vfprintf_internal_r+0x185c>
   24bfc:	d9402d17 	ldw	r5,180(sp)
   24c00:	d9002f17 	ldw	r4,188(sp)
   24c04:	28800017 	ldw	r2,0(r5)
   24c08:	2007d7fa 	srai	r3,r4,31
   24c0c:	29400104 	addi	r5,r5,4
   24c10:	d9402d15 	stw	r5,180(sp)
   24c14:	11000015 	stw	r4,0(r2)
   24c18:	10c00115 	stw	r3,4(r2)
   24c1c:	003ce506 	br	23fb4 <_gp+0xfffe6f24>
   24c20:	d8c02d17 	ldw	r3,180(sp)
   24c24:	d9002d17 	ldw	r4,180(sp)
   24c28:	d8002785 	stb	zero,158(sp)
   24c2c:	18800017 	ldw	r2,0(r3)
   24c30:	21000104 	addi	r4,r4,4
   24c34:	00c00044 	movi	r3,1
   24c38:	d8c02a15 	stw	r3,168(sp)
   24c3c:	d8801405 	stb	r2,80(sp)
   24c40:	d9002d15 	stw	r4,180(sp)
   24c44:	d8c02e15 	stw	r3,184(sp)
   24c48:	d8002915 	stw	zero,164(sp)
   24c4c:	d8003215 	stw	zero,200(sp)
   24c50:	dc001404 	addi	r16,sp,80
   24c54:	0039883a 	mov	fp,zero
   24c58:	003e7206 	br	24624 <_gp+0xfffe7594>
   24c5c:	010000f4 	movhi	r4,3
   24c60:	210c8e04 	addi	r4,r4,12856
   24c64:	0039883a 	mov	fp,zero
   24c68:	d9003915 	stw	r4,228(sp)
   24c6c:	04401e04 	movi	r17,120
   24c70:	003f8206 	br	24a7c <_gp+0xfffe79ec>
   24c74:	18c03fcc 	andi	r3,r3,255
   24c78:	1805061e 	bne	r3,zero,26094 <___vfprintf_internal_r+0x21c0>
   24c7c:	883d9126 	beq	r17,zero,242c4 <_gp+0xfffe7234>
   24c80:	00c00044 	movi	r3,1
   24c84:	d8c02a15 	stw	r3,168(sp)
   24c88:	dc401405 	stb	r17,80(sp)
   24c8c:	d8002785 	stb	zero,158(sp)
   24c90:	003fec06 	br	24c44 <_gp+0xfffe7bb4>
   24c94:	014000f4 	movhi	r5,3
   24c98:	294c8e04 	addi	r5,r5,12856
   24c9c:	d9403915 	stw	r5,228(sp)
   24ca0:	d8c02d15 	stw	r3,180(sp)
   24ca4:	1025883a 	mov	r18,r2
   24ca8:	04401e04 	movi	r17,120
   24cac:	9d84b03a 	or	r2,r19,r22
   24cb0:	1000fc1e 	bne	r2,zero,250a4 <___vfprintf_internal_r+0x11d0>
   24cb4:	0039883a 	mov	fp,zero
   24cb8:	00800084 	movi	r2,2
   24cbc:	10803fcc 	andi	r2,r2,255
   24cc0:	00c00044 	movi	r3,1
   24cc4:	10c20f26 	beq	r2,r3,25504 <___vfprintf_internal_r+0x1630>
   24cc8:	00c00084 	movi	r3,2
   24ccc:	10fd6326 	beq	r2,r3,2425c <_gp+0xfffe71cc>
   24cd0:	003e2d06 	br	24588 <_gp+0xfffe74f8>
   24cd4:	d8c02017 	ldw	r3,128(sp)
   24cd8:	003e9306 	br	24728 <_gp+0xfffe7698>
   24cdc:	00801944 	movi	r2,101
   24ce0:	14407e0e 	bge	r2,r17,24edc <___vfprintf_internal_r+0x1008>
   24ce4:	d9003617 	ldw	r4,216(sp)
   24ce8:	d9403817 	ldw	r5,224(sp)
   24cec:	000d883a 	mov	r6,zero
   24cf0:	000f883a 	mov	r7,zero
   24cf4:	d8c03c15 	stw	r3,240(sp)
   24cf8:	da003d15 	stw	r8,244(sp)
   24cfc:	002e5300 	call	2e530 <__eqdf2>
   24d00:	d8c03c17 	ldw	r3,240(sp)
   24d04:	da003d17 	ldw	r8,244(sp)
   24d08:	1000f71e 	bne	r2,zero,250e8 <___vfprintf_internal_r+0x1214>
   24d0c:	d8801f17 	ldw	r2,124(sp)
   24d10:	010000f4 	movhi	r4,3
   24d14:	210c9504 	addi	r4,r4,12884
   24d18:	18c00044 	addi	r3,r3,1
   24d1c:	10800044 	addi	r2,r2,1
   24d20:	41000015 	stw	r4,0(r8)
   24d24:	01000044 	movi	r4,1
   24d28:	41000115 	stw	r4,4(r8)
   24d2c:	d8c02015 	stw	r3,128(sp)
   24d30:	d8801f15 	stw	r2,124(sp)
   24d34:	010001c4 	movi	r4,7
   24d38:	2082b816 	blt	r4,r2,2581c <___vfprintf_internal_r+0x1948>
   24d3c:	42000204 	addi	r8,r8,8
   24d40:	d8802617 	ldw	r2,152(sp)
   24d44:	d9403317 	ldw	r5,204(sp)
   24d48:	11400216 	blt	r2,r5,24d54 <___vfprintf_internal_r+0xe80>
   24d4c:	9080004c 	andi	r2,r18,1
   24d50:	103ed526 	beq	r2,zero,248a8 <_gp+0xfffe7818>
   24d54:	d8803717 	ldw	r2,220(sp)
   24d58:	d9003417 	ldw	r4,208(sp)
   24d5c:	d9403717 	ldw	r5,220(sp)
   24d60:	1887883a 	add	r3,r3,r2
   24d64:	d8801f17 	ldw	r2,124(sp)
   24d68:	41000015 	stw	r4,0(r8)
   24d6c:	41400115 	stw	r5,4(r8)
   24d70:	10800044 	addi	r2,r2,1
   24d74:	d8c02015 	stw	r3,128(sp)
   24d78:	d8801f15 	stw	r2,124(sp)
   24d7c:	010001c4 	movi	r4,7
   24d80:	20832916 	blt	r4,r2,25a28 <___vfprintf_internal_r+0x1b54>
   24d84:	42000204 	addi	r8,r8,8
   24d88:	d8803317 	ldw	r2,204(sp)
   24d8c:	143fffc4 	addi	r16,r2,-1
   24d90:	043ec50e 	bge	zero,r16,248a8 <_gp+0xfffe7818>
   24d94:	04400404 	movi	r17,16
   24d98:	d8801f17 	ldw	r2,124(sp)
   24d9c:	8c00880e 	bge	r17,r16,24fc0 <___vfprintf_internal_r+0x10ec>
   24da0:	014000f4 	movhi	r5,3
   24da4:	294c9584 	addi	r5,r5,12886
   24da8:	d9402b15 	stw	r5,172(sp)
   24dac:	058001c4 	movi	r22,7
   24db0:	dcc02c17 	ldw	r19,176(sp)
   24db4:	00000306 	br	24dc4 <___vfprintf_internal_r+0xef0>
   24db8:	42000204 	addi	r8,r8,8
   24dbc:	843ffc04 	addi	r16,r16,-16
   24dc0:	8c00820e 	bge	r17,r16,24fcc <___vfprintf_internal_r+0x10f8>
   24dc4:	18c00404 	addi	r3,r3,16
   24dc8:	10800044 	addi	r2,r2,1
   24dcc:	45000015 	stw	r20,0(r8)
   24dd0:	44400115 	stw	r17,4(r8)
   24dd4:	d8c02015 	stw	r3,128(sp)
   24dd8:	d8801f15 	stw	r2,124(sp)
   24ddc:	b0bff60e 	bge	r22,r2,24db8 <_gp+0xfffe7d28>
   24de0:	d9801e04 	addi	r6,sp,120
   24de4:	b80b883a 	mov	r5,r23
   24de8:	9809883a 	mov	r4,r19
   24dec:	002aa6c0 	call	2aa6c <__sprint_r>
   24df0:	103d3a1e 	bne	r2,zero,242dc <_gp+0xfffe724c>
   24df4:	d8c02017 	ldw	r3,128(sp)
   24df8:	d8801f17 	ldw	r2,124(sp)
   24dfc:	da000404 	addi	r8,sp,16
   24e00:	003fee06 	br	24dbc <_gp+0xfffe7d2c>
   24e04:	d9403117 	ldw	r5,196(sp)
   24e08:	d8802a17 	ldw	r2,168(sp)
   24e0c:	28adc83a 	sub	r22,r5,r2
   24e10:	05be630e 	bge	zero,r22,247a0 <_gp+0xfffe7710>
   24e14:	07000404 	movi	fp,16
   24e18:	d8801f17 	ldw	r2,124(sp)
   24e1c:	e5838f0e 	bge	fp,r22,25c5c <___vfprintf_internal_r+0x1d88>
   24e20:	014000f4 	movhi	r5,3
   24e24:	294c9584 	addi	r5,r5,12886
   24e28:	dc403015 	stw	r17,192(sp)
   24e2c:	d9402b15 	stw	r5,172(sp)
   24e30:	b023883a 	mov	r17,r22
   24e34:	04c001c4 	movi	r19,7
   24e38:	a82d883a 	mov	r22,r21
   24e3c:	902b883a 	mov	r21,r18
   24e40:	8025883a 	mov	r18,r16
   24e44:	dc002c17 	ldw	r16,176(sp)
   24e48:	00000306 	br	24e58 <___vfprintf_internal_r+0xf84>
   24e4c:	8c7ffc04 	addi	r17,r17,-16
   24e50:	42000204 	addi	r8,r8,8
   24e54:	e440110e 	bge	fp,r17,24e9c <___vfprintf_internal_r+0xfc8>
   24e58:	18c00404 	addi	r3,r3,16
   24e5c:	10800044 	addi	r2,r2,1
   24e60:	45000015 	stw	r20,0(r8)
   24e64:	47000115 	stw	fp,4(r8)
   24e68:	d8c02015 	stw	r3,128(sp)
   24e6c:	d8801f15 	stw	r2,124(sp)
   24e70:	98bff60e 	bge	r19,r2,24e4c <_gp+0xfffe7dbc>
   24e74:	d9801e04 	addi	r6,sp,120
   24e78:	b80b883a 	mov	r5,r23
   24e7c:	8009883a 	mov	r4,r16
   24e80:	002aa6c0 	call	2aa6c <__sprint_r>
   24e84:	103d151e 	bne	r2,zero,242dc <_gp+0xfffe724c>
   24e88:	8c7ffc04 	addi	r17,r17,-16
   24e8c:	d8c02017 	ldw	r3,128(sp)
   24e90:	d8801f17 	ldw	r2,124(sp)
   24e94:	da000404 	addi	r8,sp,16
   24e98:	e47fef16 	blt	fp,r17,24e58 <_gp+0xfffe7dc8>
   24e9c:	9021883a 	mov	r16,r18
   24ea0:	a825883a 	mov	r18,r21
   24ea4:	b02b883a 	mov	r21,r22
   24ea8:	882d883a 	mov	r22,r17
   24eac:	dc403017 	ldw	r17,192(sp)
   24eb0:	d9002b17 	ldw	r4,172(sp)
   24eb4:	1d87883a 	add	r3,r3,r22
   24eb8:	10800044 	addi	r2,r2,1
   24ebc:	41000015 	stw	r4,0(r8)
   24ec0:	45800115 	stw	r22,4(r8)
   24ec4:	d8c02015 	stw	r3,128(sp)
   24ec8:	d8801f15 	stw	r2,124(sp)
   24ecc:	010001c4 	movi	r4,7
   24ed0:	20818e16 	blt	r4,r2,2550c <___vfprintf_internal_r+0x1638>
   24ed4:	42000204 	addi	r8,r8,8
   24ed8:	003e3106 	br	247a0 <_gp+0xfffe7710>
   24edc:	d9403317 	ldw	r5,204(sp)
   24ee0:	00800044 	movi	r2,1
   24ee4:	18c00044 	addi	r3,r3,1
   24ee8:	1141530e 	bge	r2,r5,25438 <___vfprintf_internal_r+0x1564>
   24eec:	dc401f17 	ldw	r17,124(sp)
   24ef0:	00800044 	movi	r2,1
   24ef4:	40800115 	stw	r2,4(r8)
   24ef8:	8c400044 	addi	r17,r17,1
   24efc:	44000015 	stw	r16,0(r8)
   24f00:	d8c02015 	stw	r3,128(sp)
   24f04:	dc401f15 	stw	r17,124(sp)
   24f08:	008001c4 	movi	r2,7
   24f0c:	14416b16 	blt	r2,r17,254bc <___vfprintf_internal_r+0x15e8>
   24f10:	42000204 	addi	r8,r8,8
   24f14:	d8803717 	ldw	r2,220(sp)
   24f18:	d9003417 	ldw	r4,208(sp)
   24f1c:	8c400044 	addi	r17,r17,1
   24f20:	10c7883a 	add	r3,r2,r3
   24f24:	40800115 	stw	r2,4(r8)
   24f28:	41000015 	stw	r4,0(r8)
   24f2c:	d8c02015 	stw	r3,128(sp)
   24f30:	dc401f15 	stw	r17,124(sp)
   24f34:	008001c4 	movi	r2,7
   24f38:	14416916 	blt	r2,r17,254e0 <___vfprintf_internal_r+0x160c>
   24f3c:	45800204 	addi	r22,r8,8
   24f40:	d9003617 	ldw	r4,216(sp)
   24f44:	d9403817 	ldw	r5,224(sp)
   24f48:	000d883a 	mov	r6,zero
   24f4c:	000f883a 	mov	r7,zero
   24f50:	d8c03c15 	stw	r3,240(sp)
   24f54:	002e5300 	call	2e530 <__eqdf2>
   24f58:	d8c03c17 	ldw	r3,240(sp)
   24f5c:	1000bc26 	beq	r2,zero,25250 <___vfprintf_internal_r+0x137c>
   24f60:	d9403317 	ldw	r5,204(sp)
   24f64:	84000044 	addi	r16,r16,1
   24f68:	8c400044 	addi	r17,r17,1
   24f6c:	28bfffc4 	addi	r2,r5,-1
   24f70:	1887883a 	add	r3,r3,r2
   24f74:	b0800115 	stw	r2,4(r22)
   24f78:	b4000015 	stw	r16,0(r22)
   24f7c:	d8c02015 	stw	r3,128(sp)
   24f80:	dc401f15 	stw	r17,124(sp)
   24f84:	008001c4 	movi	r2,7
   24f88:	14414316 	blt	r2,r17,25498 <___vfprintf_internal_r+0x15c4>
   24f8c:	b5800204 	addi	r22,r22,8
   24f90:	d9003a17 	ldw	r4,232(sp)
   24f94:	df0022c4 	addi	fp,sp,139
   24f98:	8c400044 	addi	r17,r17,1
   24f9c:	20c7883a 	add	r3,r4,r3
   24fa0:	b7000015 	stw	fp,0(r22)
   24fa4:	b1000115 	stw	r4,4(r22)
   24fa8:	d8c02015 	stw	r3,128(sp)
   24fac:	dc401f15 	stw	r17,124(sp)
   24fb0:	008001c4 	movi	r2,7
   24fb4:	14400e16 	blt	r2,r17,24ff0 <___vfprintf_internal_r+0x111c>
   24fb8:	b2000204 	addi	r8,r22,8
   24fbc:	003e3a06 	br	248a8 <_gp+0xfffe7818>
   24fc0:	010000f4 	movhi	r4,3
   24fc4:	210c9584 	addi	r4,r4,12886
   24fc8:	d9002b15 	stw	r4,172(sp)
   24fcc:	d9002b17 	ldw	r4,172(sp)
   24fd0:	1c07883a 	add	r3,r3,r16
   24fd4:	44000115 	stw	r16,4(r8)
   24fd8:	41000015 	stw	r4,0(r8)
   24fdc:	10800044 	addi	r2,r2,1
   24fe0:	d8c02015 	stw	r3,128(sp)
   24fe4:	d8801f15 	stw	r2,124(sp)
   24fe8:	010001c4 	movi	r4,7
   24fec:	20be2d0e 	bge	r4,r2,248a4 <_gp+0xfffe7814>
   24ff0:	d9002c17 	ldw	r4,176(sp)
   24ff4:	d9801e04 	addi	r6,sp,120
   24ff8:	b80b883a 	mov	r5,r23
   24ffc:	002aa6c0 	call	2aa6c <__sprint_r>
   25000:	103cb61e 	bne	r2,zero,242dc <_gp+0xfffe724c>
   25004:	d8c02017 	ldw	r3,128(sp)
   25008:	da000404 	addi	r8,sp,16
   2500c:	003e2606 	br	248a8 <_gp+0xfffe7818>
   25010:	d9002c17 	ldw	r4,176(sp)
   25014:	d9801e04 	addi	r6,sp,120
   25018:	b80b883a 	mov	r5,r23
   2501c:	002aa6c0 	call	2aa6c <__sprint_r>
   25020:	103e5d26 	beq	r2,zero,24998 <_gp+0xfffe7908>
   25024:	003cad06 	br	242dc <_gp+0xfffe724c>
   25028:	d9002c17 	ldw	r4,176(sp)
   2502c:	d9801e04 	addi	r6,sp,120
   25030:	b80b883a 	mov	r5,r23
   25034:	002aa6c0 	call	2aa6c <__sprint_r>
   25038:	103ca81e 	bne	r2,zero,242dc <_gp+0xfffe724c>
   2503c:	d8c02017 	ldw	r3,128(sp)
   25040:	da000404 	addi	r8,sp,16
